(dp1
S'output'
p2
S"<type 'exceptions.SyntaxError'> invalid syntax (default/index.html, line 46)"
p3
sS'layer'
p4
S'C:\\webapps\\ben\\project\\web2py\\applications\\profile\\views\\default/index.html'
p5
sS'code'
p6
S'response.write(\'<!DOCTYPE html>\\n<!-- paulirish.com/2008/conditional-stylesheets-vs-css-hacks-answer-neither/ -->\\n<!--[if lt IE 7]><html class="ie ie6 ie-lte9 ie-lte8 ie-lte7 no-js" lang="\', escape=False)\nresponse.write(T.accepted_language or \'en\')\nresponse.write(\'"> <![endif]-->\\n<!--[if IE 7]><html class="ie ie7 ie-lte9 ie-lte8 ie-lte7 no-js" lang="\', escape=False)\nresponse.write(T.accepted_language or \'en\')\nresponse.write(\'"> <![endif]-->\\n<!--[if IE 8]><html class="ie ie8 ie-lte9 ie-lte8 no-js" lang="\', escape=False)\nresponse.write(T.accepted_language or \'en\')\nresponse.write(\'"> <![endif]-->\\n<!--[if IE 9]><html class="ie9 ie-lte9 no-js" lang="\', escape=False)\nresponse.write(T.accepted_language or \'en\')\nresponse.write(\'"> <![endif]-->\\n<!--[if (gt IE 9)|!(IE)]><!--> <html class="no-js" lang="\', escape=False)\nresponse.write(T.accepted_language or \'en\')\nresponse.write(\'"> <!--<![endif]-->\\n<head>\\n  <meta charset="utf-8" />\\n  <!-- www.phpied.com/conditional-comments-block-downloads/ -->\\n  <!-- Always force latest IE rendering engine\\n\\t   (even in intranet) & Chrome Frame\\n\\t   Remove this if you use the .htaccess -->\\n  <!--[if IE]>\\n    <meta http-equiv="X-UA-Compatible" content="IE=edge\', escape=False)\nresponse.write(not request.is_local and \',chrome=1\' or \'\')\nresponse.write(\'">\\n  <![endif]-->\\n  \\n  <title>\', escape=False)\nresponse.write(response.title or request.application)\nresponse.write(\'</title>\\n  \\n  <!-- http://dev.w3.org/html5/markup/meta.name.html -->\\n  <meta name="application-name" content="\', escape=False)\nresponse.write(request.application)\nresponse.write(\'" />\\n  \\n  <!-- Speaking of Google, don\\\'t forget to set your site up:\\n\\t   http://google.com/webmasters -->\\n  <meta name="google-site-verification" content="" />\\n\\n  <!--  Mobile Viewport Fix\\n\\t  j.mp/mobileviewport & davidbcalhoun.com/2010/viewport-metatag\\n\\t  device-width: Occupy full width of the screen in its current orientation\\n\\t  initial-scale = 1.0 retains dimensions instead of zooming out if page height > device height\\n\\t  user-scalable = yes allows the user to zoom in -->\\n  <meta name="viewport" content="width=device-width, initial-scale=1.0, user-scalable=yes">\\n  \\n  <!-- Place favicon.ico and apple-touch-icon.png in the root of your domain and delete these references -->\\n  <link rel="shortcut icon" href="\', escape=False)\nresponse.write(URL(\'static\',\'favicon.ico\'))\nresponse.write(\'" type="image/x-icon">\\n  <link rel="apple-touch-icon" href="\', escape=False)\nresponse.write(URL(\'static\',\'favicon.png\'))\nresponse.write(\'">\\n\\n  <!-- All JavaScript at the bottom, except for Modernizr which enables \\n\\t   HTML5 elements & feature detects -->\\n  <script src="\', escape=False)\nresponse.write(URL(\'static\',\'js/modernizr.custom.js\'))\nresponse.write(\'"></script>  \\n\\n  <!-- include stylesheets -->\\n  \', escape=False)\nresponse.files.append(URL(\'static\',\'css/skeleton.css\'))\nresponse.files.append(URL(\'static\',\'css/web2py.css\'))\nresponse.files.append(URL(\'static\',\'css/superfish.css\'))\nresponse.files.append(URL(\'static\',\'js/superfish.js\'))\nresponse.files.append(URL(\'static\',\'js/main.js\'))\nresponse.files.append(URL(\'static\',\'css/main.css\'))\nresponse.write(\'\\n\\n  \', escape=False)\nresponse.write(\'<script type="text/javascript"><!--\\n    // These variables are used by the web2py_ajax_init function in web2py_ajax.js (which is loaded below).\\n    var w2p_ajax_confirm_message = "\', escape=False)\nresponse.write(T(\'Are you sure you want to delete this object?\'))\nresponse.write(\'";\\n    var w2p_ajax_date_format = "\', escape=False)\nresponse.write(T(\'%Y-%m-%d\'))\nresponse.write(\'";\\n    var w2p_ajax_datetime_format = "\', escape=False)\nresponse.write(T(\'%Y-%m-%d %H:%M:%S\'))\nresponse.write(\'";\\n    //--></script>\\n\', escape=False)\nresponse.files.insert(0,URL(\'static\',\'js/jquery.js\'))\nresponse.files.insert(1,URL(\'static\',\'css/calendar.css\'))\nresponse.files.insert(2,URL(\'static\',\'js/calendar.js\'))\nresponse.files.insert(3,URL(\'static\',\'js/web2py.js\'))\nresponse.include_meta()\nresponse.include_files()\nresponse.write(\'\\n\', escape=False)\nresponse.write(\'\\n\\n  <script type="text/javascript">\\n    jQuery(function(){ jQuery(\\\'ul.sf-menu\\\').supersubs({minWidth:12,maxWidth:30,extraWidth:3}).superfish(); });\\n  </script>\\n\\n\\n  <!-- uncomment here to load jquery-ui\\n  <link rel="stylesheet" href="http://ajax.googleapis.com/ajax/libs/jqueryui/1.8.16/themes/base/jquery-ui.css" type="text/css" media="all" />\\n  <script src="http://ajax.googleapis.com/ajax/libs/jqueryui/1.8.16/jquery-ui.min.js" type="text/javascript"></script>\\n  uncomment to load jquery-ui //-->\\n</head>\\n<body>\\n  <div class="wrapper"><!-- for sticky footer -->\\n  \\n      <div class="container">                 \\n   \\t\\t<div id="main_name">\\n   \\t\\t<div id="name_splodge">\\n   \\t\\t\\t<img src="\', escape=False)\nresponse.write(URL{\'profile\',\'static/imges\',name_splodge.png\'))\nresponse.write(\'">\\n   \\t\\t</div>\\n   \\t\\t</div>\\n   \\n        \\n      </div><!-- container -->\\n    \\n    <div class="push"></div>\\n  </div><!-- wrapper -->\\n\\n  \\n  <div id="footer_options">\\n  <div id="bottom_img">\\n  <div id="footer_top">\\n  \\t<div id="option_title">\\n  \\t\\ttop\\n  \\t</div>\\n  </div>\\n  <div id="footer_skills">\\n  \\t<div id="option_title">\\n  \\t\\tskills\\n  \\t</div>\\n  </div>\\n  <div id="footer_projects">\\n  \\t<div id="option_title">\\n  \\t\\tprojects\\n  \\t</div>\\n  </div>\\n  <div id="footer_connect">\\n  \\t<div id="option_title">\\n  \\t\\tconnect\\n  \\t</div>\\n  </div>\\n </div>\\n </div>\\n  \\n  \\n  <!--[if lt IE 7 ]>\\n\\t<script src="\', escape=False)\nresponse.write(URL(\'static\',\'js/dd_belatedpng.js\'))\nresponse.write(\'"></script>\\n\\t<script> DD_belatedPNG.fix(\\\'img, .png_bg\\\'); //fix any <img> or .png_bg background-images </script>\\n\\t<![endif]-->\\n  \', escape=False)\nif response.google_analytics_id:\n    response.write(\'<script type="text/javascript"> var _gaq = _gaq || []; _gaq.push([\\\'_setAccount\\\', \\\'\', escape=False)\n    response.write(response.google_analytics_id)\n    response.write("\']); _gaq.push([\'_trackPageview\']); (function() { var ga = document.createElement(\'script\'); ga.type = \'text/javascript\'; ga.async = true; ga.src = (\'https:\' == document.location.protocol ? \'https://ssl\' : \'http://www\') + \'.google-analytics.com/ga.js\'; var s = document.getElementsByTagName(\'script\')[0]; s.parentNode.insertBefore(ga, s); })(); </script> ", escape=False)\n    pass\nresponse.write(\'\\n</body>\\n</html>\\n\', escape=False)'
p7
sS'snapshot'
p8
(dp9
S'exception'
p10
(dp11
S'__getslice__'
p12
S"<method-wrapper '__getslice__' of exceptions.SyntaxError object>"
p13
sS'text'
p14
S'"response.write(URL{\'profile\',\'static/imges\',name_splodge.png\'))\\n"'
p15
sS'__str__'
p16
S"<method-wrapper '__str__' of exceptions.SyntaxError object>"
p17
sS'__reduce__'
p18
S'<built-in method __reduce__ of exceptions.SyntaxError object>'
p19
sS'__dict__'
p20
S'{}'
p21
sS'__sizeof__'
p22
S'<built-in method __sizeof__ of exceptions.SyntaxError object>'
p23
sS'__init__'
p24
S"<method-wrapper '__init__' of exceptions.SyntaxError object>"
p25
sS'__setattr__'
p26
S"<method-wrapper '__setattr__' of exceptions.SyntaxError object>"
p27
sS'__reduce_ex__'
p28
S'<built-in method __reduce_ex__ of exceptions.SyntaxError object>'
p29
sS'__new__'
p30
S'<built-in method __new__ of type object>'
p31
sS'__format__'
p32
S'<built-in method __format__ of exceptions.SyntaxError object>'
p33
sS'__class__'
p34
S"<type 'exceptions.SyntaxError'>"
p35
sS'filename'
p36
S"r'C:\\webapps\\ben\\project\\web2py\\applications\\profile\\views\\default/index.html'"
p37
sS'lineno'
p38
S'46'
p39
sS'msg'
p40
S"'invalid syntax'"
p41
sS'__doc__'
p42
S"'Invalid syntax.'"
p43
sS'__getitem__'
p44
S"<method-wrapper '__getitem__' of exceptions.SyntaxError object>"
p45
sS'__setstate__'
p46
S'<built-in method __setstate__ of exceptions.SyntaxError object>'
p47
sS'__getattribute__'
p48
S"<method-wrapper '__getattribute__' of exceptions.SyntaxError object>"
p49
sS'print_file_and_line'
p50
S'None'
p51
sS'args'
p52
S'(\'invalid syntax\', (r\'C:\\webapps\\ben\\project\\web2py\\applications\\profile\\views\\default/index.html\', 46, 19, "response.write(URL{\'profile\',\'static/imges\',name_splodge.png\'))\\n"))'
p53
sS'__subclasshook__'
p54
S'<built-in method __subclasshook__ of type object>'
p55
sS'offset'
p56
S'19'
p57
sS'__unicode__'
p58
S'<built-in method __unicode__ of exceptions.SyntaxError object>'
p59
sS'__delattr__'
p60
S"<method-wrapper '__delattr__' of exceptions.SyntaxError object>"
p61
sS'__repr__'
p62
S"<method-wrapper '__repr__' of exceptions.SyntaxError object>"
p63
sS'__hash__'
p64
S"<method-wrapper '__hash__' of exceptions.SyntaxError object>"
p65
ssS'evalue'
p66
S'invalid syntax (default/index.html, line 46)'
p67
sS'request'
p68
ccopy_reg
_reconstructor
p69
(cgluon.html
BEAUTIFY
p70
c__builtin__
object
p71
NtRp72
(dp73
S'attributes'
p74
(dp75
sS'components'
p76
(lp77
g69
(cgluon.html
TABLE
p78
g71
NtRp79
(dp80
g74
(dp81
S'level'
p82
I5
ssS'parent'
p83
Nsg76
(lp84
g69
(cgluon.html
TR
p85
g71
NtRp86
(dp87
g74
(dp88
sg83
g79
sg76
(lp89
g69
(cgluon.html
TD
p90
g71
NtRp91
(dp92
g74
(dp93
S'_style'
p94
S'font-weight:bold;vertical-align:top'
p95
ssg83
g86
sg76
(lp96
S'ajax'
p97
asbag69
(g90
g71
NtRp98
(dp99
g74
(dp100
S'_valign'
p101
S'top'
p102
ssg83
g86
sg76
(lp103
S':'
asbag69
(g90
g71
NtRp104
(dp105
g74
(dp106
sg83
g86
sg76
(lp107
g69
(g70
g71
NtRp108
(dp109
g74
(dp110
g82
I5
ssg83
g104
sg76
(lp111
S'False'
p112
asbasbasbag69
(g85
g71
NtRp113
(dp114
g74
(dp115
sg83
g79
sg76
(lp116
g69
(g90
g71
NtRp117
(dp118
g74
(dp119
g94
g95
ssg83
g113
sg76
(lp120
S'application'
p121
asbag69
(g90
g71
NtRp122
(dp123
g74
(dp124
g101
g102
ssg83
g113
sg76
(lp125
S':'
asbag69
(g90
g71
NtRp126
(dp127
g74
(dp128
sg83
g113
sg76
(lp129
g69
(g70
g71
NtRp130
(dp131
g74
(dp132
g82
I5
ssg83
g126
sg76
(lp133
S'profile'
p134
asbasbasbag69
(g85
g71
NtRp135
(dp136
g74
(dp137
sg83
g79
sg76
(lp138
g69
(g90
g71
NtRp139
(dp140
g74
(dp141
g94
g95
ssg83
g135
sg76
(lp142
g52
asbag69
(g90
g71
NtRp143
(dp144
g74
(dp145
g101
g102
ssg83
g135
sg76
(lp146
S':'
asbag69
(g90
g71
NtRp147
(dp148
g74
(dp149
sg83
g135
sg76
(lp150
g69
(g70
g71
NtRp151
(dp152
g74
(dp153
g82
I5
ssg83
g147
sg76
(lp154
g69
(g78
g71
NtRp155
(dp156
g74
(dp157
g82
I4
ssg83
Nsg76
(lp158
sbasbasbasbag69
(g85
g71
NtRp159
(dp160
g74
(dp161
sg83
g79
sg76
(lp162
g69
(g90
g71
NtRp163
(dp164
g74
(dp165
g94
g95
ssg83
g159
sg76
(lp166
S'body'
p167
asbag69
(g90
g71
NtRp168
(dp169
g74
(dp170
g101
g102
ssg83
g159
sg76
(lp171
S':'
asbag69
(g90
g71
NtRp172
(dp173
g74
(dp174
sg83
g159
sg76
(lp175
g69
(g70
g71
NtRp176
(dp177
g74
(dp178
g82
I5
ssg83
g172
sg76
(lp179
S'<cStringIO.StringO object at 0x000000000737EF48>'
p180
asbasbasbag69
(g85
g71
NtRp181
(dp182
g74
(dp183
sg83
g79
sg76
(lp184
g69
(g90
g71
NtRp185
(dp186
g74
(dp187
g94
g95
ssg83
g181
sg76
(lp188
S'client'
p189
asbag69
(g90
g71
NtRp190
(dp191
g74
(dp192
g101
g102
ssg83
g181
sg76
(lp193
S':'
asbag69
(g90
g71
NtRp194
(dp195
g74
(dp196
sg83
g181
sg76
(lp197
g69
(g70
g71
NtRp198
(dp199
g74
(dp200
g82
I5
ssg83
g194
sg76
(lp201
S'127.0.0.1'
p202
asbasbasbag69
(g85
g71
NtRp203
(dp204
g74
(dp205
sg83
g79
sg76
(lp206
g69
(g90
g71
NtRp207
(dp208
g74
(dp209
g94
g95
ssg83
g203
sg76
(lp210
S'controller'
p211
asbag69
(g90
g71
NtRp212
(dp213
g74
(dp214
g101
g102
ssg83
g203
sg76
(lp215
S':'
asbag69
(g90
g71
NtRp216
(dp217
g74
(dp218
sg83
g203
sg76
(lp219
g69
(g70
g71
NtRp220
(dp221
g74
(dp222
g82
I5
ssg83
g216
sg76
(lp223
S'default'
p224
asbasbasbag69
(g85
g71
NtRp225
(dp226
g74
(dp227
sg83
g79
sg76
(lp228
g69
(g90
g71
NtRp229
(dp230
g74
(dp231
g94
g95
ssg83
g225
sg76
(lp232
S'cookies'
p233
asbag69
(g90
g71
NtRp234
(dp235
g74
(dp236
g101
g102
ssg83
g225
sg76
(lp237
S':'
asbag69
(g90
g71
NtRp238
(dp239
g74
(dp240
sg83
g225
sg76
(lp241
g69
(g70
g71
NtRp242
(dp243
g74
(dp244
g82
I5
ssg83
g238
sg76
(lp245
g69
(g78
g71
NtRp246
(dp247
g74
(dp248
g82
I4
ssg83
Nsg76
(lp249
g69
(g85
g71
NtRp250
(dp251
g74
(dp252
sg83
g246
sg76
(lp253
g69
(g90
g71
NtRp254
(dp255
g74
(dp256
g94
g95
ssg83
g250
sg76
(lp257
S'session_id_admin'
p258
asbag69
(g90
g71
NtRp259
(dp260
g74
(dp261
g101
g102
ssg83
g250
sg76
(lp262
S':'
asbag69
(g90
g71
NtRp263
(dp264
g74
(dp265
sg83
g250
sg76
(lp266
g69
(g70
g71
NtRp267
(dp268
g74
(dp269
g82
I4
ssg83
g263
sg76
(lp270
g69
(g78
g71
NtRp271
(dp272
g74
(dp273
g82
I3
ssg83
Nsg76
(lp274
g69
(g85
g71
NtRp275
(dp276
g74
(dp277
sg83
g271
sg76
(lp278
g69
(g90
g71
NtRp279
(dp280
g74
(dp281
g94
g95
ssg83
g275
sg76
(lp282
S'comment'
p283
asbag69
(g90
g71
NtRp284
(dp285
g74
(dp286
g101
g102
ssg83
g275
sg76
(lp287
S':'
asbag69
(g90
g71
NtRp288
(dp289
g74
(dp290
sg83
g275
sg76
(lp291
g69
(g70
g71
NtRp292
(dp293
g74
(dp294
g82
I3
ssg83
g288
sg76
(lp295
S''
asbasbasbag69
(g85
g71
NtRp296
(dp297
g74
(dp298
sg83
g271
sg76
(lp299
g69
(g90
g71
NtRp300
(dp301
g74
(dp302
g94
g95
ssg83
g296
sg76
(lp303
S'domain'
p304
asbag69
(g90
g71
NtRp305
(dp306
g74
(dp307
g101
g102
ssg83
g296
sg76
(lp308
S':'
asbag69
(g90
g71
NtRp309
(dp310
g74
(dp311
sg83
g296
sg76
(lp312
g69
(g70
g71
NtRp313
(dp314
g74
(dp315
g82
I3
ssg83
g309
sg76
(lp316
S''
asbasbasbag69
(g85
g71
NtRp317
(dp318
g74
(dp319
sg83
g271
sg76
(lp320
g69
(g90
g71
NtRp321
(dp322
g74
(dp323
g94
g95
ssg83
g317
sg76
(lp324
S'expires'
p325
asbag69
(g90
g71
NtRp326
(dp327
g74
(dp328
g101
g102
ssg83
g317
sg76
(lp329
S':'
asbag69
(g90
g71
NtRp330
(dp331
g74
(dp332
sg83
g317
sg76
(lp333
g69
(g70
g71
NtRp334
(dp335
g74
(dp336
g82
I3
ssg83
g330
sg76
(lp337
S''
asbasbasbag69
(g85
g71
NtRp338
(dp339
g74
(dp340
sg83
g271
sg76
(lp341
g69
(g90
g71
NtRp342
(dp343
g74
(dp344
g94
g95
ssg83
g338
sg76
(lp345
S'httponly'
p346
asbag69
(g90
g71
NtRp347
(dp348
g74
(dp349
g101
g102
ssg83
g338
sg76
(lp350
S':'
asbag69
(g90
g71
NtRp351
(dp352
g74
(dp353
sg83
g338
sg76
(lp354
g69
(g70
g71
NtRp355
(dp356
g74
(dp357
g82
I3
ssg83
g351
sg76
(lp358
S''
asbasbasbag69
(g85
g71
NtRp359
(dp360
g74
(dp361
sg83
g271
sg76
(lp362
g69
(g90
g71
NtRp363
(dp364
g74
(dp365
g94
g95
ssg83
g359
sg76
(lp366
S'max-age'
p367
asbag69
(g90
g71
NtRp368
(dp369
g74
(dp370
g101
g102
ssg83
g359
sg76
(lp371
S':'
asbag69
(g90
g71
NtRp372
(dp373
g74
(dp374
sg83
g359
sg76
(lp375
g69
(g70
g71
NtRp376
(dp377
g74
(dp378
g82
I3
ssg83
g372
sg76
(lp379
S''
asbasbasbag69
(g85
g71
NtRp380
(dp381
g74
(dp382
sg83
g271
sg76
(lp383
g69
(g90
g71
NtRp384
(dp385
g74
(dp386
g94
g95
ssg83
g380
sg76
(lp387
S'path'
p388
asbag69
(g90
g71
NtRp389
(dp390
g74
(dp391
g101
g102
ssg83
g380
sg76
(lp392
S':'
asbag69
(g90
g71
NtRp393
(dp394
g74
(dp395
sg83
g380
sg76
(lp396
g69
(g70
g71
NtRp397
(dp398
g74
(dp399
g82
I3
ssg83
g393
sg76
(lp400
S''
asbasbasbag69
(g85
g71
NtRp401
(dp402
g74
(dp403
sg83
g271
sg76
(lp404
g69
(g90
g71
NtRp405
(dp406
g74
(dp407
g94
g95
ssg83
g401
sg76
(lp408
S'secure'
p409
asbag69
(g90
g71
NtRp410
(dp411
g74
(dp412
g101
g102
ssg83
g401
sg76
(lp413
S':'
asbag69
(g90
g71
NtRp414
(dp415
g74
(dp416
sg83
g401
sg76
(lp417
g69
(g70
g71
NtRp418
(dp419
g74
(dp420
g82
I3
ssg83
g414
sg76
(lp421
S''
asbasbasbag69
(g85
g71
NtRp422
(dp423
g74
(dp424
sg83
g271
sg76
(lp425
g69
(g90
g71
NtRp426
(dp427
g74
(dp428
g94
g95
ssg83
g422
sg76
(lp429
S'version'
p430
asbag69
(g90
g71
NtRp431
(dp432
g74
(dp433
g101
g102
ssg83
g422
sg76
(lp434
S':'
asbag69
(g90
g71
NtRp435
(dp436
g74
(dp437
sg83
g422
sg76
(lp438
g69
(g70
g71
NtRp439
(dp440
g74
(dp441
g82
I3
ssg83
g435
sg76
(lp442
S''
asbasbasbasbasbasbasbag69
(g85
g71
NtRp443
(dp444
g74
(dp445
sg83
g246
sg76
(lp446
g69
(g90
g71
NtRp447
(dp448
g74
(dp449
g94
g95
ssg83
g443
sg76
(lp450
S'session_id_profile'
p451
asbag69
(g90
g71
NtRp452
(dp453
g74
(dp454
g101
g102
ssg83
g443
sg76
(lp455
S':'
asbag69
(g90
g71
NtRp456
(dp457
g74
(dp458
sg83
g443
sg76
(lp459
g69
(g70
g71
NtRp460
(dp461
g74
(dp462
g82
I4
ssg83
g456
sg76
(lp463
g69
(g78
g71
NtRp464
(dp465
g74
(dp466
g82
I3
ssg83
Nsg76
(lp467
g69
(g85
g71
NtRp468
(dp469
g74
(dp470
sg83
g464
sg76
(lp471
g69
(g90
g71
NtRp472
(dp473
g74
(dp474
g94
g95
ssg83
g468
sg76
(lp475
g283
asbag69
(g90
g71
NtRp476
(dp477
g74
(dp478
g101
g102
ssg83
g468
sg76
(lp479
S':'
asbag69
(g90
g71
NtRp480
(dp481
g74
(dp482
sg83
g468
sg76
(lp483
g69
(g70
g71
NtRp484
(dp485
g74
(dp486
g82
I3
ssg83
g480
sg76
(lp487
S''
asbasbasbag69
(g85
g71
NtRp488
(dp489
g74
(dp490
sg83
g464
sg76
(lp491
g69
(g90
g71
NtRp492
(dp493
g74
(dp494
g94
g95
ssg83
g488
sg76
(lp495
g304
asbag69
(g90
g71
NtRp496
(dp497
g74
(dp498
g101
g102
ssg83
g488
sg76
(lp499
S':'
asbag69
(g90
g71
NtRp500
(dp501
g74
(dp502
sg83
g488
sg76
(lp503
g69
(g70
g71
NtRp504
(dp505
g74
(dp506
g82
I3
ssg83
g500
sg76
(lp507
S''
asbasbasbag69
(g85
g71
NtRp508
(dp509
g74
(dp510
sg83
g464
sg76
(lp511
g69
(g90
g71
NtRp512
(dp513
g74
(dp514
g94
g95
ssg83
g508
sg76
(lp515
g325
asbag69
(g90
g71
NtRp516
(dp517
g74
(dp518
g101
g102
ssg83
g508
sg76
(lp519
S':'
asbag69
(g90
g71
NtRp520
(dp521
g74
(dp522
sg83
g508
sg76
(lp523
g69
(g70
g71
NtRp524
(dp525
g74
(dp526
g82
I3
ssg83
g520
sg76
(lp527
S''
asbasbasbag69
(g85
g71
NtRp528
(dp529
g74
(dp530
sg83
g464
sg76
(lp531
g69
(g90
g71
NtRp532
(dp533
g74
(dp534
g94
g95
ssg83
g528
sg76
(lp535
g346
asbag69
(g90
g71
NtRp536
(dp537
g74
(dp538
g101
g102
ssg83
g528
sg76
(lp539
S':'
asbag69
(g90
g71
NtRp540
(dp541
g74
(dp542
sg83
g528
sg76
(lp543
g69
(g70
g71
NtRp544
(dp545
g74
(dp546
g82
I3
ssg83
g540
sg76
(lp547
S''
asbasbasbag69
(g85
g71
NtRp548
(dp549
g74
(dp550
sg83
g464
sg76
(lp551
g69
(g90
g71
NtRp552
(dp553
g74
(dp554
g94
g95
ssg83
g548
sg76
(lp555
g367
asbag69
(g90
g71
NtRp556
(dp557
g74
(dp558
g101
g102
ssg83
g548
sg76
(lp559
S':'
asbag69
(g90
g71
NtRp560
(dp561
g74
(dp562
sg83
g548
sg76
(lp563
g69
(g70
g71
NtRp564
(dp565
g74
(dp566
g82
I3
ssg83
g560
sg76
(lp567
S''
asbasbasbag69
(g85
g71
NtRp568
(dp569
g74
(dp570
sg83
g464
sg76
(lp571
g69
(g90
g71
NtRp572
(dp573
g74
(dp574
g94
g95
ssg83
g568
sg76
(lp575
g388
asbag69
(g90
g71
NtRp576
(dp577
g74
(dp578
g101
g102
ssg83
g568
sg76
(lp579
S':'
asbag69
(g90
g71
NtRp580
(dp581
g74
(dp582
sg83
g568
sg76
(lp583
g69
(g70
g71
NtRp584
(dp585
g74
(dp586
g82
I3
ssg83
g580
sg76
(lp587
S''
asbasbasbag69
(g85
g71
NtRp588
(dp589
g74
(dp590
sg83
g464
sg76
(lp591
g69
(g90
g71
NtRp592
(dp593
g74
(dp594
g94
g95
ssg83
g588
sg76
(lp595
g409
asbag69
(g90
g71
NtRp596
(dp597
g74
(dp598
g101
g102
ssg83
g588
sg76
(lp599
S':'
asbag69
(g90
g71
NtRp600
(dp601
g74
(dp602
sg83
g588
sg76
(lp603
g69
(g70
g71
NtRp604
(dp605
g74
(dp606
g82
I3
ssg83
g600
sg76
(lp607
S''
asbasbasbag69
(g85
g71
NtRp608
(dp609
g74
(dp610
sg83
g464
sg76
(lp611
g69
(g90
g71
NtRp612
(dp613
g74
(dp614
g94
g95
ssg83
g608
sg76
(lp615
g430
asbag69
(g90
g71
NtRp616
(dp617
g74
(dp618
g101
g102
ssg83
g608
sg76
(lp619
S':'
asbag69
(g90
g71
NtRp620
(dp621
g74
(dp622
sg83
g608
sg76
(lp623
g69
(g70
g71
NtRp624
(dp625
g74
(dp626
g82
I3
ssg83
g620
sg76
(lp627
S''
asbasbasbasbasbasbasbag69
(g85
g71
NtRp628
(dp629
g74
(dp630
sg83
g246
sg76
(lp631
g69
(g90
g71
NtRp632
(dp633
g74
(dp634
g94
g95
ssg83
g628
sg76
(lp635
S'session_id_welcome'
p636
asbag69
(g90
g71
NtRp637
(dp638
g74
(dp639
g101
g102
ssg83
g628
sg76
(lp640
S':'
asbag69
(g90
g71
NtRp641
(dp642
g74
(dp643
sg83
g628
sg76
(lp644
g69
(g70
g71
NtRp645
(dp646
g74
(dp647
g82
I4
ssg83
g641
sg76
(lp648
g69
(g78
g71
NtRp649
(dp650
g74
(dp651
g82
I3
ssg83
Nsg76
(lp652
g69
(g85
g71
NtRp653
(dp654
g74
(dp655
sg83
g649
sg76
(lp656
g69
(g90
g71
NtRp657
(dp658
g74
(dp659
g94
g95
ssg83
g653
sg76
(lp660
g283
asbag69
(g90
g71
NtRp661
(dp662
g74
(dp663
g101
g102
ssg83
g653
sg76
(lp664
S':'
asbag69
(g90
g71
NtRp665
(dp666
g74
(dp667
sg83
g653
sg76
(lp668
g69
(g70
g71
NtRp669
(dp670
g74
(dp671
g82
I3
ssg83
g665
sg76
(lp672
S''
asbasbasbag69
(g85
g71
NtRp673
(dp674
g74
(dp675
sg83
g649
sg76
(lp676
g69
(g90
g71
NtRp677
(dp678
g74
(dp679
g94
g95
ssg83
g673
sg76
(lp680
g304
asbag69
(g90
g71
NtRp681
(dp682
g74
(dp683
g101
g102
ssg83
g673
sg76
(lp684
S':'
asbag69
(g90
g71
NtRp685
(dp686
g74
(dp687
sg83
g673
sg76
(lp688
g69
(g70
g71
NtRp689
(dp690
g74
(dp691
g82
I3
ssg83
g685
sg76
(lp692
S''
asbasbasbag69
(g85
g71
NtRp693
(dp694
g74
(dp695
sg83
g649
sg76
(lp696
g69
(g90
g71
NtRp697
(dp698
g74
(dp699
g94
g95
ssg83
g693
sg76
(lp700
g325
asbag69
(g90
g71
NtRp701
(dp702
g74
(dp703
g101
g102
ssg83
g693
sg76
(lp704
S':'
asbag69
(g90
g71
NtRp705
(dp706
g74
(dp707
sg83
g693
sg76
(lp708
g69
(g70
g71
NtRp709
(dp710
g74
(dp711
g82
I3
ssg83
g705
sg76
(lp712
S''
asbasbasbag69
(g85
g71
NtRp713
(dp714
g74
(dp715
sg83
g649
sg76
(lp716
g69
(g90
g71
NtRp717
(dp718
g74
(dp719
g94
g95
ssg83
g713
sg76
(lp720
g346
asbag69
(g90
g71
NtRp721
(dp722
g74
(dp723
g101
g102
ssg83
g713
sg76
(lp724
S':'
asbag69
(g90
g71
NtRp725
(dp726
g74
(dp727
sg83
g713
sg76
(lp728
g69
(g70
g71
NtRp729
(dp730
g74
(dp731
g82
I3
ssg83
g725
sg76
(lp732
S''
asbasbasbag69
(g85
g71
NtRp733
(dp734
g74
(dp735
sg83
g649
sg76
(lp736
g69
(g90
g71
NtRp737
(dp738
g74
(dp739
g94
g95
ssg83
g733
sg76
(lp740
g367
asbag69
(g90
g71
NtRp741
(dp742
g74
(dp743
g101
g102
ssg83
g733
sg76
(lp744
S':'
asbag69
(g90
g71
NtRp745
(dp746
g74
(dp747
sg83
g733
sg76
(lp748
g69
(g70
g71
NtRp749
(dp750
g74
(dp751
g82
I3
ssg83
g745
sg76
(lp752
S''
asbasbasbag69
(g85
g71
NtRp753
(dp754
g74
(dp755
sg83
g649
sg76
(lp756
g69
(g90
g71
NtRp757
(dp758
g74
(dp759
g94
g95
ssg83
g753
sg76
(lp760
g388
asbag69
(g90
g71
NtRp761
(dp762
g74
(dp763
g101
g102
ssg83
g753
sg76
(lp764
S':'
asbag69
(g90
g71
NtRp765
(dp766
g74
(dp767
sg83
g753
sg76
(lp768
g69
(g70
g71
NtRp769
(dp770
g74
(dp771
g82
I3
ssg83
g765
sg76
(lp772
S''
asbasbasbag69
(g85
g71
NtRp773
(dp774
g74
(dp775
sg83
g649
sg76
(lp776
g69
(g90
g71
NtRp777
(dp778
g74
(dp779
g94
g95
ssg83
g773
sg76
(lp780
g409
asbag69
(g90
g71
NtRp781
(dp782
g74
(dp783
g101
g102
ssg83
g773
sg76
(lp784
S':'
asbag69
(g90
g71
NtRp785
(dp786
g74
(dp787
sg83
g773
sg76
(lp788
g69
(g70
g71
NtRp789
(dp790
g74
(dp791
g82
I3
ssg83
g785
sg76
(lp792
S''
asbasbasbag69
(g85
g71
NtRp793
(dp794
g74
(dp795
sg83
g649
sg76
(lp796
g69
(g90
g71
NtRp797
(dp798
g74
(dp799
g94
g95
ssg83
g793
sg76
(lp800
g430
asbag69
(g90
g71
NtRp801
(dp802
g74
(dp803
g101
g102
ssg83
g793
sg76
(lp804
S':'
asbag69
(g90
g71
NtRp805
(dp806
g74
(dp807
sg83
g793
sg76
(lp808
g69
(g70
g71
NtRp809
(dp810
g74
(dp811
g82
I3
ssg83
g805
sg76
(lp812
S''
asbasbasbasbasbasbasbasbasbasbasbag69
(g85
g71
NtRp813
(dp814
g74
(dp815
sg83
g79
sg76
(lp816
g69
(g90
g71
NtRp817
(dp818
g74
(dp819
g94
g95
ssg83
g813
sg76
(lp820
S'env'
p821
asbag69
(g90
g71
NtRp822
(dp823
g74
(dp824
g101
g102
ssg83
g813
sg76
(lp825
S':'
asbag69
(g90
g71
NtRp826
(dp827
g74
(dp828
sg83
g813
sg76
(lp829
g69
(g70
g71
NtRp830
(dp831
g74
(dp832
g82
I5
ssg83
g826
sg76
(lp833
g69
(g78
g71
NtRp834
(dp835
g74
(dp836
g82
I4
ssg83
Nsg76
(lp837
g69
(g85
g71
NtRp838
(dp839
g74
(dp840
sg83
g834
sg76
(lp841
g69
(g90
g71
NtRp842
(dp843
g74
(dp844
g94
g95
ssg83
g838
sg76
(lp845
S'app_folders'
p846
asbag69
(g90
g71
NtRp847
(dp848
g74
(dp849
g101
g102
ssg83
g838
sg76
(lp850
S':'
asbag69
(g90
g71
NtRp851
(dp852
g74
(dp853
sg83
g838
sg76
(lp854
g69
(g70
g71
NtRp855
(dp856
g74
(dp857
g82
I4
ssg83
g851
sg76
(lp858
S"set(['C:\\\\webapps\\\\ben\\\\project\\\\web2py\\\\applications\\\\profile\\\\', 'C:\\\\webapps\\\\ben\\\\project\\\\web2py\\\\applications\\\\welcome\\\\', 'C:\\\\webapps\\\\ben\\\\project\\\\web2py\\\\applications\\\\admin\\\\'])"
p859
asbasbasbag69
(g85
g71
NtRp860
(dp861
g74
(dp862
sg83
g834
sg76
(lp863
g69
(g90
g71
NtRp864
(dp865
g74
(dp866
g94
g95
ssg83
g860
sg76
(lp867
S'applications_parent'
p868
asbag69
(g90
g71
NtRp869
(dp870
g74
(dp871
g101
g102
ssg83
g860
sg76
(lp872
S':'
asbag69
(g90
g71
NtRp873
(dp874
g74
(dp875
sg83
g860
sg76
(lp876
g69
(g70
g71
NtRp877
(dp878
g74
(dp879
g82
I4
ssg83
g873
sg76
(lp880
S'C:\\webapps\\ben\\project\\web2py'
p881
asbasbasbag69
(g85
g71
NtRp882
(dp883
g74
(dp884
sg83
g834
sg76
(lp885
g69
(g90
g71
NtRp886
(dp887
g74
(dp888
g94
g95
ssg83
g882
sg76
(lp889
S'cmd_args'
p890
asbag69
(g90
g71
NtRp891
(dp892
g74
(dp893
g101
g102
ssg83
g882
sg76
(lp894
S':'
asbag69
(g90
g71
NtRp895
(dp896
g74
(dp897
sg83
g882
sg76
(lp898
g69
(g70
g71
NtRp899
(dp900
g74
(dp901
g82
I4
ssg83
g895
sg76
(lp902
g69
(g78
g71
NtRp903
(dp904
g74
(dp905
g82
I3
ssg83
Nsg76
(lp906
sbasbasbasbag69
(g85
g71
NtRp907
(dp908
g74
(dp909
sg83
g834
sg76
(lp910
g69
(g90
g71
NtRp911
(dp912
g74
(dp913
g94
g95
ssg83
g907
sg76
(lp914
S'cmd_options'
p915
asbag69
(g90
g71
NtRp916
(dp917
g74
(dp918
g101
g102
ssg83
g907
sg76
(lp919
S':'
asbag69
(g90
g71
NtRp920
(dp921
g74
(dp922
sg83
g907
sg76
(lp923
g69
(g70
g71
NtRp924
(dp925
g74
(dp926
g82
I4
ssg83
g920
sg76
(lp927
S"<Values at 0x341a248: {'verbose': False, 'ip': '127.0.0.1', 'shutdown_timeout': 5, 'taskbar': False, 'nocron': False, 'pid_filename': 'httpserver.pid', 'maxthreads': None, 'softcron': False, 'server_name': 'Sablasticus-hp', 'bpython': False, 'nogui': False, 'port': 8000, 'extcron': False, 'debuglevel': 30, 'test': None, 'folder': 'C:\\\\webapps\\\\ben\\\\project\\\\web2py', 'config': '', 'import_models': False, 'winservice': '', 'shell': None, 'run': '', 'log_filename': 'httpserver.log', 'args': [''], 'socket_timeout': 1, 'ssl_ca_certificate': None, 'scheduler': None, 'profiler_filename': None, 'ssl_private_key': '', 'password': '<ask>', 'request_queue_size': 5, 'ssl_certificate': '', 'cronjob': False, 'numthreads': None, 'quiet': False, 'interfaces': None, 'minthreads': None, 'timeout': 10, 'plain': False, 'nobanner': False}>"
p928
asbasbasbag69
(g85
g71
NtRp929
(dp930
g74
(dp931
sg83
g834
sg76
(lp932
g69
(g90
g71
NtRp933
(dp934
g74
(dp935
g94
g95
ssg83
g929
sg76
(lp936
S'db_sessions'
p937
asbag69
(g90
g71
NtRp938
(dp939
g74
(dp940
g101
g102
ssg83
g929
sg76
(lp941
S':'
asbag69
(g90
g71
NtRp942
(dp943
g74
(dp944
sg83
g929
sg76
(lp945
g69
(g70
g71
NtRp946
(dp947
g74
(dp948
g82
I4
ssg83
g942
sg76
(lp949
S'set([])'
p950
asbasbasbag69
(g85
g71
NtRp951
(dp952
g74
(dp953
sg83
g834
sg76
(lp954
g69
(g90
g71
NtRp955
(dp956
g74
(dp957
g94
g95
ssg83
g951
sg76
(lp958
S'debugging'
p959
asbag69
(g90
g71
NtRp960
(dp961
g74
(dp962
g101
g102
ssg83
g951
sg76
(lp963
S':'
asbag69
(g90
g71
NtRp964
(dp965
g74
(dp966
sg83
g951
sg76
(lp967
g69
(g70
g71
NtRp968
(dp969
g74
(dp970
g82
I4
ssg83
g964
sg76
(lp971
g112
asbasbasbag69
(g85
g71
NtRp972
(dp973
g74
(dp974
sg83
g834
sg76
(lp975
g69
(g90
g71
NtRp976
(dp977
g74
(dp978
g94
g95
ssg83
g972
sg76
(lp979
S'gluon_parent'
p980
asbag69
(g90
g71
NtRp981
(dp982
g74
(dp983
g101
g102
ssg83
g972
sg76
(lp984
S':'
asbag69
(g90
g71
NtRp985
(dp986
g74
(dp987
sg83
g972
sg76
(lp988
g69
(g70
g71
NtRp989
(dp990
g74
(dp991
g82
I4
ssg83
g985
sg76
(lp992
S'C:\\webapps\\ben\\project\\web2py'
p993
asbasbasbag69
(g85
g71
NtRp994
(dp995
g74
(dp996
sg83
g834
sg76
(lp997
g69
(g90
g71
NtRp998
(dp999
g74
(dp1000
g94
g95
ssg83
g994
sg76
(lp1001
S'http_accept'
p1002
asbag69
(g90
g71
NtRp1003
(dp1004
g74
(dp1005
g101
g102
ssg83
g994
sg76
(lp1006
S':'
asbag69
(g90
g71
NtRp1007
(dp1008
g74
(dp1009
sg83
g994
sg76
(lp1010
g69
(g70
g71
NtRp1011
(dp1012
g74
(dp1013
g82
I4
ssg83
g1007
sg76
(lp1014
S'text/html,application/xhtml+xml,application/xml;q=0.9,*/*;q=0.8'
p1015
asbasbasbag69
(g85
g71
NtRp1016
(dp1017
g74
(dp1018
sg83
g834
sg76
(lp1019
g69
(g90
g71
NtRp1020
(dp1021
g74
(dp1022
g94
g95
ssg83
g1016
sg76
(lp1023
S'http_accept_charset'
p1024
asbag69
(g90
g71
NtRp1025
(dp1026
g74
(dp1027
g101
g102
ssg83
g1016
sg76
(lp1028
S':'
asbag69
(g90
g71
NtRp1029
(dp1030
g74
(dp1031
sg83
g1016
sg76
(lp1032
g69
(g70
g71
NtRp1033
(dp1034
g74
(dp1035
g82
I4
ssg83
g1029
sg76
(lp1036
S'ISO-8859-1,utf-8;q=0.7,*;q=0.3'
p1037
asbasbasbag69
(g85
g71
NtRp1038
(dp1039
g74
(dp1040
sg83
g834
sg76
(lp1041
g69
(g90
g71
NtRp1042
(dp1043
g74
(dp1044
g94
g95
ssg83
g1038
sg76
(lp1045
S'http_accept_encoding'
p1046
asbag69
(g90
g71
NtRp1047
(dp1048
g74
(dp1049
g101
g102
ssg83
g1038
sg76
(lp1050
S':'
asbag69
(g90
g71
NtRp1051
(dp1052
g74
(dp1053
sg83
g1038
sg76
(lp1054
g69
(g70
g71
NtRp1055
(dp1056
g74
(dp1057
g82
I4
ssg83
g1051
sg76
(lp1058
S'gzip,deflate,sdch'
p1059
asbasbasbag69
(g85
g71
NtRp1060
(dp1061
g74
(dp1062
sg83
g834
sg76
(lp1063
g69
(g90
g71
NtRp1064
(dp1065
g74
(dp1066
g94
g95
ssg83
g1060
sg76
(lp1067
S'http_accept_language'
p1068
asbag69
(g90
g71
NtRp1069
(dp1070
g74
(dp1071
g101
g102
ssg83
g1060
sg76
(lp1072
S':'
asbag69
(g90
g71
NtRp1073
(dp1074
g74
(dp1075
sg83
g1060
sg76
(lp1076
g69
(g70
g71
NtRp1077
(dp1078
g74
(dp1079
g82
I4
ssg83
g1073
sg76
(lp1080
S'en-GB,en-US;q=0.8,en;q=0.6'
p1081
asbasbasbag69
(g85
g71
NtRp1082
(dp1083
g74
(dp1084
sg83
g834
sg76
(lp1085
g69
(g90
g71
NtRp1086
(dp1087
g74
(dp1088
g94
g95
ssg83
g1082
sg76
(lp1089
S'http_cache_control'
p1090
asbag69
(g90
g71
NtRp1091
(dp1092
g74
(dp1093
g101
g102
ssg83
g1082
sg76
(lp1094
S':'
asbag69
(g90
g71
NtRp1095
(dp1096
g74
(dp1097
sg83
g1082
sg76
(lp1098
g69
(g70
g71
NtRp1099
(dp1100
g74
(dp1101
g82
I4
ssg83
g1095
sg76
(lp1102
S'max-age=0'
p1103
asbasbasbag69
(g85
g71
NtRp1104
(dp1105
g74
(dp1106
sg83
g834
sg76
(lp1107
g69
(g90
g71
NtRp1108
(dp1109
g74
(dp1110
g94
g95
ssg83
g1104
sg76
(lp1111
S'http_connection'
p1112
asbag69
(g90
g71
NtRp1113
(dp1114
g74
(dp1115
g101
g102
ssg83
g1104
sg76
(lp1116
S':'
asbag69
(g90
g71
NtRp1117
(dp1118
g74
(dp1119
sg83
g1104
sg76
(lp1120
g69
(g70
g71
NtRp1121
(dp1122
g74
(dp1123
g82
I4
ssg83
g1117
sg76
(lp1124
S'keep-alive'
p1125
asbasbasbag69
(g85
g71
NtRp1126
(dp1127
g74
(dp1128
sg83
g834
sg76
(lp1129
g69
(g90
g71
NtRp1130
(dp1131
g74
(dp1132
g94
g95
ssg83
g1126
sg76
(lp1133
S'http_cookie'
p1134
asbag69
(g90
g71
NtRp1135
(dp1136
g74
(dp1137
g101
g102
ssg83
g1126
sg76
(lp1138
S':'
asbag69
(g90
g71
NtRp1139
(dp1140
g74
(dp1141
sg83
g1126
sg76
(lp1142
g69
(g70
g71
NtRp1143
(dp1144
g74
(dp1145
g82
I4
ssg83
g1139
sg76
(lp1146
S'__utma_a2a=6359846849.1349104586.1317547660.1319653128.1320077843.5; __utma=96992031.1518381523.1326395213.1326395213.1326395213.1; __utmz=96992031.1326395213.1.1.utmcsr=(direct)|utmccn=(direct)|utmcmd=(none); session_id_welcome=127.0.0.1-4eff0a33-4b89-4ba5-bc55-970aa992cb9b; session_id_admin=127.0.0.1-760af06c-09be-4e9f-8d9a-1d2754e41033; session_id_profile=127.0.0.1-1f1dcddf-9da1-42ed-bf08-00e34922e094'
p1147
asbasbasbag69
(g85
g71
NtRp1148
(dp1149
g74
(dp1150
sg83
g834
sg76
(lp1151
g69
(g90
g71
NtRp1152
(dp1153
g74
(dp1154
g94
g95
ssg83
g1148
sg76
(lp1155
S'http_host'
p1156
asbag69
(g90
g71
NtRp1157
(dp1158
g74
(dp1159
g101
g102
ssg83
g1148
sg76
(lp1160
S':'
asbag69
(g90
g71
NtRp1161
(dp1162
g74
(dp1163
sg83
g1148
sg76
(lp1164
g69
(g70
g71
NtRp1165
(dp1166
g74
(dp1167
g82
I4
ssg83
g1161
sg76
(lp1168
S'127.0.0.1:8000'
p1169
asbasbasbag69
(g85
g71
NtRp1170
(dp1171
g74
(dp1172
sg83
g834
sg76
(lp1173
g69
(g90
g71
NtRp1174
(dp1175
g74
(dp1176
g94
g95
ssg83
g1170
sg76
(lp1177
S'http_referer'
p1178
asbag69
(g90
g71
NtRp1179
(dp1180
g74
(dp1181
g101
g102
ssg83
g1170
sg76
(lp1182
S':'
asbag69
(g90
g71
NtRp1183
(dp1184
g74
(dp1185
sg83
g1170
sg76
(lp1186
g69
(g70
g71
NtRp1187
(dp1188
g74
(dp1189
g82
I4
ssg83
g1183
sg76
(lp1190
S'http://127.0.0.1:8000/admin/default/design/profile'
p1191
asbasbasbag69
(g85
g71
NtRp1192
(dp1193
g74
(dp1194
sg83
g834
sg76
(lp1195
g69
(g90
g71
NtRp1196
(dp1197
g74
(dp1198
g94
g95
ssg83
g1192
sg76
(lp1199
S'http_user_agent'
p1200
asbag69
(g90
g71
NtRp1201
(dp1202
g74
(dp1203
g101
g102
ssg83
g1192
sg76
(lp1204
S':'
asbag69
(g90
g71
NtRp1205
(dp1206
g74
(dp1207
sg83
g1192
sg76
(lp1208
g69
(g70
g71
NtRp1209
(dp1210
g74
(dp1211
g82
I4
ssg83
g1205
sg76
(lp1212
S'Mozilla/5.0 (Windows NT 6.1; WOW64) AppleWebKit/535.7 (KHTML, like Gecko) Chrome/16.0.912.77 Safari/535.7'
p1213
asbasbasbag69
(g85
g71
NtRp1214
(dp1215
g74
(dp1216
sg83
g834
sg76
(lp1217
g69
(g90
g71
NtRp1218
(dp1219
g74
(dp1220
g94
g95
ssg83
g1214
sg76
(lp1221
S'is_jython'
p1222
asbag69
(g90
g71
NtRp1223
(dp1224
g74
(dp1225
g101
g102
ssg83
g1214
sg76
(lp1226
S':'
asbag69
(g90
g71
NtRp1227
(dp1228
g74
(dp1229
sg83
g1214
sg76
(lp1230
g69
(g70
g71
NtRp1231
(dp1232
g74
(dp1233
g82
I4
ssg83
g1227
sg76
(lp1234
g112
asbasbasbag69
(g85
g71
NtRp1235
(dp1236
g74
(dp1237
sg83
g834
sg76
(lp1238
g69
(g90
g71
NtRp1239
(dp1240
g74
(dp1241
g94
g95
ssg83
g1235
sg76
(lp1242
S'is_pypy'
p1243
asbag69
(g90
g71
NtRp1244
(dp1245
g74
(dp1246
g101
g102
ssg83
g1235
sg76
(lp1247
S':'
asbag69
(g90
g71
NtRp1248
(dp1249
g74
(dp1250
sg83
g1235
sg76
(lp1251
g69
(g70
g71
NtRp1252
(dp1253
g74
(dp1254
g82
I4
ssg83
g1248
sg76
(lp1255
g112
asbasbasbag69
(g85
g71
NtRp1256
(dp1257
g74
(dp1258
sg83
g834
sg76
(lp1259
g69
(g90
g71
NtRp1260
(dp1261
g74
(dp1262
g94
g95
ssg83
g1256
sg76
(lp1263
S'path_info'
p1264
asbag69
(g90
g71
NtRp1265
(dp1266
g74
(dp1267
g101
g102
ssg83
g1256
sg76
(lp1268
S':'
asbag69
(g90
g71
NtRp1269
(dp1270
g74
(dp1271
sg83
g1256
sg76
(lp1272
g69
(g70
g71
NtRp1273
(dp1274
g74
(dp1275
g82
I4
ssg83
g1269
sg76
(lp1276
S'/profile/default/index'
p1277
asbasbasbag69
(g85
g71
NtRp1278
(dp1279
g74
(dp1280
sg83
g834
sg76
(lp1281
g69
(g90
g71
NtRp1282
(dp1283
g74
(dp1284
g94
g95
ssg83
g1278
sg76
(lp1285
S'query_string'
p1286
asbag69
(g90
g71
NtRp1287
(dp1288
g74
(dp1289
g101
g102
ssg83
g1278
sg76
(lp1290
S':'
asbag69
(g90
g71
NtRp1291
(dp1292
g74
(dp1293
sg83
g1278
sg76
(lp1294
g69
(g70
g71
NtRp1295
(dp1296
g74
(dp1297
g82
I4
ssg83
g1291
sg76
(lp1298
S''
asbasbasbag69
(g85
g71
NtRp1299
(dp1300
g74
(dp1301
sg83
g834
sg76
(lp1302
g69
(g90
g71
NtRp1303
(dp1304
g74
(dp1305
g94
g95
ssg83
g1299
sg76
(lp1306
S'remote_addr'
p1307
asbag69
(g90
g71
NtRp1308
(dp1309
g74
(dp1310
g101
g102
ssg83
g1299
sg76
(lp1311
S':'
asbag69
(g90
g71
NtRp1312
(dp1313
g74
(dp1314
sg83
g1299
sg76
(lp1315
g69
(g70
g71
NtRp1316
(dp1317
g74
(dp1318
g82
I4
ssg83
g1312
sg76
(lp1319
g202
asbasbasbag69
(g85
g71
NtRp1320
(dp1321
g74
(dp1322
sg83
g834
sg76
(lp1323
g69
(g90
g71
NtRp1324
(dp1325
g74
(dp1326
g94
g95
ssg83
g1320
sg76
(lp1327
S'remote_port'
p1328
asbag69
(g90
g71
NtRp1329
(dp1330
g74
(dp1331
g101
g102
ssg83
g1320
sg76
(lp1332
S':'
asbag69
(g90
g71
NtRp1333
(dp1334
g74
(dp1335
sg83
g1320
sg76
(lp1336
g69
(g70
g71
NtRp1337
(dp1338
g74
(dp1339
g82
I4
ssg83
g1333
sg76
(lp1340
S'52131'
p1341
asbasbasbag69
(g85
g71
NtRp1342
(dp1343
g74
(dp1344
sg83
g834
sg76
(lp1345
g69
(g90
g71
NtRp1346
(dp1347
g74
(dp1348
g94
g95
ssg83
g1342
sg76
(lp1349
S'request_method'
p1350
asbag69
(g90
g71
NtRp1351
(dp1352
g74
(dp1353
g101
g102
ssg83
g1342
sg76
(lp1354
S':'
asbag69
(g90
g71
NtRp1355
(dp1356
g74
(dp1357
sg83
g1342
sg76
(lp1358
g69
(g70
g71
NtRp1359
(dp1360
g74
(dp1361
g82
I4
ssg83
g1355
sg76
(lp1362
S'GET'
p1363
asbasbasbag69
(g85
g71
NtRp1364
(dp1365
g74
(dp1366
sg83
g834
sg76
(lp1367
g69
(g90
g71
NtRp1368
(dp1369
g74
(dp1370
g94
g95
ssg83
g1364
sg76
(lp1371
S'script_name'
p1372
asbag69
(g90
g71
NtRp1373
(dp1374
g74
(dp1375
g101
g102
ssg83
g1364
sg76
(lp1376
S':'
asbag69
(g90
g71
NtRp1377
(dp1378
g74
(dp1379
sg83
g1364
sg76
(lp1380
g69
(g70
g71
NtRp1381
(dp1382
g74
(dp1383
g82
I4
ssg83
g1377
sg76
(lp1384
S''
asbasbasbag69
(g85
g71
NtRp1385
(dp1386
g74
(dp1387
sg83
g834
sg76
(lp1388
g69
(g90
g71
NtRp1389
(dp1390
g74
(dp1391
g94
g95
ssg83
g1385
sg76
(lp1392
S'server_name'
p1393
asbag69
(g90
g71
NtRp1394
(dp1395
g74
(dp1396
g101
g102
ssg83
g1385
sg76
(lp1397
S':'
asbag69
(g90
g71
NtRp1398
(dp1399
g74
(dp1400
sg83
g1385
sg76
(lp1401
g69
(g70
g71
NtRp1402
(dp1403
g74
(dp1404
g82
I4
ssg83
g1398
sg76
(lp1405
S'Sablasticus-hp'
p1406
asbasbasbag69
(g85
g71
NtRp1407
(dp1408
g74
(dp1409
sg83
g834
sg76
(lp1410
g69
(g90
g71
NtRp1411
(dp1412
g74
(dp1413
g94
g95
ssg83
g1407
sg76
(lp1414
S'server_port'
p1415
asbag69
(g90
g71
NtRp1416
(dp1417
g74
(dp1418
g101
g102
ssg83
g1407
sg76
(lp1419
S':'
asbag69
(g90
g71
NtRp1420
(dp1421
g74
(dp1422
sg83
g1407
sg76
(lp1423
g69
(g70
g71
NtRp1424
(dp1425
g74
(dp1426
g82
I4
ssg83
g1420
sg76
(lp1427
S'8000'
p1428
asbasbasbag69
(g85
g71
NtRp1429
(dp1430
g74
(dp1431
sg83
g834
sg76
(lp1432
g69
(g90
g71
NtRp1433
(dp1434
g74
(dp1435
g94
g95
ssg83
g1429
sg76
(lp1436
S'server_protocol'
p1437
asbag69
(g90
g71
NtRp1438
(dp1439
g74
(dp1440
g101
g102
ssg83
g1429
sg76
(lp1441
S':'
asbag69
(g90
g71
NtRp1442
(dp1443
g74
(dp1444
sg83
g1429
sg76
(lp1445
g69
(g70
g71
NtRp1446
(dp1447
g74
(dp1448
g82
I4
ssg83
g1442
sg76
(lp1449
S'HTTP/1.1'
p1450
asbasbasbag69
(g85
g71
NtRp1451
(dp1452
g74
(dp1453
sg83
g834
sg76
(lp1454
g69
(g90
g71
NtRp1455
(dp1456
g74
(dp1457
g94
g95
ssg83
g1451
sg76
(lp1458
S'server_software'
p1459
asbag69
(g90
g71
NtRp1460
(dp1461
g74
(dp1462
g101
g102
ssg83
g1451
sg76
(lp1463
S':'
asbag69
(g90
g71
NtRp1464
(dp1465
g74
(dp1466
sg83
g1451
sg76
(lp1467
g69
(g70
g71
NtRp1468
(dp1469
g74
(dp1470
g82
I4
ssg83
g1464
sg76
(lp1471
S'Rocket 1.2.4'
p1472
asbasbasbag69
(g85
g71
NtRp1473
(dp1474
g74
(dp1475
sg83
g834
sg76
(lp1476
g69
(g90
g71
NtRp1477
(dp1478
g74
(dp1479
g94
g95
ssg83
g1473
sg76
(lp1480
S'web2py_crontype'
p1481
asbag69
(g90
g71
NtRp1482
(dp1483
g74
(dp1484
g101
g102
ssg83
g1473
sg76
(lp1485
S':'
asbag69
(g90
g71
NtRp1486
(dp1487
g74
(dp1488
sg83
g1473
sg76
(lp1489
g69
(g70
g71
NtRp1490
(dp1491
g74
(dp1492
g82
I4
ssg83
g1486
sg76
(lp1493
S'hard'
p1494
asbasbasbag69
(g85
g71
NtRp1495
(dp1496
g74
(dp1497
sg83
g834
sg76
(lp1498
g69
(g90
g71
NtRp1499
(dp1500
g74
(dp1501
g94
g95
ssg83
g1495
sg76
(lp1502
S'web2py_path'
p1503
asbag69
(g90
g71
NtRp1504
(dp1505
g74
(dp1506
g101
g102
ssg83
g1495
sg76
(lp1507
S':'
asbag69
(g90
g71
NtRp1508
(dp1509
g74
(dp1510
sg83
g1495
sg76
(lp1511
g69
(g70
g71
NtRp1512
(dp1513
g74
(dp1514
g82
I4
ssg83
g1508
sg76
(lp1515
g881
asbasbasbag69
(g85
g71
NtRp1516
(dp1517
g74
(dp1518
sg83
g834
sg76
(lp1519
g69
(g90
g71
NtRp1520
(dp1521
g74
(dp1522
g94
g95
ssg83
g1516
sg76
(lp1523
S'web2py_version'
p1524
asbag69
(g90
g71
NtRp1525
(dp1526
g74
(dp1527
g101
g102
ssg83
g1516
sg76
(lp1528
S':'
asbag69
(g90
g71
NtRp1529
(dp1530
g74
(dp1531
sg83
g1516
sg76
(lp1532
g69
(g70
g71
NtRp1533
(dp1534
g74
(dp1535
g82
I4
ssg83
g1529
sg76
(lp1536
g69
(g78
g71
NtRp1537
(dp1538
g74
(dp1539
g82
I3
ssg83
Nsg76
(lp1540
g69
(g85
g71
NtRp1541
(dp1542
g74
(dp1543
sg83
g1537
sg76
(lp1544
g69
(g90
g71
NtRp1545
(dp1546
g74
(dp1547
sg83
g1541
sg76
(lp1548
g69
(g70
g71
NtRp1549
(dp1550
g74
(dp1551
g82
I3
ssg83
g1545
sg76
(lp1552
S'1'
asbasbasbag69
(g85
g71
NtRp1553
(dp1554
g74
(dp1555
sg83
g1537
sg76
(lp1556
g69
(g90
g71
NtRp1557
(dp1558
g74
(dp1559
sg83
g1553
sg76
(lp1560
g69
(g70
g71
NtRp1561
(dp1562
g74
(dp1563
g82
I3
ssg83
g1557
sg76
(lp1564
S'99'
p1565
asbasbasbag69
(g85
g71
NtRp1566
(dp1567
g74
(dp1568
sg83
g1537
sg76
(lp1569
g69
(g90
g71
NtRp1570
(dp1571
g74
(dp1572
sg83
g1566
sg76
(lp1573
g69
(g70
g71
NtRp1574
(dp1575
g74
(dp1576
g82
I3
ssg83
g1570
sg76
(lp1577
S'4'
asbasbasbag69
(g85
g71
NtRp1578
(dp1579
g74
(dp1580
sg83
g1537
sg76
(lp1581
g69
(g90
g71
NtRp1582
(dp1583
g74
(dp1584
sg83
g1578
sg76
(lp1585
g69
(g70
g71
NtRp1586
(dp1587
g74
(dp1588
g82
I3
ssg83
g1582
sg76
(lp1589
S'datetime.datetime(2011, 12, 14, 14, 46, 14)'
p1590
asbasbasbag69
(g85
g71
NtRp1591
(dp1592
g74
(dp1593
sg83
g1537
sg76
(lp1594
g69
(g90
g71
NtRp1595
(dp1596
g74
(dp1597
sg83
g1591
sg76
(lp1598
g69
(g70
g71
NtRp1599
(dp1600
g74
(dp1601
g82
I3
ssg83
g1595
sg76
(lp1602
S'stable'
p1603
asbasbasbasbasbasbasbag69
(g85
g71
NtRp1604
(dp1605
g74
(dp1606
sg83
g834
sg76
(lp1607
g69
(g90
g71
NtRp1608
(dp1609
g74
(dp1610
g94
g95
ssg83
g1604
sg76
(lp1611
S'wsgi_errors'
p1612
asbag69
(g90
g71
NtRp1613
(dp1614
g74
(dp1615
g101
g102
ssg83
g1604
sg76
(lp1616
S':'
asbag69
(g90
g71
NtRp1617
(dp1618
g74
(dp1619
sg83
g1604
sg76
(lp1620
g69
(g70
g71
NtRp1621
(dp1622
g74
(dp1623
g82
I4
ssg83
g1617
sg76
(lp1624
S"<open file '<stderr>', mode 'w' at 0x0000000001E1E1E0>"
p1625
asbasbasbag69
(g85
g71
NtRp1626
(dp1627
g74
(dp1628
sg83
g834
sg76
(lp1629
g69
(g90
g71
NtRp1630
(dp1631
g74
(dp1632
g94
g95
ssg83
g1626
sg76
(lp1633
S'wsgi_file_wrapper'
p1634
asbag69
(g90
g71
NtRp1635
(dp1636
g74
(dp1637
g101
g102
ssg83
g1626
sg76
(lp1638
S':'
asbag69
(g90
g71
NtRp1639
(dp1640
g74
(dp1641
sg83
g1626
sg76
(lp1642
g69
(g70
g71
NtRp1643
(dp1644
g74
(dp1645
g82
I4
ssg83
g1639
sg76
(lp1646
S'<class wsgiref.util.FileWrapper at 0x00000000032D2A08>'
p1647
asbasbasbag69
(g85
g71
NtRp1648
(dp1649
g74
(dp1650
sg83
g834
sg76
(lp1651
g69
(g90
g71
NtRp1652
(dp1653
g74
(dp1654
g94
g95
ssg83
g1648
sg76
(lp1655
S'wsgi_input'
p1656
asbag69
(g90
g71
NtRp1657
(dp1658
g74
(dp1659
g101
g102
ssg83
g1648
sg76
(lp1660
S':'
asbag69
(g90
g71
NtRp1661
(dp1662
g74
(dp1663
sg83
g1648
sg76
(lp1664
g69
(g70
g71
NtRp1665
(dp1666
g74
(dp1667
g82
I4
ssg83
g1661
sg76
(lp1668
S'<socket._fileobject object at 0x000000000745EE58>'
p1669
asbasbasbag69
(g85
g71
NtRp1670
(dp1671
g74
(dp1672
sg83
g834
sg76
(lp1673
g69
(g90
g71
NtRp1674
(dp1675
g74
(dp1676
g94
g95
ssg83
g1670
sg76
(lp1677
S'wsgi_multiprocess'
p1678
asbag69
(g90
g71
NtRp1679
(dp1680
g74
(dp1681
g101
g102
ssg83
g1670
sg76
(lp1682
S':'
asbag69
(g90
g71
NtRp1683
(dp1684
g74
(dp1685
sg83
g1670
sg76
(lp1686
g69
(g70
g71
NtRp1687
(dp1688
g74
(dp1689
g82
I4
ssg83
g1683
sg76
(lp1690
g112
asbasbasbag69
(g85
g71
NtRp1691
(dp1692
g74
(dp1693
sg83
g834
sg76
(lp1694
g69
(g90
g71
NtRp1695
(dp1696
g74
(dp1697
g94
g95
ssg83
g1691
sg76
(lp1698
S'wsgi_multithread'
p1699
asbag69
(g90
g71
NtRp1700
(dp1701
g74
(dp1702
g101
g102
ssg83
g1691
sg76
(lp1703
S':'
asbag69
(g90
g71
NtRp1704
(dp1705
g74
(dp1706
sg83
g1691
sg76
(lp1707
g69
(g70
g71
NtRp1708
(dp1709
g74
(dp1710
g82
I4
ssg83
g1704
sg76
(lp1711
S'True'
p1712
asbasbasbag69
(g85
g71
NtRp1713
(dp1714
g74
(dp1715
sg83
g834
sg76
(lp1716
g69
(g90
g71
NtRp1717
(dp1718
g74
(dp1719
g94
g95
ssg83
g1713
sg76
(lp1720
S'wsgi_run_once'
p1721
asbag69
(g90
g71
NtRp1722
(dp1723
g74
(dp1724
g101
g102
ssg83
g1713
sg76
(lp1725
S':'
asbag69
(g90
g71
NtRp1726
(dp1727
g74
(dp1728
sg83
g1713
sg76
(lp1729
g69
(g70
g71
NtRp1730
(dp1731
g74
(dp1732
g82
I4
ssg83
g1726
sg76
(lp1733
g112
asbasbasbag69
(g85
g71
NtRp1734
(dp1735
g74
(dp1736
sg83
g834
sg76
(lp1737
g69
(g90
g71
NtRp1738
(dp1739
g74
(dp1740
g94
g95
ssg83
g1734
sg76
(lp1741
S'wsgi_url_scheme'
p1742
asbag69
(g90
g71
NtRp1743
(dp1744
g74
(dp1745
g101
g102
ssg83
g1734
sg76
(lp1746
S':'
asbag69
(g90
g71
NtRp1747
(dp1748
g74
(dp1749
sg83
g1734
sg76
(lp1750
g69
(g70
g71
NtRp1751
(dp1752
g74
(dp1753
g82
I4
ssg83
g1747
sg76
(lp1754
S'http'
p1755
asbasbasbag69
(g85
g71
NtRp1756
(dp1757
g74
(dp1758
sg83
g834
sg76
(lp1759
g69
(g90
g71
NtRp1760
(dp1761
g74
(dp1762
g94
g95
ssg83
g1756
sg76
(lp1763
S'wsgi_version'
p1764
asbag69
(g90
g71
NtRp1765
(dp1766
g74
(dp1767
g101
g102
ssg83
g1756
sg76
(lp1768
S':'
asbag69
(g90
g71
NtRp1769
(dp1770
g74
(dp1771
sg83
g1756
sg76
(lp1772
g69
(g70
g71
NtRp1773
(dp1774
g74
(dp1775
g82
I4
ssg83
g1769
sg76
(lp1776
g69
(g78
g71
NtRp1777
(dp1778
g74
(dp1779
g82
I3
ssg83
Nsg76
(lp1780
g69
(g85
g71
NtRp1781
(dp1782
g74
(dp1783
sg83
g1777
sg76
(lp1784
g69
(g90
g71
NtRp1785
(dp1786
g74
(dp1787
sg83
g1781
sg76
(lp1788
g69
(g70
g71
NtRp1789
(dp1790
g74
(dp1791
g82
I3
ssg83
g1785
sg76
(lp1792
S'1'
asbasbasbag69
(g85
g71
NtRp1793
(dp1794
g74
(dp1795
sg83
g1777
sg76
(lp1796
g69
(g90
g71
NtRp1797
(dp1798
g74
(dp1799
sg83
g1793
sg76
(lp1800
g69
(g70
g71
NtRp1801
(dp1802
g74
(dp1803
g82
I3
ssg83
g1797
sg76
(lp1804
S'0'
asbasbasbasbasbasbasbasbasbasbasbag69
(g85
g71
NtRp1805
(dp1806
g74
(dp1807
sg83
g79
sg76
(lp1808
g69
(g90
g71
NtRp1809
(dp1810
g74
(dp1811
g94
g95
ssg83
g1805
sg76
(lp1812
S'extension'
p1813
asbag69
(g90
g71
NtRp1814
(dp1815
g74
(dp1816
g101
g102
ssg83
g1805
sg76
(lp1817
S':'
asbag69
(g90
g71
NtRp1818
(dp1819
g74
(dp1820
sg83
g1805
sg76
(lp1821
g69
(g70
g71
NtRp1822
(dp1823
g74
(dp1824
g82
I5
ssg83
g1818
sg76
(lp1825
S'html'
p1826
asbasbasbag69
(g85
g71
NtRp1827
(dp1828
g74
(dp1829
sg83
g79
sg76
(lp1830
g69
(g90
g71
NtRp1831
(dp1832
g74
(dp1833
g94
g95
ssg83
g1827
sg76
(lp1834
S'folder'
p1835
asbag69
(g90
g71
NtRp1836
(dp1837
g74
(dp1838
g101
g102
ssg83
g1827
sg76
(lp1839
S':'
asbag69
(g90
g71
NtRp1840
(dp1841
g74
(dp1842
sg83
g1827
sg76
(lp1843
g69
(g70
g71
NtRp1844
(dp1845
g74
(dp1846
g82
I5
ssg83
g1840
sg76
(lp1847
S'C:\\webapps\\ben\\project\\web2py\\applications\\profile\\'
p1848
asbasbasbag69
(g85
g71
NtRp1849
(dp1850
g74
(dp1851
sg83
g79
sg76
(lp1852
g69
(g90
g71
NtRp1853
(dp1854
g74
(dp1855
g94
g95
ssg83
g1849
sg76
(lp1856
S'function'
p1857
asbag69
(g90
g71
NtRp1858
(dp1859
g74
(dp1860
g101
g102
ssg83
g1849
sg76
(lp1861
S':'
asbag69
(g90
g71
NtRp1862
(dp1863
g74
(dp1864
sg83
g1849
sg76
(lp1865
g69
(g70
g71
NtRp1866
(dp1867
g74
(dp1868
g82
I5
ssg83
g1862
sg76
(lp1869
S'index'
p1870
asbasbasbag69
(g85
g71
NtRp1871
(dp1872
g74
(dp1873
sg83
g79
sg76
(lp1874
g69
(g90
g71
NtRp1875
(dp1876
g74
(dp1877
g94
g95
ssg83
g1871
sg76
(lp1878
S'get_vars'
p1879
asbag69
(g90
g71
NtRp1880
(dp1881
g74
(dp1882
g101
g102
ssg83
g1871
sg76
(lp1883
S':'
asbag69
(g90
g71
NtRp1884
(dp1885
g74
(dp1886
sg83
g1871
sg76
(lp1887
g69
(g70
g71
NtRp1888
(dp1889
g74
(dp1890
g82
I5
ssg83
g1884
sg76
(lp1891
g69
(g78
g71
NtRp1892
(dp1893
g74
(dp1894
g82
I4
ssg83
Nsg76
(lp1895
sbasbasbasbag69
(g85
g71
NtRp1896
(dp1897
g74
(dp1898
sg83
g79
sg76
(lp1899
g69
(g90
g71
NtRp1900
(dp1901
g74
(dp1902
g94
g95
ssg83
g1896
sg76
(lp1903
S'global_settings'
p1904
asbag69
(g90
g71
NtRp1905
(dp1906
g74
(dp1907
g101
g102
ssg83
g1896
sg76
(lp1908
S':'
asbag69
(g90
g71
NtRp1909
(dp1910
g74
(dp1911
sg83
g1896
sg76
(lp1912
g69
(g70
g71
NtRp1913
(dp1914
g74
(dp1915
g82
I5
ssg83
g1909
sg76
(lp1916
g69
(g78
g71
NtRp1917
(dp1918
g74
(dp1919
g82
I4
ssg83
Nsg76
(lp1920
g69
(g85
g71
NtRp1921
(dp1922
g74
(dp1923
sg83
g1917
sg76
(lp1924
g69
(g90
g71
NtRp1925
(dp1926
g74
(dp1927
g94
g95
ssg83
g1921
sg76
(lp1928
g846
asbag69
(g90
g71
NtRp1929
(dp1930
g74
(dp1931
g101
g102
ssg83
g1921
sg76
(lp1932
S':'
asbag69
(g90
g71
NtRp1933
(dp1934
g74
(dp1935
sg83
g1921
sg76
(lp1936
g69
(g70
g71
NtRp1937
(dp1938
g74
(dp1939
g82
I4
ssg83
g1933
sg76
(lp1940
S"set(['C:\\\\webapps\\\\ben\\\\project\\\\web2py\\\\applications\\\\profile\\\\', 'C:\\\\webapps\\\\ben\\\\project\\\\web2py\\\\applications\\\\welcome\\\\', 'C:\\\\webapps\\\\ben\\\\project\\\\web2py\\\\applications\\\\admin\\\\'])"
p1941
asbasbasbag69
(g85
g71
NtRp1942
(dp1943
g74
(dp1944
sg83
g1917
sg76
(lp1945
g69
(g90
g71
NtRp1946
(dp1947
g74
(dp1948
g94
g95
ssg83
g1942
sg76
(lp1949
g868
asbag69
(g90
g71
NtRp1950
(dp1951
g74
(dp1952
g101
g102
ssg83
g1942
sg76
(lp1953
S':'
asbag69
(g90
g71
NtRp1954
(dp1955
g74
(dp1956
sg83
g1942
sg76
(lp1957
g69
(g70
g71
NtRp1958
(dp1959
g74
(dp1960
g82
I4
ssg83
g1954
sg76
(lp1961
g881
asbasbasbag69
(g85
g71
NtRp1962
(dp1963
g74
(dp1964
sg83
g1917
sg76
(lp1965
g69
(g90
g71
NtRp1966
(dp1967
g74
(dp1968
g94
g95
ssg83
g1962
sg76
(lp1969
g890
asbag69
(g90
g71
NtRp1970
(dp1971
g74
(dp1972
g101
g102
ssg83
g1962
sg76
(lp1973
S':'
asbag69
(g90
g71
NtRp1974
(dp1975
g74
(dp1976
sg83
g1962
sg76
(lp1977
g69
(g70
g71
NtRp1978
(dp1979
g74
(dp1980
g82
I4
ssg83
g1974
sg76
(lp1981
g69
(g78
g71
NtRp1982
(dp1983
g74
(dp1984
g82
I3
ssg83
Nsg76
(lp1985
sbasbasbasbag69
(g85
g71
NtRp1986
(dp1987
g74
(dp1988
sg83
g1917
sg76
(lp1989
g69
(g90
g71
NtRp1990
(dp1991
g74
(dp1992
g94
g95
ssg83
g1986
sg76
(lp1993
g915
asbag69
(g90
g71
NtRp1994
(dp1995
g74
(dp1996
g101
g102
ssg83
g1986
sg76
(lp1997
S':'
asbag69
(g90
g71
NtRp1998
(dp1999
g74
(dp2000
sg83
g1986
sg76
(lp2001
g69
(g70
g71
NtRp2002
(dp2003
g74
(dp2004
g82
I4
ssg83
g1998
sg76
(lp2005
S"<Values at 0x341a248: {'verbose': False, 'ip': '127.0.0.1', 'shutdown_timeout': 5, 'taskbar': False, 'nocron': False, 'pid_filename': 'httpserver.pid', 'maxthreads': None, 'softcron': False, 'server_name': 'Sablasticus-hp', 'bpython': False, 'nogui': False, 'port': 8000, 'extcron': False, 'debuglevel': 30, 'test': None, 'folder': 'C:\\\\webapps\\\\ben\\\\project\\\\web2py', 'config': '', 'import_models': False, 'winservice': '', 'shell': None, 'run': '', 'log_filename': 'httpserver.log', 'args': [''], 'socket_timeout': 1, 'ssl_ca_certificate': None, 'scheduler': None, 'profiler_filename': None, 'ssl_private_key': '', 'password': '<ask>', 'request_queue_size': 5, 'ssl_certificate': '', 'cronjob': False, 'numthreads': None, 'quiet': False, 'interfaces': None, 'minthreads': None, 'timeout': 10, 'plain': False, 'nobanner': False}>"
p2006
asbasbasbag69
(g85
g71
NtRp2007
(dp2008
g74
(dp2009
sg83
g1917
sg76
(lp2010
g69
(g90
g71
NtRp2011
(dp2012
g74
(dp2013
g94
g95
ssg83
g2007
sg76
(lp2014
g937
asbag69
(g90
g71
NtRp2015
(dp2016
g74
(dp2017
g101
g102
ssg83
g2007
sg76
(lp2018
S':'
asbag69
(g90
g71
NtRp2019
(dp2020
g74
(dp2021
sg83
g2007
sg76
(lp2022
g69
(g70
g71
NtRp2023
(dp2024
g74
(dp2025
g82
I4
ssg83
g2019
sg76
(lp2026
S'set([])'
p2027
asbasbasbag69
(g85
g71
NtRp2028
(dp2029
g74
(dp2030
sg83
g1917
sg76
(lp2031
g69
(g90
g71
NtRp2032
(dp2033
g74
(dp2034
g94
g95
ssg83
g2028
sg76
(lp2035
g959
asbag69
(g90
g71
NtRp2036
(dp2037
g74
(dp2038
g101
g102
ssg83
g2028
sg76
(lp2039
S':'
asbag69
(g90
g71
NtRp2040
(dp2041
g74
(dp2042
sg83
g2028
sg76
(lp2043
g69
(g70
g71
NtRp2044
(dp2045
g74
(dp2046
g82
I4
ssg83
g2040
sg76
(lp2047
g112
asbasbasbag69
(g85
g71
NtRp2048
(dp2049
g74
(dp2050
sg83
g1917
sg76
(lp2051
g69
(g90
g71
NtRp2052
(dp2053
g74
(dp2054
g94
g95
ssg83
g2048
sg76
(lp2055
g980
asbag69
(g90
g71
NtRp2056
(dp2057
g74
(dp2058
g101
g102
ssg83
g2048
sg76
(lp2059
S':'
asbag69
(g90
g71
NtRp2060
(dp2061
g74
(dp2062
sg83
g2048
sg76
(lp2063
g69
(g70
g71
NtRp2064
(dp2065
g74
(dp2066
g82
I4
ssg83
g2060
sg76
(lp2067
g993
asbasbasbag69
(g85
g71
NtRp2068
(dp2069
g74
(dp2070
sg83
g1917
sg76
(lp2071
g69
(g90
g71
NtRp2072
(dp2073
g74
(dp2074
g94
g95
ssg83
g2068
sg76
(lp2075
g1222
asbag69
(g90
g71
NtRp2076
(dp2077
g74
(dp2078
g101
g102
ssg83
g2068
sg76
(lp2079
S':'
asbag69
(g90
g71
NtRp2080
(dp2081
g74
(dp2082
sg83
g2068
sg76
(lp2083
g69
(g70
g71
NtRp2084
(dp2085
g74
(dp2086
g82
I4
ssg83
g2080
sg76
(lp2087
g112
asbasbasbag69
(g85
g71
NtRp2088
(dp2089
g74
(dp2090
sg83
g1917
sg76
(lp2091
g69
(g90
g71
NtRp2092
(dp2093
g74
(dp2094
g94
g95
ssg83
g2088
sg76
(lp2095
g1243
asbag69
(g90
g71
NtRp2096
(dp2097
g74
(dp2098
g101
g102
ssg83
g2088
sg76
(lp2099
S':'
asbag69
(g90
g71
NtRp2100
(dp2101
g74
(dp2102
sg83
g2088
sg76
(lp2103
g69
(g70
g71
NtRp2104
(dp2105
g74
(dp2106
g82
I4
ssg83
g2100
sg76
(lp2107
g112
asbasbasbag69
(g85
g71
NtRp2108
(dp2109
g74
(dp2110
sg83
g1917
sg76
(lp2111
g69
(g90
g71
NtRp2112
(dp2113
g74
(dp2114
g94
g95
ssg83
g2108
sg76
(lp2115
g1481
asbag69
(g90
g71
NtRp2116
(dp2117
g74
(dp2118
g101
g102
ssg83
g2108
sg76
(lp2119
S':'
asbag69
(g90
g71
NtRp2120
(dp2121
g74
(dp2122
sg83
g2108
sg76
(lp2123
g69
(g70
g71
NtRp2124
(dp2125
g74
(dp2126
g82
I4
ssg83
g2120
sg76
(lp2127
g1494
asbasbasbag69
(g85
g71
NtRp2128
(dp2129
g74
(dp2130
sg83
g1917
sg76
(lp2131
g69
(g90
g71
NtRp2132
(dp2133
g74
(dp2134
g94
g95
ssg83
g2128
sg76
(lp2135
g1524
asbag69
(g90
g71
NtRp2136
(dp2137
g74
(dp2138
g101
g102
ssg83
g2128
sg76
(lp2139
S':'
asbag69
(g90
g71
NtRp2140
(dp2141
g74
(dp2142
sg83
g2128
sg76
(lp2143
g69
(g70
g71
NtRp2144
(dp2145
g74
(dp2146
g82
I4
ssg83
g2140
sg76
(lp2147
g69
(g78
g71
NtRp2148
(dp2149
g74
(dp2150
g82
I3
ssg83
Nsg76
(lp2151
g69
(g85
g71
NtRp2152
(dp2153
g74
(dp2154
sg83
g2148
sg76
(lp2155
g69
(g90
g71
NtRp2156
(dp2157
g74
(dp2158
sg83
g2152
sg76
(lp2159
g69
(g70
g71
NtRp2160
(dp2161
g74
(dp2162
g82
I3
ssg83
g2156
sg76
(lp2163
S'1'
asbasbasbag69
(g85
g71
NtRp2164
(dp2165
g74
(dp2166
sg83
g2148
sg76
(lp2167
g69
(g90
g71
NtRp2168
(dp2169
g74
(dp2170
sg83
g2164
sg76
(lp2171
g69
(g70
g71
NtRp2172
(dp2173
g74
(dp2174
g82
I3
ssg83
g2168
sg76
(lp2175
S'99'
p2176
asbasbasbag69
(g85
g71
NtRp2177
(dp2178
g74
(dp2179
sg83
g2148
sg76
(lp2180
g69
(g90
g71
NtRp2181
(dp2182
g74
(dp2183
sg83
g2177
sg76
(lp2184
g69
(g70
g71
NtRp2185
(dp2186
g74
(dp2187
g82
I3
ssg83
g2181
sg76
(lp2188
S'4'
asbasbasbag69
(g85
g71
NtRp2189
(dp2190
g74
(dp2191
sg83
g2148
sg76
(lp2192
g69
(g90
g71
NtRp2193
(dp2194
g74
(dp2195
sg83
g2189
sg76
(lp2196
g69
(g70
g71
NtRp2197
(dp2198
g74
(dp2199
g82
I3
ssg83
g2193
sg76
(lp2200
S'datetime.datetime(2011, 12, 14, 14, 46, 14)'
p2201
asbasbasbag69
(g85
g71
NtRp2202
(dp2203
g74
(dp2204
sg83
g2148
sg76
(lp2205
g69
(g90
g71
NtRp2206
(dp2207
g74
(dp2208
sg83
g2202
sg76
(lp2209
g69
(g70
g71
NtRp2210
(dp2211
g74
(dp2212
g82
I3
ssg83
g2206
sg76
(lp2213
g1603
asbasbasbasbasbasbasbasbasbasbasbag69
(g85
g71
NtRp2214
(dp2215
g74
(dp2216
sg83
g79
sg76
(lp2217
g69
(g90
g71
NtRp2218
(dp2219
g74
(dp2220
g94
g95
ssg83
g2214
sg76
(lp2221
S'is_https'
p2222
asbag69
(g90
g71
NtRp2223
(dp2224
g74
(dp2225
g101
g102
ssg83
g2214
sg76
(lp2226
S':'
asbag69
(g90
g71
NtRp2227
(dp2228
g74
(dp2229
sg83
g2214
sg76
(lp2230
g69
(g70
g71
NtRp2231
(dp2232
g74
(dp2233
g82
I5
ssg83
g2227
sg76
(lp2234
g112
asbasbasbag69
(g85
g71
NtRp2235
(dp2236
g74
(dp2237
sg83
g79
sg76
(lp2238
g69
(g90
g71
NtRp2239
(dp2240
g74
(dp2241
g94
g95
ssg83
g2235
sg76
(lp2242
S'is_local'
p2243
asbag69
(g90
g71
NtRp2244
(dp2245
g74
(dp2246
g101
g102
ssg83
g2235
sg76
(lp2247
S':'
asbag69
(g90
g71
NtRp2248
(dp2249
g74
(dp2250
sg83
g2235
sg76
(lp2251
g69
(g70
g71
NtRp2252
(dp2253
g74
(dp2254
g82
I5
ssg83
g2248
sg76
(lp2255
g1712
asbasbasbag69
(g85
g71
NtRp2256
(dp2257
g74
(dp2258
sg83
g79
sg76
(lp2259
g69
(g90
g71
NtRp2260
(dp2261
g74
(dp2262
g94
g95
ssg83
g2256
sg76
(lp2263
S'is_restful'
p2264
asbag69
(g90
g71
NtRp2265
(dp2266
g74
(dp2267
g101
g102
ssg83
g2256
sg76
(lp2268
S':'
asbag69
(g90
g71
NtRp2269
(dp2270
g74
(dp2271
sg83
g2256
sg76
(lp2272
g69
(g70
g71
NtRp2273
(dp2274
g74
(dp2275
g82
I5
ssg83
g2269
sg76
(lp2276
g112
asbasbasbag69
(g85
g71
NtRp2277
(dp2278
g74
(dp2279
sg83
g79
sg76
(lp2280
g69
(g90
g71
NtRp2281
(dp2282
g74
(dp2283
g94
g95
ssg83
g2277
sg76
(lp2284
S'now'
p2285
asbag69
(g90
g71
NtRp2286
(dp2287
g74
(dp2288
g101
g102
ssg83
g2277
sg76
(lp2289
S':'
asbag69
(g90
g71
NtRp2290
(dp2291
g74
(dp2292
sg83
g2277
sg76
(lp2293
g69
(g70
g71
NtRp2294
(dp2295
g74
(dp2296
g82
I5
ssg83
g2290
sg76
(lp2297
S'datetime.datetime(2012, 2, 2, 16, 17, 40, 276000)'
p2298
asbasbasbag69
(g85
g71
NtRp2299
(dp2300
g74
(dp2301
sg83
g79
sg76
(lp2302
g69
(g90
g71
NtRp2303
(dp2304
g74
(dp2305
g94
g95
ssg83
g2299
sg76
(lp2306
S'post_vars'
p2307
asbag69
(g90
g71
NtRp2308
(dp2309
g74
(dp2310
g101
g102
ssg83
g2299
sg76
(lp2311
S':'
asbag69
(g90
g71
NtRp2312
(dp2313
g74
(dp2314
sg83
g2299
sg76
(lp2315
g69
(g70
g71
NtRp2316
(dp2317
g74
(dp2318
g82
I5
ssg83
g2312
sg76
(lp2319
g69
(g78
g71
NtRp2320
(dp2321
g74
(dp2322
g82
I4
ssg83
Nsg76
(lp2323
sbasbasbasbag69
(g85
g71
NtRp2324
(dp2325
g74
(dp2326
sg83
g79
sg76
(lp2327
g69
(g90
g71
NtRp2328
(dp2329
g74
(dp2330
g94
g95
ssg83
g2324
sg76
(lp2331
S'url'
p2332
asbag69
(g90
g71
NtRp2333
(dp2334
g74
(dp2335
g101
g102
ssg83
g2324
sg76
(lp2336
S':'
asbag69
(g90
g71
NtRp2337
(dp2338
g74
(dp2339
sg83
g2324
sg76
(lp2340
g69
(g70
g71
NtRp2341
(dp2342
g74
(dp2343
g82
I5
ssg83
g2337
sg76
(lp2344
S'/profile/default/index'
p2345
asbasbasbag69
(g85
g71
NtRp2346
(dp2347
g74
(dp2348
sg83
g79
sg76
(lp2349
g69
(g90
g71
NtRp2350
(dp2351
g74
(dp2352
g94
g95
ssg83
g2346
sg76
(lp2353
S'utcnow'
p2354
asbag69
(g90
g71
NtRp2355
(dp2356
g74
(dp2357
g101
g102
ssg83
g2346
sg76
(lp2358
S':'
asbag69
(g90
g71
NtRp2359
(dp2360
g74
(dp2361
sg83
g2346
sg76
(lp2362
g69
(g70
g71
NtRp2363
(dp2364
g74
(dp2365
g82
I5
ssg83
g2359
sg76
(lp2366
S'datetime.datetime(2012, 2, 2, 5, 17, 40, 276000)'
p2367
asbasbasbag69
(g85
g71
NtRp2368
(dp2369
g74
(dp2370
sg83
g79
sg76
(lp2371
g69
(g90
g71
NtRp2372
(dp2373
g74
(dp2374
g94
g95
ssg83
g2368
sg76
(lp2375
S'uuid'
p2376
asbag69
(g90
g71
NtRp2377
(dp2378
g74
(dp2379
g101
g102
ssg83
g2368
sg76
(lp2380
S':'
asbag69
(g90
g71
NtRp2381
(dp2382
g74
(dp2383
sg83
g2368
sg76
(lp2384
g69
(g70
g71
NtRp2385
(dp2386
g74
(dp2387
g82
I5
ssg83
g2381
sg76
(lp2388
S'profile/127.0.0.1.2012-02-02.16-17-40.c74772ae-ab16-49d5-8407-b526581f26c3'
p2389
asbasbasbag69
(g85
g71
NtRp2390
(dp2391
g74
(dp2392
sg83
g79
sg76
(lp2393
g69
(g90
g71
NtRp2394
(dp2395
g74
(dp2396
g94
g95
ssg83
g2390
sg76
(lp2397
S'vars'
p2398
asbag69
(g90
g71
NtRp2399
(dp2400
g74
(dp2401
g101
g102
ssg83
g2390
sg76
(lp2402
S':'
asbag69
(g90
g71
NtRp2403
(dp2404
g74
(dp2405
sg83
g2390
sg76
(lp2406
g69
(g70
g71
NtRp2407
(dp2408
g74
(dp2409
g82
I5
ssg83
g2403
sg76
(lp2410
g69
(g78
g71
NtRp2411
(dp2412
g74
(dp2413
g82
I4
ssg83
Nsg76
(lp2414
sbasbasbasbag69
(g85
g71
NtRp2415
(dp2416
g74
(dp2417
sg83
g79
sg76
(lp2418
g69
(g90
g71
NtRp2419
(dp2420
g74
(dp2421
g94
g95
ssg83
g2415
sg76
(lp2422
S'wsgi'
p2423
asbag69
(g90
g71
NtRp2424
(dp2425
g74
(dp2426
g101
g102
ssg83
g2415
sg76
(lp2427
S':'
asbag69
(g90
g71
NtRp2428
(dp2429
g74
(dp2430
sg83
g2415
sg76
(lp2431
g69
(g70
g71
NtRp2432
(dp2433
g74
(dp2434
g82
I5
ssg83
g2428
sg76
(lp2435
g69
(g78
g71
NtRp2436
(dp2437
g74
(dp2438
g82
I4
ssg83
Nsg76
(lp2439
g69
(g85
g71
NtRp2440
(dp2441
g74
(dp2442
sg83
g2436
sg76
(lp2443
g69
(g90
g71
NtRp2444
(dp2445
g74
(dp2446
g94
g95
ssg83
g2440
sg76
(lp2447
S'environ'
p2448
asbag69
(g90
g71
NtRp2449
(dp2450
g74
(dp2451
g101
g102
ssg83
g2440
sg76
(lp2452
S':'
asbag69
(g90
g71
NtRp2453
(dp2454
g74
(dp2455
sg83
g2440
sg76
(lp2456
g69
(g70
g71
NtRp2457
(dp2458
g74
(dp2459
g82
I4
ssg83
g2453
sg76
(lp2460
g69
(g78
g71
NtRp2461
(dp2462
g74
(dp2463
g82
I3
ssg83
Nsg76
(lp2464
g69
(g85
g71
NtRp2465
(dp2466
g74
(dp2467
sg83
g2461
sg76
(lp2468
g69
(g90
g71
NtRp2469
(dp2470
g74
(dp2471
g94
g95
ssg83
g2465
sg76
(lp2472
S'HTTP_ACCEPT'
p2473
asbag69
(g90
g71
NtRp2474
(dp2475
g74
(dp2476
g101
g102
ssg83
g2465
sg76
(lp2477
S':'
asbag69
(g90
g71
NtRp2478
(dp2479
g74
(dp2480
sg83
g2465
sg76
(lp2481
g69
(g70
g71
NtRp2482
(dp2483
g74
(dp2484
g82
I3
ssg83
g2478
sg76
(lp2485
g1015
asbasbasbag69
(g85
g71
NtRp2486
(dp2487
g74
(dp2488
sg83
g2461
sg76
(lp2489
g69
(g90
g71
NtRp2490
(dp2491
g74
(dp2492
g94
g95
ssg83
g2486
sg76
(lp2493
S'HTTP_ACCEPT_CHARSET'
p2494
asbag69
(g90
g71
NtRp2495
(dp2496
g74
(dp2497
g101
g102
ssg83
g2486
sg76
(lp2498
S':'
asbag69
(g90
g71
NtRp2499
(dp2500
g74
(dp2501
sg83
g2486
sg76
(lp2502
g69
(g70
g71
NtRp2503
(dp2504
g74
(dp2505
g82
I3
ssg83
g2499
sg76
(lp2506
g1037
asbasbasbag69
(g85
g71
NtRp2507
(dp2508
g74
(dp2509
sg83
g2461
sg76
(lp2510
g69
(g90
g71
NtRp2511
(dp2512
g74
(dp2513
g94
g95
ssg83
g2507
sg76
(lp2514
S'HTTP_ACCEPT_ENCODING'
p2515
asbag69
(g90
g71
NtRp2516
(dp2517
g74
(dp2518
g101
g102
ssg83
g2507
sg76
(lp2519
S':'
asbag69
(g90
g71
NtRp2520
(dp2521
g74
(dp2522
sg83
g2507
sg76
(lp2523
g69
(g70
g71
NtRp2524
(dp2525
g74
(dp2526
g82
I3
ssg83
g2520
sg76
(lp2527
g1059
asbasbasbag69
(g85
g71
NtRp2528
(dp2529
g74
(dp2530
sg83
g2461
sg76
(lp2531
g69
(g90
g71
NtRp2532
(dp2533
g74
(dp2534
g94
g95
ssg83
g2528
sg76
(lp2535
S'HTTP_ACCEPT_LANGUAGE'
p2536
asbag69
(g90
g71
NtRp2537
(dp2538
g74
(dp2539
g101
g102
ssg83
g2528
sg76
(lp2540
S':'
asbag69
(g90
g71
NtRp2541
(dp2542
g74
(dp2543
sg83
g2528
sg76
(lp2544
g69
(g70
g71
NtRp2545
(dp2546
g74
(dp2547
g82
I3
ssg83
g2541
sg76
(lp2548
g1081
asbasbasbag69
(g85
g71
NtRp2549
(dp2550
g74
(dp2551
sg83
g2461
sg76
(lp2552
g69
(g90
g71
NtRp2553
(dp2554
g74
(dp2555
g94
g95
ssg83
g2549
sg76
(lp2556
S'HTTP_CACHE_CONTROL'
p2557
asbag69
(g90
g71
NtRp2558
(dp2559
g74
(dp2560
g101
g102
ssg83
g2549
sg76
(lp2561
S':'
asbag69
(g90
g71
NtRp2562
(dp2563
g74
(dp2564
sg83
g2549
sg76
(lp2565
g69
(g70
g71
NtRp2566
(dp2567
g74
(dp2568
g82
I3
ssg83
g2562
sg76
(lp2569
g1103
asbasbasbag69
(g85
g71
NtRp2570
(dp2571
g74
(dp2572
sg83
g2461
sg76
(lp2573
g69
(g90
g71
NtRp2574
(dp2575
g74
(dp2576
g94
g95
ssg83
g2570
sg76
(lp2577
S'HTTP_CONNECTION'
p2578
asbag69
(g90
g71
NtRp2579
(dp2580
g74
(dp2581
g101
g102
ssg83
g2570
sg76
(lp2582
S':'
asbag69
(g90
g71
NtRp2583
(dp2584
g74
(dp2585
sg83
g2570
sg76
(lp2586
g69
(g70
g71
NtRp2587
(dp2588
g74
(dp2589
g82
I3
ssg83
g2583
sg76
(lp2590
g1125
asbasbasbag69
(g85
g71
NtRp2591
(dp2592
g74
(dp2593
sg83
g2461
sg76
(lp2594
g69
(g90
g71
NtRp2595
(dp2596
g74
(dp2597
g94
g95
ssg83
g2591
sg76
(lp2598
S'HTTP_COOKIE'
p2599
asbag69
(g90
g71
NtRp2600
(dp2601
g74
(dp2602
g101
g102
ssg83
g2591
sg76
(lp2603
S':'
asbag69
(g90
g71
NtRp2604
(dp2605
g74
(dp2606
sg83
g2591
sg76
(lp2607
g69
(g70
g71
NtRp2608
(dp2609
g74
(dp2610
g82
I3
ssg83
g2604
sg76
(lp2611
g1147
asbasbasbag69
(g85
g71
NtRp2612
(dp2613
g74
(dp2614
sg83
g2461
sg76
(lp2615
g69
(g90
g71
NtRp2616
(dp2617
g74
(dp2618
g94
g95
ssg83
g2612
sg76
(lp2619
S'HTTP_HOST'
p2620
asbag69
(g90
g71
NtRp2621
(dp2622
g74
(dp2623
g101
g102
ssg83
g2612
sg76
(lp2624
S':'
asbag69
(g90
g71
NtRp2625
(dp2626
g74
(dp2627
sg83
g2612
sg76
(lp2628
g69
(g70
g71
NtRp2629
(dp2630
g74
(dp2631
g82
I3
ssg83
g2625
sg76
(lp2632
g1169
asbasbasbag69
(g85
g71
NtRp2633
(dp2634
g74
(dp2635
sg83
g2461
sg76
(lp2636
g69
(g90
g71
NtRp2637
(dp2638
g74
(dp2639
g94
g95
ssg83
g2633
sg76
(lp2640
S'HTTP_REFERER'
p2641
asbag69
(g90
g71
NtRp2642
(dp2643
g74
(dp2644
g101
g102
ssg83
g2633
sg76
(lp2645
S':'
asbag69
(g90
g71
NtRp2646
(dp2647
g74
(dp2648
sg83
g2633
sg76
(lp2649
g69
(g70
g71
NtRp2650
(dp2651
g74
(dp2652
g82
I3
ssg83
g2646
sg76
(lp2653
g1191
asbasbasbag69
(g85
g71
NtRp2654
(dp2655
g74
(dp2656
sg83
g2461
sg76
(lp2657
g69
(g90
g71
NtRp2658
(dp2659
g74
(dp2660
g94
g95
ssg83
g2654
sg76
(lp2661
S'HTTP_USER_AGENT'
p2662
asbag69
(g90
g71
NtRp2663
(dp2664
g74
(dp2665
g101
g102
ssg83
g2654
sg76
(lp2666
S':'
asbag69
(g90
g71
NtRp2667
(dp2668
g74
(dp2669
sg83
g2654
sg76
(lp2670
g69
(g70
g71
NtRp2671
(dp2672
g74
(dp2673
g82
I3
ssg83
g2667
sg76
(lp2674
g1213
asbasbasbag69
(g85
g71
NtRp2675
(dp2676
g74
(dp2677
sg83
g2461
sg76
(lp2678
g69
(g90
g71
NtRp2679
(dp2680
g74
(dp2681
g94
g95
ssg83
g2675
sg76
(lp2682
S'PATH_INFO'
p2683
asbag69
(g90
g71
NtRp2684
(dp2685
g74
(dp2686
g101
g102
ssg83
g2675
sg76
(lp2687
S':'
asbag69
(g90
g71
NtRp2688
(dp2689
g74
(dp2690
sg83
g2675
sg76
(lp2691
g69
(g70
g71
NtRp2692
(dp2693
g74
(dp2694
g82
I3
ssg83
g2688
sg76
(lp2695
g1277
asbasbasbag69
(g85
g71
NtRp2696
(dp2697
g74
(dp2698
sg83
g2461
sg76
(lp2699
g69
(g90
g71
NtRp2700
(dp2701
g74
(dp2702
g94
g95
ssg83
g2696
sg76
(lp2703
S'QUERY_STRING'
p2704
asbag69
(g90
g71
NtRp2705
(dp2706
g74
(dp2707
g101
g102
ssg83
g2696
sg76
(lp2708
S':'
asbag69
(g90
g71
NtRp2709
(dp2710
g74
(dp2711
sg83
g2696
sg76
(lp2712
g69
(g70
g71
NtRp2713
(dp2714
g74
(dp2715
g82
I3
ssg83
g2709
sg76
(lp2716
S''
asbasbasbag69
(g85
g71
NtRp2717
(dp2718
g74
(dp2719
sg83
g2461
sg76
(lp2720
g69
(g90
g71
NtRp2721
(dp2722
g74
(dp2723
g94
g95
ssg83
g2717
sg76
(lp2724
S'REMOTE_ADDR'
p2725
asbag69
(g90
g71
NtRp2726
(dp2727
g74
(dp2728
g101
g102
ssg83
g2717
sg76
(lp2729
S':'
asbag69
(g90
g71
NtRp2730
(dp2731
g74
(dp2732
sg83
g2717
sg76
(lp2733
g69
(g70
g71
NtRp2734
(dp2735
g74
(dp2736
g82
I3
ssg83
g2730
sg76
(lp2737
g202
asbasbasbag69
(g85
g71
NtRp2738
(dp2739
g74
(dp2740
sg83
g2461
sg76
(lp2741
g69
(g90
g71
NtRp2742
(dp2743
g74
(dp2744
g94
g95
ssg83
g2738
sg76
(lp2745
S'REMOTE_PORT'
p2746
asbag69
(g90
g71
NtRp2747
(dp2748
g74
(dp2749
g101
g102
ssg83
g2738
sg76
(lp2750
S':'
asbag69
(g90
g71
NtRp2751
(dp2752
g74
(dp2753
sg83
g2738
sg76
(lp2754
g69
(g70
g71
NtRp2755
(dp2756
g74
(dp2757
g82
I3
ssg83
g2751
sg76
(lp2758
g1341
asbasbasbag69
(g85
g71
NtRp2759
(dp2760
g74
(dp2761
sg83
g2461
sg76
(lp2762
g69
(g90
g71
NtRp2763
(dp2764
g74
(dp2765
g94
g95
ssg83
g2759
sg76
(lp2766
S'REQUEST_METHOD'
p2767
asbag69
(g90
g71
NtRp2768
(dp2769
g74
(dp2770
g101
g102
ssg83
g2759
sg76
(lp2771
S':'
asbag69
(g90
g71
NtRp2772
(dp2773
g74
(dp2774
sg83
g2759
sg76
(lp2775
g69
(g70
g71
NtRp2776
(dp2777
g74
(dp2778
g82
I3
ssg83
g2772
sg76
(lp2779
g1363
asbasbasbag69
(g85
g71
NtRp2780
(dp2781
g74
(dp2782
sg83
g2461
sg76
(lp2783
g69
(g90
g71
NtRp2784
(dp2785
g74
(dp2786
g94
g95
ssg83
g2780
sg76
(lp2787
S'SCRIPT_NAME'
p2788
asbag69
(g90
g71
NtRp2789
(dp2790
g74
(dp2791
g101
g102
ssg83
g2780
sg76
(lp2792
S':'
asbag69
(g90
g71
NtRp2793
(dp2794
g74
(dp2795
sg83
g2780
sg76
(lp2796
g69
(g70
g71
NtRp2797
(dp2798
g74
(dp2799
g82
I3
ssg83
g2793
sg76
(lp2800
S''
asbasbasbag69
(g85
g71
NtRp2801
(dp2802
g74
(dp2803
sg83
g2461
sg76
(lp2804
g69
(g90
g71
NtRp2805
(dp2806
g74
(dp2807
g94
g95
ssg83
g2801
sg76
(lp2808
S'SERVER_NAME'
p2809
asbag69
(g90
g71
NtRp2810
(dp2811
g74
(dp2812
g101
g102
ssg83
g2801
sg76
(lp2813
S':'
asbag69
(g90
g71
NtRp2814
(dp2815
g74
(dp2816
sg83
g2801
sg76
(lp2817
g69
(g70
g71
NtRp2818
(dp2819
g74
(dp2820
g82
I3
ssg83
g2814
sg76
(lp2821
g1406
asbasbasbag69
(g85
g71
NtRp2822
(dp2823
g74
(dp2824
sg83
g2461
sg76
(lp2825
g69
(g90
g71
NtRp2826
(dp2827
g74
(dp2828
g94
g95
ssg83
g2822
sg76
(lp2829
S'SERVER_PORT'
p2830
asbag69
(g90
g71
NtRp2831
(dp2832
g74
(dp2833
g101
g102
ssg83
g2822
sg76
(lp2834
S':'
asbag69
(g90
g71
NtRp2835
(dp2836
g74
(dp2837
sg83
g2822
sg76
(lp2838
g69
(g70
g71
NtRp2839
(dp2840
g74
(dp2841
g82
I3
ssg83
g2835
sg76
(lp2842
g1428
asbasbasbag69
(g85
g71
NtRp2843
(dp2844
g74
(dp2845
sg83
g2461
sg76
(lp2846
g69
(g90
g71
NtRp2847
(dp2848
g74
(dp2849
g94
g95
ssg83
g2843
sg76
(lp2850
S'SERVER_PROTOCOL'
p2851
asbag69
(g90
g71
NtRp2852
(dp2853
g74
(dp2854
g101
g102
ssg83
g2843
sg76
(lp2855
S':'
asbag69
(g90
g71
NtRp2856
(dp2857
g74
(dp2858
sg83
g2843
sg76
(lp2859
g69
(g70
g71
NtRp2860
(dp2861
g74
(dp2862
g82
I3
ssg83
g2856
sg76
(lp2863
g1450
asbasbasbag69
(g85
g71
NtRp2864
(dp2865
g74
(dp2866
sg83
g2461
sg76
(lp2867
g69
(g90
g71
NtRp2868
(dp2869
g74
(dp2870
g94
g95
ssg83
g2864
sg76
(lp2871
S'SERVER_SOFTWARE'
p2872
asbag69
(g90
g71
NtRp2873
(dp2874
g74
(dp2875
g101
g102
ssg83
g2864
sg76
(lp2876
S':'
asbag69
(g90
g71
NtRp2877
(dp2878
g74
(dp2879
sg83
g2864
sg76
(lp2880
g69
(g70
g71
NtRp2881
(dp2882
g74
(dp2883
g82
I3
ssg83
g2877
sg76
(lp2884
g1472
asbasbasbag69
(g85
g71
NtRp2885
(dp2886
g74
(dp2887
sg83
g2461
sg76
(lp2888
g69
(g90
g71
NtRp2889
(dp2890
g74
(dp2891
g94
g95
ssg83
g2885
sg76
(lp2892
S'wsgi.errors'
p2893
asbag69
(g90
g71
NtRp2894
(dp2895
g74
(dp2896
g101
g102
ssg83
g2885
sg76
(lp2897
S':'
asbag69
(g90
g71
NtRp2898
(dp2899
g74
(dp2900
sg83
g2885
sg76
(lp2901
g69
(g70
g71
NtRp2902
(dp2903
g74
(dp2904
g82
I3
ssg83
g2898
sg76
(lp2905
S"<open file '<stderr>', mode 'w' at 0x0000000001E1E1E0>"
p2906
asbasbasbag69
(g85
g71
NtRp2907
(dp2908
g74
(dp2909
sg83
g2461
sg76
(lp2910
g69
(g90
g71
NtRp2911
(dp2912
g74
(dp2913
g94
g95
ssg83
g2907
sg76
(lp2914
S'wsgi.file_wrapper'
p2915
asbag69
(g90
g71
NtRp2916
(dp2917
g74
(dp2918
g101
g102
ssg83
g2907
sg76
(lp2919
S':'
asbag69
(g90
g71
NtRp2920
(dp2921
g74
(dp2922
sg83
g2907
sg76
(lp2923
g69
(g70
g71
NtRp2924
(dp2925
g74
(dp2926
g82
I3
ssg83
g2920
sg76
(lp2927
S'<class wsgiref.util.FileWrapper at 0x00000000032D2A08>'
p2928
asbasbasbag69
(g85
g71
NtRp2929
(dp2930
g74
(dp2931
sg83
g2461
sg76
(lp2932
g69
(g90
g71
NtRp2933
(dp2934
g74
(dp2935
g94
g95
ssg83
g2929
sg76
(lp2936
S'wsgi.input'
p2937
asbag69
(g90
g71
NtRp2938
(dp2939
g74
(dp2940
g101
g102
ssg83
g2929
sg76
(lp2941
S':'
asbag69
(g90
g71
NtRp2942
(dp2943
g74
(dp2944
sg83
g2929
sg76
(lp2945
g69
(g70
g71
NtRp2946
(dp2947
g74
(dp2948
g82
I3
ssg83
g2942
sg76
(lp2949
S'<cStringIO.StringO object at 0x000000000737EF48>'
p2950
asbasbasbag69
(g85
g71
NtRp2951
(dp2952
g74
(dp2953
sg83
g2461
sg76
(lp2954
g69
(g90
g71
NtRp2955
(dp2956
g74
(dp2957
g94
g95
ssg83
g2951
sg76
(lp2958
S'wsgi.multiprocess'
p2959
asbag69
(g90
g71
NtRp2960
(dp2961
g74
(dp2962
g101
g102
ssg83
g2951
sg76
(lp2963
S':'
asbag69
(g90
g71
NtRp2964
(dp2965
g74
(dp2966
sg83
g2951
sg76
(lp2967
g69
(g70
g71
NtRp2968
(dp2969
g74
(dp2970
g82
I3
ssg83
g2964
sg76
(lp2971
g112
asbasbasbag69
(g85
g71
NtRp2972
(dp2973
g74
(dp2974
sg83
g2461
sg76
(lp2975
g69
(g90
g71
NtRp2976
(dp2977
g74
(dp2978
g94
g95
ssg83
g2972
sg76
(lp2979
S'wsgi.multithread'
p2980
asbag69
(g90
g71
NtRp2981
(dp2982
g74
(dp2983
g101
g102
ssg83
g2972
sg76
(lp2984
S':'
asbag69
(g90
g71
NtRp2985
(dp2986
g74
(dp2987
sg83
g2972
sg76
(lp2988
g69
(g70
g71
NtRp2989
(dp2990
g74
(dp2991
g82
I3
ssg83
g2985
sg76
(lp2992
g1712
asbasbasbag69
(g85
g71
NtRp2993
(dp2994
g74
(dp2995
sg83
g2461
sg76
(lp2996
g69
(g90
g71
NtRp2997
(dp2998
g74
(dp2999
g94
g95
ssg83
g2993
sg76
(lp3000
S'wsgi.run_once'
p3001
asbag69
(g90
g71
NtRp3002
(dp3003
g74
(dp3004
g101
g102
ssg83
g2993
sg76
(lp3005
S':'
asbag69
(g90
g71
NtRp3006
(dp3007
g74
(dp3008
sg83
g2993
sg76
(lp3009
g69
(g70
g71
NtRp3010
(dp3011
g74
(dp3012
g82
I3
ssg83
g3006
sg76
(lp3013
g112
asbasbasbag69
(g85
g71
NtRp3014
(dp3015
g74
(dp3016
sg83
g2461
sg76
(lp3017
g69
(g90
g71
NtRp3018
(dp3019
g74
(dp3020
g94
g95
ssg83
g3014
sg76
(lp3021
S'wsgi.url_scheme'
p3022
asbag69
(g90
g71
NtRp3023
(dp3024
g74
(dp3025
g101
g102
ssg83
g3014
sg76
(lp3026
S':'
asbag69
(g90
g71
NtRp3027
(dp3028
g74
(dp3029
sg83
g3014
sg76
(lp3030
g69
(g70
g71
NtRp3031
(dp3032
g74
(dp3033
g82
I3
ssg83
g3027
sg76
(lp3034
g1755
asbasbasbag69
(g85
g71
NtRp3035
(dp3036
g74
(dp3037
sg83
g2461
sg76
(lp3038
g69
(g90
g71
NtRp3039
(dp3040
g74
(dp3041
g94
g95
ssg83
g3035
sg76
(lp3042
S'wsgi.version'
p3043
asbag69
(g90
g71
NtRp3044
(dp3045
g74
(dp3046
g101
g102
ssg83
g3035
sg76
(lp3047
S':'
asbag69
(g90
g71
NtRp3048
(dp3049
g74
(dp3050
sg83
g3035
sg76
(lp3051
g69
(g70
g71
NtRp3052
(dp3053
g74
(dp3054
g82
I3
ssg83
g3048
sg76
(lp3055
S'1'
asbasbasbasbasbasbasbasbasbasbasbasbasbsS'frames'
p3056
(lp3057
(dp3058
S'file'
p3059
S'C:\\webapps\\ben\\project\\web2py\\gluon\\restricted.py'
p3060
sS'dump'
p3061
(dp3062
S'code'
p3063
S'r"response.write(\'<!DOCTYPE html>\\n<!-- paulirish....ponse.write(\'\\n</body>\\n</html>\\n\', escape=False)"'
p3064
sS'layer'
p3065
S"r'C:\\webapps\\ben\\project\\web2py\\applications\\profile\\views\\default/index.html'"
p3066
sS'global compile2'
p3067
S'<function compile2>'
p3068
sS'ccode'
p3069
S'undefined'
p3070
ssS'lnum'
p3071
I203
sS'lines'
p3072
(dp3073
I198
S"    environment['__file__'] = layer"
p3074
sI199
S'    try:'
p3075
sI200
S'        if type(code) == types.CodeType:'
p3076
sI201
S'            ccode = code'
p3077
sI202
S'        else:'
p3078
sI203
S'            ccode = compile2(code,layer)'
p3079
sI204
S'        exec ccode in environment'
p3080
sI205
S'    except HTTP:'
p3081
sI206
S'        raise'
p3082
sI207
S'    except RestrictedError:'
p3083
ssS'call'
p3084
S'(code=r"response.write(\'<!DOCTYPE html>\\n<!-- paulirish....ponse.write(\'\\n</body>\\n</html>\\n\', escape=False)", environment={\'A\': <class \'gluon.html.A\'>, \'Auth\': <class \'gluon.tools.Auth\'>, \'B\': <class \'gluon.html.B\'>, \'BEAUTIFY\': <class \'gluon.html.BEAUTIFY\'>, \'BODY\': <class \'gluon.html.BODY\'>, \'BR\': <class \'gluon.html.BR\'>, \'BUTTON\': <class \'gluon.html.BUTTON\'>, \'CAT\': <class \'gluon.html.CAT\'>, \'CENTER\': <class \'gluon.html.CENTER\'>, \'CLEANUP\': <class \'gluon.validators.CLEANUP\'>, ...}, layer=r\'C:\\webapps\\ben\\project\\web2py\\applications\\profile\\views\\default/index.html\')'
p3085
sS'func'
p3086
S'restricted'
p3087
sa(dp3088
g3059
S'C:\\webapps\\ben\\project\\web2py\\gluon\\restricted.py'
p3089
sg3061
(dp3090
S'builtincompile'
p3091
S'<built-in function compile>'
p3092
sS'code'
p3093
S'r"response.write(\'<!DOCTYPE html>\\n<!-- paulirish....ponse.write(\'\\n</body>\\n</html>\\n\', escape=False)"'
p3094
sS'code.rstrip'
p3095
S'<built-in method rstrip of str object>'
p3096
sS').replace'
p3097
g3070
sS'layer'
p3098
S"r'C:\\webapps\\ben\\project\\web2py\\applications\\profile\\views\\default/index.html'"
p3099
ssg3071
I189
sg3072
(dp3100
I192
S'    """'
p3101
sI193
S'    runs code in environment and returns the output. if an exception occurs'
p3102
sI184
S''
sI185
S'def compile2(code,layer):'
p3103
sI186
S'    """'
p3104
sI187
S"    The +'\\n' is necessary else compile fails when code ends in a comment."
p3105
sI188
S'    """'
p3106
sI189
S"    return compile(code.rstrip().replace('\\r\\n','\\n')+'\\n', layer, 'exec')"
p3107
sI190
S''
sI191
S"def restricted(code, environment=None, layer='Unknown'):"
p3108
ssg3084
S'(code=r"response.write(\'<!DOCTYPE html>\\n<!-- paulirish....ponse.write(\'\\n</body>\\n</html>\\n\', escape=False)", layer=r\'C:\\webapps\\ben\\project\\web2py\\applications\\profile\\views\\default/index.html\')'
p3109
sg3086
S'compile2'
p3110
sasS'pyver'
p3111
S'Python 2.7.2: C:\\Python27\\python.exe'
p3112
sS'session'
p3113
g69
(g70
g71
NtRp3114
(dp3115
g74
(dp3116
sg76
(lp3117
g69
(g78
g71
NtRp3118
(dp3119
g74
(dp3120
g82
I5
ssg83
Nsg76
(lp3121
sbasbsS'etype'
p3122
S"<type 'exceptions.SyntaxError'>"
p3123
sS'date'
p3124
S'Thu Feb 02 16:17:40 2012'
p3125
sS'response'
p3126
g69
(g70
g71
NtRp3127
(dp3128
g74
(dp3129
sg76
(lp3130
g69
(g78
g71
NtRp3131
(dp3132
g74
(dp3133
g82
I5
ssg83
Nsg76
(lp3134
g69
(g85
g71
NtRp3135
(dp3136
g74
(dp3137
sg83
g3131
sg76
(lp3138
g69
(g90
g71
NtRp3139
(dp3140
g74
(dp3141
g94
g95
ssg83
g3135
sg76
(lp3142
g167
asbag69
(g90
g71
NtRp3143
(dp3144
g74
(dp3145
g101
g102
ssg83
g3135
sg76
(lp3146
S':'
asbag69
(g90
g71
NtRp3147
(dp3148
g74
(dp3149
sg83
g3135
sg76
(lp3150
g69
(g70
g71
NtRp3151
(dp3152
g74
(dp3153
g82
I5
ssg83
g3147
sg76
(lp3154
S'<cStringIO.StringO object at 0x00000000075D8308>'
p3155
asbasbasbag69
(g85
g71
NtRp3156
(dp3157
g74
(dp3158
sg83
g3131
sg76
(lp3159
g69
(g90
g71
NtRp3160
(dp3161
g74
(dp3162
g94
g95
ssg83
g3156
sg76
(lp3163
g233
asbag69
(g90
g71
NtRp3164
(dp3165
g74
(dp3166
g101
g102
ssg83
g3156
sg76
(lp3167
S':'
asbag69
(g90
g71
NtRp3168
(dp3169
g74
(dp3170
sg83
g3156
sg76
(lp3171
g69
(g70
g71
NtRp3172
(dp3173
g74
(dp3174
g82
I5
ssg83
g3168
sg76
(lp3175
g69
(g78
g71
NtRp3176
(dp3177
g74
(dp3178
g82
I4
ssg83
Nsg76
(lp3179
g69
(g85
g71
NtRp3180
(dp3181
g74
(dp3182
sg83
g3176
sg76
(lp3183
g69
(g90
g71
NtRp3184
(dp3185
g74
(dp3186
g94
g95
ssg83
g3180
sg76
(lp3187
S'session_id_profile'
p3188
asbag69
(g90
g71
NtRp3189
(dp3190
g74
(dp3191
g101
g102
ssg83
g3180
sg76
(lp3192
S':'
asbag69
(g90
g71
NtRp3193
(dp3194
g74
(dp3195
sg83
g3180
sg76
(lp3196
g69
(g70
g71
NtRp3197
(dp3198
g74
(dp3199
g82
I4
ssg83
g3193
sg76
(lp3200
g69
(g78
g71
NtRp3201
(dp3202
g74
(dp3203
g82
I3
ssg83
Nsg76
(lp3204
g69
(g85
g71
NtRp3205
(dp3206
g74
(dp3207
sg83
g3201
sg76
(lp3208
g69
(g90
g71
NtRp3209
(dp3210
g74
(dp3211
g94
g95
ssg83
g3205
sg76
(lp3212
g283
asbag69
(g90
g71
NtRp3213
(dp3214
g74
(dp3215
g101
g102
ssg83
g3205
sg76
(lp3216
S':'
asbag69
(g90
g71
NtRp3217
(dp3218
g74
(dp3219
sg83
g3205
sg76
(lp3220
g69
(g70
g71
NtRp3221
(dp3222
g74
(dp3223
g82
I3
ssg83
g3217
sg76
(lp3224
S''
asbasbasbag69
(g85
g71
NtRp3225
(dp3226
g74
(dp3227
sg83
g3201
sg76
(lp3228
g69
(g90
g71
NtRp3229
(dp3230
g74
(dp3231
g94
g95
ssg83
g3225
sg76
(lp3232
g304
asbag69
(g90
g71
NtRp3233
(dp3234
g74
(dp3235
g101
g102
ssg83
g3225
sg76
(lp3236
S':'
asbag69
(g90
g71
NtRp3237
(dp3238
g74
(dp3239
sg83
g3225
sg76
(lp3240
g69
(g70
g71
NtRp3241
(dp3242
g74
(dp3243
g82
I3
ssg83
g3237
sg76
(lp3244
S''
asbasbasbag69
(g85
g71
NtRp3245
(dp3246
g74
(dp3247
sg83
g3201
sg76
(lp3248
g69
(g90
g71
NtRp3249
(dp3250
g74
(dp3251
g94
g95
ssg83
g3245
sg76
(lp3252
g325
asbag69
(g90
g71
NtRp3253
(dp3254
g74
(dp3255
g101
g102
ssg83
g3245
sg76
(lp3256
S':'
asbag69
(g90
g71
NtRp3257
(dp3258
g74
(dp3259
sg83
g3245
sg76
(lp3260
g69
(g70
g71
NtRp3261
(dp3262
g74
(dp3263
g82
I3
ssg83
g3257
sg76
(lp3264
S''
asbasbasbag69
(g85
g71
NtRp3265
(dp3266
g74
(dp3267
sg83
g3201
sg76
(lp3268
g69
(g90
g71
NtRp3269
(dp3270
g74
(dp3271
g94
g95
ssg83
g3265
sg76
(lp3272
g346
asbag69
(g90
g71
NtRp3273
(dp3274
g74
(dp3275
g101
g102
ssg83
g3265
sg76
(lp3276
S':'
asbag69
(g90
g71
NtRp3277
(dp3278
g74
(dp3279
sg83
g3265
sg76
(lp3280
g69
(g70
g71
NtRp3281
(dp3282
g74
(dp3283
g82
I3
ssg83
g3277
sg76
(lp3284
S''
asbasbasbag69
(g85
g71
NtRp3285
(dp3286
g74
(dp3287
sg83
g3201
sg76
(lp3288
g69
(g90
g71
NtRp3289
(dp3290
g74
(dp3291
g94
g95
ssg83
g3285
sg76
(lp3292
g367
asbag69
(g90
g71
NtRp3293
(dp3294
g74
(dp3295
g101
g102
ssg83
g3285
sg76
(lp3296
S':'
asbag69
(g90
g71
NtRp3297
(dp3298
g74
(dp3299
sg83
g3285
sg76
(lp3300
g69
(g70
g71
NtRp3301
(dp3302
g74
(dp3303
g82
I3
ssg83
g3297
sg76
(lp3304
S''
asbasbasbag69
(g85
g71
NtRp3305
(dp3306
g74
(dp3307
sg83
g3201
sg76
(lp3308
g69
(g90
g71
NtRp3309
(dp3310
g74
(dp3311
g94
g95
ssg83
g3305
sg76
(lp3312
g388
asbag69
(g90
g71
NtRp3313
(dp3314
g74
(dp3315
g101
g102
ssg83
g3305
sg76
(lp3316
S':'
asbag69
(g90
g71
NtRp3317
(dp3318
g74
(dp3319
sg83
g3305
sg76
(lp3320
g69
(g70
g71
NtRp3321
(dp3322
g74
(dp3323
g82
I3
ssg83
g3317
sg76
(lp3324
S'/'
asbasbasbag69
(g85
g71
NtRp3325
(dp3326
g74
(dp3327
sg83
g3201
sg76
(lp3328
g69
(g90
g71
NtRp3329
(dp3330
g74
(dp3331
g94
g95
ssg83
g3325
sg76
(lp3332
g409
asbag69
(g90
g71
NtRp3333
(dp3334
g74
(dp3335
g101
g102
ssg83
g3325
sg76
(lp3336
S':'
asbag69
(g90
g71
NtRp3337
(dp3338
g74
(dp3339
sg83
g3325
sg76
(lp3340
g69
(g70
g71
NtRp3341
(dp3342
g74
(dp3343
g82
I3
ssg83
g3337
sg76
(lp3344
S''
asbasbasbag69
(g85
g71
NtRp3345
(dp3346
g74
(dp3347
sg83
g3201
sg76
(lp3348
g69
(g90
g71
NtRp3349
(dp3350
g74
(dp3351
g94
g95
ssg83
g3345
sg76
(lp3352
g430
asbag69
(g90
g71
NtRp3353
(dp3354
g74
(dp3355
g101
g102
ssg83
g3345
sg76
(lp3356
S':'
asbag69
(g90
g71
NtRp3357
(dp3358
g74
(dp3359
sg83
g3345
sg76
(lp3360
g69
(g70
g71
NtRp3361
(dp3362
g74
(dp3363
g82
I3
ssg83
g3357
sg76
(lp3364
S''
asbasbasbasbasbasbasbasbasbasbasbag69
(g85
g71
NtRp3365
(dp3366
g74
(dp3367
sg83
g3131
sg76
(lp3368
g69
(g90
g71
NtRp3369
(dp3370
g74
(dp3371
g94
g95
ssg83
g3365
sg76
(lp3372
S'files'
p3373
asbag69
(g90
g71
NtRp3374
(dp3375
g74
(dp3376
g101
g102
ssg83
g3365
sg76
(lp3377
S':'
asbag69
(g90
g71
NtRp3378
(dp3379
g74
(dp3380
sg83
g3365
sg76
(lp3381
g69
(g70
g71
NtRp3382
(dp3383
g74
(dp3384
g82
I5
ssg83
g3378
sg76
(lp3385
g69
(g78
g71
NtRp3386
(dp3387
g74
(dp3388
g82
I4
ssg83
Nsg76
(lp3389
sbasbasbasbag69
(g85
g71
NtRp3390
(dp3391
g74
(dp3392
sg83
g3131
sg76
(lp3393
g69
(g90
g71
NtRp3394
(dp3395
g74
(dp3396
g94
g95
ssg83
g3390
sg76
(lp3397
S'flash'
p3398
asbag69
(g90
g71
NtRp3399
(dp3400
g74
(dp3401
g101
g102
ssg83
g3390
sg76
(lp3402
S':'
asbag69
(g90
g71
NtRp3403
(dp3404
g74
(dp3405
sg83
g3390
sg76
(lp3406
g69
(g70
g71
NtRp3407
(dp3408
g74
(dp3409
g82
I5
ssg83
g3403
sg76
(lp3410
S'Welcome to web2py!'
p3411
asbasbasbag69
(g85
g71
NtRp3412
(dp3413
g74
(dp3414
sg83
g3131
sg76
(lp3415
g69
(g90
g71
NtRp3416
(dp3417
g74
(dp3418
g94
g95
ssg83
g3412
sg76
(lp3419
S'generic_patterns'
p3420
asbag69
(g90
g71
NtRp3421
(dp3422
g74
(dp3423
g101
g102
ssg83
g3412
sg76
(lp3424
S':'
asbag69
(g90
g71
NtRp3425
(dp3426
g74
(dp3427
sg83
g3412
sg76
(lp3428
g69
(g70
g71
NtRp3429
(dp3430
g74
(dp3431
g82
I5
ssg83
g3425
sg76
(lp3432
g69
(g78
g71
NtRp3433
(dp3434
g74
(dp3435
g82
I4
ssg83
Nsg76
(lp3436
g69
(g85
g71
NtRp3437
(dp3438
g74
(dp3439
sg83
g3433
sg76
(lp3440
g69
(g90
g71
NtRp3441
(dp3442
g74
(dp3443
sg83
g3437
sg76
(lp3444
g69
(g70
g71
NtRp3445
(dp3446
g74
(dp3447
g82
I4
ssg83
g3441
sg76
(lp3448
S'*'
asbasbasbasbasbasbasbag69
(g85
g71
NtRp3449
(dp3450
g74
(dp3451
sg83
g3131
sg76
(lp3452
g69
(g90
g71
NtRp3453
(dp3454
g74
(dp3455
g94
g95
ssg83
g3449
sg76
(lp3456
S'headers'
p3457
asbag69
(g90
g71
NtRp3458
(dp3459
g74
(dp3460
g101
g102
ssg83
g3449
sg76
(lp3461
S':'
asbag69
(g90
g71
NtRp3462
(dp3463
g74
(dp3464
sg83
g3449
sg76
(lp3465
g69
(g70
g71
NtRp3466
(dp3467
g74
(dp3468
g82
I5
ssg83
g3462
sg76
(lp3469
g69
(g78
g71
NtRp3470
(dp3471
g74
(dp3472
g82
I4
ssg83
Nsg76
(lp3473
g69
(g85
g71
NtRp3474
(dp3475
g74
(dp3476
sg83
g3470
sg76
(lp3477
g69
(g90
g71
NtRp3478
(dp3479
g74
(dp3480
g94
g95
ssg83
g3474
sg76
(lp3481
S'Cache-Control'
p3482
asbag69
(g90
g71
NtRp3483
(dp3484
g74
(dp3485
g101
g102
ssg83
g3474
sg76
(lp3486
S':'
asbag69
(g90
g71
NtRp3487
(dp3488
g74
(dp3489
sg83
g3474
sg76
(lp3490
g69
(g70
g71
NtRp3491
(dp3492
g74
(dp3493
g82
I4
ssg83
g3487
sg76
(lp3494
S'no-store, no-cache, must-revalidate, post-check=0, pre-check=0'
p3495
asbasbasbag69
(g85
g71
NtRp3496
(dp3497
g74
(dp3498
sg83
g3470
sg76
(lp3499
g69
(g90
g71
NtRp3500
(dp3501
g74
(dp3502
g94
g95
ssg83
g3496
sg76
(lp3503
S'Content-Type'
p3504
asbag69
(g90
g71
NtRp3505
(dp3506
g74
(dp3507
g101
g102
ssg83
g3496
sg76
(lp3508
S':'
asbag69
(g90
g71
NtRp3509
(dp3510
g74
(dp3511
sg83
g3496
sg76
(lp3512
g69
(g70
g71
NtRp3513
(dp3514
g74
(dp3515
g82
I4
ssg83
g3509
sg76
(lp3516
S'text/html; charset=utf-8'
p3517
asbasbasbag69
(g85
g71
NtRp3518
(dp3519
g74
(dp3520
sg83
g3470
sg76
(lp3521
g69
(g90
g71
NtRp3522
(dp3523
g74
(dp3524
g94
g95
ssg83
g3518
sg76
(lp3525
S'Expires'
p3526
asbag69
(g90
g71
NtRp3527
(dp3528
g74
(dp3529
g101
g102
ssg83
g3518
sg76
(lp3530
S':'
asbag69
(g90
g71
NtRp3531
(dp3532
g74
(dp3533
sg83
g3518
sg76
(lp3534
g69
(g70
g71
NtRp3535
(dp3536
g74
(dp3537
g82
I4
ssg83
g3531
sg76
(lp3538
S'Thu, 02 Feb 2012 05:17:40 GMT'
p3539
asbasbasbag69
(g85
g71
NtRp3540
(dp3541
g74
(dp3542
sg83
g3470
sg76
(lp3543
g69
(g90
g71
NtRp3544
(dp3545
g74
(dp3546
g94
g95
ssg83
g3540
sg76
(lp3547
S'Pragma'
p3548
asbag69
(g90
g71
NtRp3549
(dp3550
g74
(dp3551
g101
g102
ssg83
g3540
sg76
(lp3552
S':'
asbag69
(g90
g71
NtRp3553
(dp3554
g74
(dp3555
sg83
g3540
sg76
(lp3556
g69
(g70
g71
NtRp3557
(dp3558
g74
(dp3559
g82
I4
ssg83
g3553
sg76
(lp3560
S'no-cache'
p3561
asbasbasbag69
(g85
g71
NtRp3562
(dp3563
g74
(dp3564
sg83
g3470
sg76
(lp3565
g69
(g90
g71
NtRp3566
(dp3567
g74
(dp3568
g94
g95
ssg83
g3562
sg76
(lp3569
S'X-Powered-By'
p3570
asbag69
(g90
g71
NtRp3571
(dp3572
g74
(dp3573
g101
g102
ssg83
g3562
sg76
(lp3574
S':'
asbag69
(g90
g71
NtRp3575
(dp3576
g74
(dp3577
sg83
g3562
sg76
(lp3578
g69
(g70
g71
NtRp3579
(dp3580
g74
(dp3581
g82
I4
ssg83
g3575
sg76
(lp3582
S'web2py'
p3583
asbasbasbasbasbasbasbag69
(g85
g71
NtRp3584
(dp3585
g74
(dp3586
sg83
g3131
sg76
(lp3587
g69
(g90
g71
NtRp3588
(dp3589
g74
(dp3590
g94
g95
ssg83
g3584
sg76
(lp3591
S'menu'
p3592
asbag69
(g90
g71
NtRp3593
(dp3594
g74
(dp3595
g101
g102
ssg83
g3584
sg76
(lp3596
S':'
asbag69
(g90
g71
NtRp3597
(dp3598
g74
(dp3599
sg83
g3584
sg76
(lp3600
g69
(g70
g71
NtRp3601
(dp3602
g74
(dp3603
g82
I5
ssg83
g3597
sg76
(lp3604
g69
(g78
g71
NtRp3605
(dp3606
g74
(dp3607
g82
I4
ssg83
Nsg76
(lp3608
g69
(g85
g71
NtRp3609
(dp3610
g74
(dp3611
sg83
g3605
sg76
(lp3612
g69
(g90
g71
NtRp3613
(dp3614
g74
(dp3615
sg83
g3609
sg76
(lp3616
g69
(g70
g71
NtRp3617
(dp3618
g74
(dp3619
g82
I4
ssg83
g3613
sg76
(lp3620
g69
(g78
g71
NtRp3621
(dp3622
g74
(dp3623
g82
I3
ssg83
Nsg76
(lp3624
g69
(g85
g71
NtRp3625
(dp3626
g74
(dp3627
sg83
g3621
sg76
(lp3628
g69
(g90
g71
NtRp3629
(dp3630
g74
(dp3631
sg83
g3625
sg76
(lp3632
g69
(g70
g71
NtRp3633
(dp3634
g74
(dp3635
g82
I3
ssg83
g3629
sg76
(lp3636
cgluon.languages
lazyT_unpickle
p3637
(S't\x04\x00\x00\x00Home'
tRp3638
asbasbasbag69
(g85
g71
NtRp3639
(dp3640
g74
(dp3641
sg83
g3621
sg76
(lp3642
g69
(g90
g71
NtRp3643
(dp3644
g74
(dp3645
sg83
g3639
sg76
(lp3646
g69
(g70
g71
NtRp3647
(dp3648
g74
(dp3649
g82
I3
ssg83
g3643
sg76
(lp3650
g112
asbasbasbag69
(g85
g71
NtRp3651
(dp3652
g74
(dp3653
sg83
g3621
sg76
(lp3654
g69
(g90
g71
NtRp3655
(dp3656
g74
(dp3657
sg83
g3651
sg76
(lp3658
g69
(g70
g71
NtRp3659
(dp3660
g74
(dp3661
g82
I3
ssg83
g3655
sg76
(lp3662
S'/profile/default/index'
p3663
asbasbasbag69
(g85
g71
NtRp3664
(dp3665
g74
(dp3666
sg83
g3621
sg76
(lp3667
g69
(g90
g71
NtRp3668
(dp3669
g74
(dp3670
sg83
g3664
sg76
(lp3671
g69
(g70
g71
NtRp3672
(dp3673
g74
(dp3674
g82
I3
ssg83
g3668
sg76
(lp3675
g69
(g78
g71
NtRp3676
(dp3677
g74
(dp3678
g82
I2
ssg83
Nsg76
(lp3679
sbasbasbasbasbasbasbasbag69
(g85
g71
NtRp3680
(dp3681
g74
(dp3682
sg83
g3605
sg76
(lp3683
g69
(g90
g71
NtRp3684
(dp3685
g74
(dp3686
sg83
g3680
sg76
(lp3687
g69
(g70
g71
NtRp3688
(dp3689
g74
(dp3690
g82
I4
ssg83
g3684
sg76
(lp3691
g69
(g78
g71
NtRp3692
(dp3693
g74
(dp3694
g82
I3
ssg83
Nsg76
(lp3695
g69
(g85
g71
NtRp3696
(dp3697
g74
(dp3698
sg83
g3692
sg76
(lp3699
g69
(g90
g71
NtRp3700
(dp3701
g74
(dp3702
sg83
g3696
sg76
(lp3703
g69
(g70
g71
NtRp3704
(dp3705
g74
(dp3706
g82
I3
ssg83
g3700
sg76
(lp3707
g69
(cgluon.html
SPAN
p3708
g71
NtRp3709
(dp3710
g74
(dp3711
g94
S'color:yellow'
p3712
ssg83
Nsg76
(lp3713
g3583
asbasbasbasbag69
(g85
g71
NtRp3714
(dp3715
g74
(dp3716
sg83
g3692
sg76
(lp3717
g69
(g90
g71
NtRp3718
(dp3719
g74
(dp3720
sg83
g3714
sg76
(lp3721
g69
(g70
g71
NtRp3722
(dp3723
g74
(dp3724
g82
I3
ssg83
g3718
sg76
(lp3725
g112
asbasbasbag69
(g85
g71
NtRp3726
(dp3727
g74
(dp3728
sg83
g3692
sg76
(lp3729
g69
(g90
g71
NtRp3730
(dp3731
g74
(dp3732
sg83
g3726
sg76
(lp3733
g69
(g70
g71
NtRp3734
(dp3735
g74
(dp3736
g82
I3
ssg83
g3730
sg76
(lp3737
S'None'
p3738
asbasbasbag69
(g85
g71
NtRp3739
(dp3740
g74
(dp3741
sg83
g3692
sg76
(lp3742
g69
(g90
g71
NtRp3743
(dp3744
g74
(dp3745
sg83
g3739
sg76
(lp3746
g69
(g70
g71
NtRp3747
(dp3748
g74
(dp3749
g82
I3
ssg83
g3743
sg76
(lp3750
g69
(g78
g71
NtRp3751
(dp3752
g74
(dp3753
g82
I2
ssg83
Nsg76
(lp3754
g69
(g85
g71
NtRp3755
(dp3756
g74
(dp3757
sg83
g3751
sg76
(lp3758
g69
(g90
g71
NtRp3759
(dp3760
g74
(dp3761
sg83
g3755
sg76
(lp3762
g69
(g70
g71
NtRp3763
(dp3764
g74
(dp3765
g82
I2
ssg83
g3759
sg76
(lp3766
g69
(g78
g71
NtRp3767
(dp3768
g74
(dp3769
g82
I1
ssg83
Nsg76
(lp3770
g69
(g85
g71
NtRp3771
(dp3772
g74
(dp3773
sg83
g3767
sg76
(lp3774
g69
(g90
g71
NtRp3775
(dp3776
g74
(dp3777
sg83
g3771
sg76
(lp3778
g69
(g70
g71
NtRp3779
(dp3780
g74
(dp3781
g82
I1
ssg83
g3775
sg76
(lp3782
g3637
(S's\x08\x00\x00\x00My Sites'
tRp3783
asbasbasbag69
(g85
g71
NtRp3784
(dp3785
g74
(dp3786
sg83
g3767
sg76
(lp3787
g69
(g90
g71
NtRp3788
(dp3789
g74
(dp3790
sg83
g3784
sg76
(lp3791
g69
(g70
g71
NtRp3792
(dp3793
g74
(dp3794
g82
I1
ssg83
g3788
sg76
(lp3795
I00
asbasbasbag69
(g85
g71
NtRp3796
(dp3797
g74
(dp3798
sg83
g3767
sg76
(lp3799
g69
(g90
g71
NtRp3800
(dp3801
g74
(dp3802
sg83
g3796
sg76
(lp3803
g69
(g70
g71
NtRp3804
(dp3805
g74
(dp3806
g82
I1
ssg83
g3800
sg76
(lp3807
S'/admin/default/site'
p3808
asbasbasbasbasbasbasbag69
(g85
g71
NtRp3809
(dp3810
g74
(dp3811
sg83
g3751
sg76
(lp3812
g69
(g90
g71
NtRp3813
(dp3814
g74
(dp3815
sg83
g3809
sg76
(lp3816
g69
(g70
g71
NtRp3817
(dp3818
g74
(dp3819
g82
I2
ssg83
g3813
sg76
(lp3820
g69
(g78
g71
NtRp3821
(dp3822
g74
(dp3823
g82
I1
ssg83
Nsg76
(lp3824
g69
(g85
g71
NtRp3825
(dp3826
g74
(dp3827
sg83
g3821
sg76
(lp3828
g69
(g90
g71
NtRp3829
(dp3830
g74
(dp3831
sg83
g3825
sg76
(lp3832
g69
(g70
g71
NtRp3833
(dp3834
g74
(dp3835
g82
I1
ssg83
g3829
sg76
(lp3836
g3637
(S's\x08\x00\x00\x00This App'
tRp3837
asbasbasbag69
(g85
g71
NtRp3838
(dp3839
g74
(dp3840
sg83
g3821
sg76
(lp3841
g69
(g90
g71
NtRp3842
(dp3843
g74
(dp3844
sg83
g3838
sg76
(lp3845
g69
(g70
g71
NtRp3846
(dp3847
g74
(dp3848
g82
I1
ssg83
g3842
sg76
(lp3849
I00
asbasbasbag69
(g85
g71
NtRp3850
(dp3851
g74
(dp3852
sg83
g3821
sg76
(lp3853
g69
(g90
g71
NtRp3854
(dp3855
g74
(dp3856
sg83
g3850
sg76
(lp3857
g69
(g70
g71
NtRp3858
(dp3859
g74
(dp3860
g82
I1
ssg83
g3854
sg76
(lp3861
S'/admin/default/design/profile'
p3862
asbasbasbag69
(g85
g71
NtRp3863
(dp3864
g74
(dp3865
sg83
g3821
sg76
(lp3866
g69
(g90
g71
NtRp3867
(dp3868
g74
(dp3869
sg83
g3863
sg76
(lp3870
g69
(g70
g71
NtRp3871
(dp3872
g74
(dp3873
g82
I1
ssg83
g3867
sg76
(lp3874
(lp3875
(g3637
(S't\n\x00\x00\x00Controller'
tRp3876
I00
S'/admin/default/edit/profile/controllers/default.py'
tp3877
a(g3637
(S't\x04\x00\x00\x00View'
tRp3878
I00
S'/admin/default/edit/profile/views/default/index.html'
tp3879
a(g3637
(S't\x06\x00\x00\x00Layout'
tRp3880
I00
S'/admin/default/edit/profile/views/layout.html'
tp3881
a(g3637
(S't\n\x00\x00\x00Stylesheet'
tRp3882
I00
S'/admin/default/edit/profile/static/css/web2py.css'
tp3883
a(g3637
(S's\x08\x00\x00\x00DB Model'
tRp3884
I00
S'/admin/default/edit/profile/models/db.py'
tp3885
a(g3637
(S's\n\x00\x00\x00Menu Model'
tRp3886
I00
S'/admin/default/edit/profile/models/menu.py'
tp3887
a(g3637
(S't\x08\x00\x00\x00Database'
tRp3888
I00
S'/profile/appadmin/index'
tp3889
a(g3637
(S't\x06\x00\x00\x00Errors'
tRp3890
I00
S'/admin/default/errors/profile'
tp3891
a(g3637
(S't\x05\x00\x00\x00About'
tRp3892
I00
S'/admin/default/about/profile'
tp3893
aasbasbasbasbasbasbasbag69
(g85
g71
NtRp3894
(dp3895
g74
(dp3896
sg83
g3751
sg76
(lp3897
g69
(g90
g71
NtRp3898
(dp3899
g74
(dp3900
sg83
g3894
sg76
(lp3901
g69
(g70
g71
NtRp3902
(dp3903
g74
(dp3904
g82
I2
ssg83
g3898
sg76
(lp3905
g69
(g78
g71
NtRp3906
(dp3907
g74
(dp3908
g82
I1
ssg83
Nsg76
(lp3909
g69
(g85
g71
NtRp3910
(dp3911
g74
(dp3912
sg83
g3906
sg76
(lp3913
g69
(g90
g71
NtRp3914
(dp3915
g74
(dp3916
sg83
g3910
sg76
(lp3917
g69
(g70
g71
NtRp3918
(dp3919
g74
(dp3920
g82
I1
ssg83
g3914
sg76
(lp3921
S'web2py.com'
p3922
asbasbasbag69
(g85
g71
NtRp3923
(dp3924
g74
(dp3925
sg83
g3906
sg76
(lp3926
g69
(g90
g71
NtRp3927
(dp3928
g74
(dp3929
sg83
g3923
sg76
(lp3930
g69
(g70
g71
NtRp3931
(dp3932
g74
(dp3933
g82
I1
ssg83
g3927
sg76
(lp3934
I00
asbasbasbag69
(g85
g71
NtRp3935
(dp3936
g74
(dp3937
sg83
g3906
sg76
(lp3938
g69
(g90
g71
NtRp3939
(dp3940
g74
(dp3941
sg83
g3935
sg76
(lp3942
g69
(g70
g71
NtRp3943
(dp3944
g74
(dp3945
g82
I1
ssg83
g3939
sg76
(lp3946
S'http://www.web2py.com'
p3947
asbasbasbag69
(g85
g71
NtRp3948
(dp3949
g74
(dp3950
sg83
g3906
sg76
(lp3951
g69
(g90
g71
NtRp3952
(dp3953
g74
(dp3954
sg83
g3948
sg76
(lp3955
g69
(g70
g71
NtRp3956
(dp3957
g74
(dp3958
g82
I1
ssg83
g3952
sg76
(lp3959
(lp3960
(g3637
(S't\x08\x00\x00\x00Download'
tRp3961
I00
S'http://www.web2py.com/examples/default/download'
p3962
tp3963
a(g3637
(S't\x07\x00\x00\x00Support'
tRp3964
I00
S'http://www.web2py.com/examples/default/support'
p3965
tp3966
a(g3637
(S't\x04\x00\x00\x00Demo'
tRp3967
I00
S'http://web2py.com/demo_admin'
p3968
tp3969
a(g3637
(S's\x0e\x00\x00\x00Quick Examples'
tRp3970
I00
S'http://web2py.com/examples/default/examples'
p3971
tp3972
a(g3637
(S't\x03\x00\x00\x00FAQ'
tRp3973
I00
S'http://web2py.com/AlterEgo'
p3974
tp3975
a(g3637
(S't\x06\x00\x00\x00Videos'
tRp3976
I00
S'http://www.web2py.com/examples/default/videos/'
p3977
tp3978
a(g3637
(S's\x11\x00\x00\x00Free Applications'
tRp3979
I00
S'http://web2py.com/appliances'
p3980
tp3981
a(g3637
(S't\x07\x00\x00\x00Plugins'
tRp3982
I00
S'http://web2py.com/plugins'
p3983
tp3984
a(g3637
(S't\x07\x00\x00\x00Layouts'
tRp3985
I00
S'http://web2py.com/layouts'
p3986
tp3987
a(g3637
(S't\x07\x00\x00\x00Recipes'
tRp3988
I00
S'http://web2pyslices.com/'
p3989
tp3990
a(g3637
(S't\x08\x00\x00\x00Semantic'
tRp3991
I00
S'http://web2py.com/semantic'
p3992
tp3993
aasbasbasbasbasbasbasbag69
(g85
g71
NtRp3994
(dp3995
g74
(dp3996
sg83
g3751
sg76
(lp3997
g69
(g90
g71
NtRp3998
(dp3999
g74
(dp4000
sg83
g3994
sg76
(lp4001
g69
(g70
g71
NtRp4002
(dp4003
g74
(dp4004
g82
I2
ssg83
g3998
sg76
(lp4005
g69
(g78
g71
NtRp4006
(dp4007
g74
(dp4008
g82
I1
ssg83
Nsg76
(lp4009
g69
(g85
g71
NtRp4010
(dp4011
g74
(dp4012
sg83
g4006
sg76
(lp4013
g69
(g90
g71
NtRp4014
(dp4015
g74
(dp4016
sg83
g4010
sg76
(lp4017
g69
(g70
g71
NtRp4018
(dp4019
g74
(dp4020
g82
I1
ssg83
g4014
sg76
(lp4021
g3637
(S't\r\x00\x00\x00Documentation'
tRp4022
asbasbasbag69
(g85
g71
NtRp4023
(dp4024
g74
(dp4025
sg83
g4006
sg76
(lp4026
g69
(g90
g71
NtRp4027
(dp4028
g74
(dp4029
sg83
g4023
sg76
(lp4030
g69
(g70
g71
NtRp4031
(dp4032
g74
(dp4033
g82
I1
ssg83
g4027
sg76
(lp4034
I00
asbasbasbag69
(g85
g71
NtRp4035
(dp4036
g74
(dp4037
sg83
g4006
sg76
(lp4038
g69
(g90
g71
NtRp4039
(dp4040
g74
(dp4041
sg83
g4035
sg76
(lp4042
g69
(g70
g71
NtRp4043
(dp4044
g74
(dp4045
g82
I1
ssg83
g4039
sg76
(lp4046
S'http://www.web2py.com/book'
p4047
asbasbasbag69
(g85
g71
NtRp4048
(dp4049
g74
(dp4050
sg83
g4006
sg76
(lp4051
g69
(g90
g71
NtRp4052
(dp4053
g74
(dp4054
sg83
g4048
sg76
(lp4055
g69
(g70
g71
NtRp4056
(dp4057
g74
(dp4058
g82
I1
ssg83
g4052
sg76
(lp4059
(lp4060
(g3637
(S't\x07\x00\x00\x00Preface'
tRp4061
I00
S'http://www.web2py.com/book/default/chapter/00'
p4062
tp4063
a(g3637
(S't\x0c\x00\x00\x00Introduction'
tRp4064
I00
S'http://www.web2py.com/book/default/chapter/01'
p4065
tp4066
a(g3637
(S't\x06\x00\x00\x00Python'
tRp4067
I00
S'http://www.web2py.com/book/default/chapter/02'
p4068
tp4069
a(g3637
(S't\x08\x00\x00\x00Overview'
tRp4070
I00
S'http://www.web2py.com/book/default/chapter/03'
p4071
tp4072
a(g3637
(S's\x08\x00\x00\x00The Core'
tRp4073
I00
S'http://www.web2py.com/book/default/chapter/04'
p4074
tp4075
a(g3637
(S's\t\x00\x00\x00The Views'
tRp4076
I00
S'http://www.web2py.com/book/default/chapter/05'
p4077
tp4078
a(g3637
(S't\x08\x00\x00\x00Database'
tRp4079
I00
S'http://www.web2py.com/book/default/chapter/06'
p4080
tp4081
a(g3637
(S's\x14\x00\x00\x00Forms and Validators'
tRp4082
I00
S'http://www.web2py.com/book/default/chapter/07'
p4083
tp4084
a(g3637
(S's\r\x00\x00\x00Email and SMS'
tRp4085
I00
S'http://www.web2py.com/book/default/chapter/08'
p4086
tp4087
a(g3637
(S's\x0e\x00\x00\x00Access Control'
tRp4088
I00
S'http://www.web2py.com/book/default/chapter/09'
p4089
tp4090
a(g3637
(S't\x08\x00\x00\x00Services'
tRp4091
I00
S'http://www.web2py.com/book/default/chapter/10'
p4092
tp4093
a(g3637
(S's\x0c\x00\x00\x00Ajax Recipes'
tRp4094
I00
S'http://www.web2py.com/book/default/chapter/11'
p4095
tp4096
a(g3637
(S's\x16\x00\x00\x00Components and Plugins'
tRp4097
I00
S'http://www.web2py.com/book/default/chapter/12'
p4098
tp4099
a(g3637
(S's\x12\x00\x00\x00Deployment Recipes'
tRp4100
I00
S'http://www.web2py.com/book/default/chapter/13'
p4101
tp4102
a(g3637
(S's\r\x00\x00\x00Other Recipes'
tRp4103
I00
S'http://www.web2py.com/book/default/chapter/14'
p4104
tp4105
a(g3637
(S's\r\x00\x00\x00Buy this book'
tRp4106
I00
S'http://stores.lulu.com/web2py'
p4107
tp4108
aasbasbasbasbasbasbasbag69
(g85
g71
NtRp4109
(dp4110
g74
(dp4111
sg83
g3751
sg76
(lp4112
g69
(g90
g71
NtRp4113
(dp4114
g74
(dp4115
sg83
g4109
sg76
(lp4116
g69
(g70
g71
NtRp4117
(dp4118
g74
(dp4119
g82
I2
ssg83
g4113
sg76
(lp4120
g69
(g78
g71
NtRp4121
(dp4122
g74
(dp4123
g82
I1
ssg83
Nsg76
(lp4124
g69
(g85
g71
NtRp4125
(dp4126
g74
(dp4127
sg83
g4121
sg76
(lp4128
g69
(g90
g71
NtRp4129
(dp4130
g74
(dp4131
sg83
g4125
sg76
(lp4132
g69
(g70
g71
NtRp4133
(dp4134
g74
(dp4135
g82
I1
ssg83
g4129
sg76
(lp4136
g3637
(S't\t\x00\x00\x00Community'
tRp4137
asbasbasbag69
(g85
g71
NtRp4138
(dp4139
g74
(dp4140
sg83
g4121
sg76
(lp4141
g69
(g90
g71
NtRp4142
(dp4143
g74
(dp4144
sg83
g4138
sg76
(lp4145
g69
(g70
g71
NtRp4146
(dp4147
g74
(dp4148
g82
I1
ssg83
g4142
sg76
(lp4149
I00
asbasbasbag69
(g85
g71
NtRp4150
(dp4151
g74
(dp4152
sg83
g4121
sg76
(lp4153
g69
(g90
g71
NtRp4154
(dp4155
g74
(dp4156
sg83
g4150
sg76
(lp4157
g69
(g70
g71
NtRp4158
(dp4159
g74
(dp4160
g82
I1
ssg83
g4154
sg76
(lp4161
Nasbasbasbag69
(g85
g71
NtRp4162
(dp4163
g74
(dp4164
sg83
g4121
sg76
(lp4165
g69
(g90
g71
NtRp4166
(dp4167
g74
(dp4168
sg83
g4162
sg76
(lp4169
g69
(g70
g71
NtRp4170
(dp4171
g74
(dp4172
g82
I1
ssg83
g4166
sg76
(lp4173
(lp4174
(g3637
(S't\x06\x00\x00\x00Groups'
tRp4175
I00
S'http://www.web2py.com/examples/default/usergroups'
p4176
tp4177
a(g3637
(S't\x07\x00\x00\x00Twitter'
tRp4178
I00
S'http://twitter.com/web2py'
p4179
tp4180
a(g3637
(S's\t\x00\x00\x00Live Chat'
tRp4181
I00
S'http://webchat.freenode.net/?channels=web2py'
p4182
tp4183
aasbasbasbasbasbasbasbag69
(g85
g71
NtRp4184
(dp4185
g74
(dp4186
sg83
g3751
sg76
(lp4187
g69
(g90
g71
NtRp4188
(dp4189
g74
(dp4190
sg83
g4184
sg76
(lp4191
g69
(g70
g71
NtRp4192
(dp4193
g74
(dp4194
g82
I2
ssg83
g4188
sg76
(lp4195
g69
(g78
g71
NtRp4196
(dp4197
g74
(dp4198
g82
I1
ssg83
Nsg76
(lp4199
g69
(g85
g71
NtRp4200
(dp4201
g74
(dp4202
sg83
g4196
sg76
(lp4203
g69
(g90
g71
NtRp4204
(dp4205
g74
(dp4206
sg83
g4200
sg76
(lp4207
g69
(g70
g71
NtRp4208
(dp4209
g74
(dp4210
g82
I1
ssg83
g4204
sg76
(lp4211
g3637
(S't\x07\x00\x00\x00Plugins'
tRp4212
asbasbasbag69
(g85
g71
NtRp4213
(dp4214
g74
(dp4215
sg83
g4196
sg76
(lp4216
g69
(g90
g71
NtRp4217
(dp4218
g74
(dp4219
sg83
g4213
sg76
(lp4220
g69
(g70
g71
NtRp4221
(dp4222
g74
(dp4223
g82
I1
ssg83
g4217
sg76
(lp4224
I00
asbasbasbag69
(g85
g71
NtRp4225
(dp4226
g74
(dp4227
sg83
g4196
sg76
(lp4228
g69
(g90
g71
NtRp4229
(dp4230
g74
(dp4231
sg83
g4225
sg76
(lp4232
g69
(g70
g71
NtRp4233
(dp4234
g74
(dp4235
g82
I1
ssg83
g4229
sg76
(lp4236
Nasbasbasbag69
(g85
g71
NtRp4237
(dp4238
g74
(dp4239
sg83
g4196
sg76
(lp4240
g69
(g90
g71
NtRp4241
(dp4242
g74
(dp4243
sg83
g4237
sg76
(lp4244
g69
(g70
g71
NtRp4245
(dp4246
g74
(dp4247
g82
I1
ssg83
g4241
sg76
(lp4248
(lp4249
(S'plugin_wiki'
p4250
I00
S'http://web2py.com/examples/default/download'
p4251
tp4252
a(g3637
(S's\r\x00\x00\x00Other Plugins'
tRp4253
I00
g3983
tp4254
a(g3637
(S's\x0e\x00\x00\x00Layout Plugins'
tRp4255
I00
g3986
tp4256
aasbasbasbasbasbasbasbasbasbasbasbasbasbasbasbasbasbasbasbag69
(g85
g71
NtRp4257
(dp4258
g74
(dp4259
sg83
g3131
sg76
(lp4260
g69
(g90
g71
NtRp4261
(dp4262
g74
(dp4263
g94
g95
ssg83
g4257
sg76
(lp4264
S'meta'
p4265
asbag69
(g90
g71
NtRp4266
(dp4267
g74
(dp4268
g101
g102
ssg83
g4257
sg76
(lp4269
S':'
asbag69
(g90
g71
NtRp4270
(dp4271
g74
(dp4272
sg83
g4257
sg76
(lp4273
g69
(g70
g71
NtRp4274
(dp4275
g74
(dp4276
g82
I5
ssg83
g4270
sg76
(lp4277
g69
(g78
g71
NtRp4278
(dp4279
g74
(dp4280
g82
I4
ssg83
Nsg76
(lp4281
g69
(g85
g71
NtRp4282
(dp4283
g74
(dp4284
sg83
g4278
sg76
(lp4285
g69
(g90
g71
NtRp4286
(dp4287
g74
(dp4288
g94
g95
ssg83
g4282
sg76
(lp4289
S'author'
p4290
asbag69
(g90
g71
NtRp4291
(dp4292
g74
(dp4293
g101
g102
ssg83
g4282
sg76
(lp4294
S':'
asbag69
(g90
g71
NtRp4295
(dp4296
g74
(dp4297
sg83
g4282
sg76
(lp4298
g69
(g70
g71
NtRp4299
(dp4300
g74
(dp4301
g82
I4
ssg83
g4295
sg76
(lp4302
S'Your Name <you@example.com>'
p4303
asbasbasbag69
(g85
g71
NtRp4304
(dp4305
g74
(dp4306
sg83
g4278
sg76
(lp4307
g69
(g90
g71
NtRp4308
(dp4309
g74
(dp4310
g94
g95
ssg83
g4304
sg76
(lp4311
S'copyright'
p4312
asbag69
(g90
g71
NtRp4313
(dp4314
g74
(dp4315
g101
g102
ssg83
g4304
sg76
(lp4316
S':'
asbag69
(g90
g71
NtRp4317
(dp4318
g74
(dp4319
sg83
g4304
sg76
(lp4320
g69
(g70
g71
NtRp4321
(dp4322
g74
(dp4323
g82
I4
ssg83
g4317
sg76
(lp4324
S'Copyright 2011'
p4325
asbasbasbag69
(g85
g71
NtRp4326
(dp4327
g74
(dp4328
sg83
g4278
sg76
(lp4329
g69
(g90
g71
NtRp4330
(dp4331
g74
(dp4332
g94
g95
ssg83
g4326
sg76
(lp4333
S'description'
p4334
asbag69
(g90
g71
NtRp4335
(dp4336
g74
(dp4337
g101
g102
ssg83
g4326
sg76
(lp4338
S':'
asbag69
(g90
g71
NtRp4339
(dp4340
g74
(dp4341
sg83
g4326
sg76
(lp4342
g69
(g70
g71
NtRp4343
(dp4344
g74
(dp4345
g82
I4
ssg83
g4339
sg76
(lp4346
S'a cool new app'
p4347
asbasbasbag69
(g85
g71
NtRp4348
(dp4349
g74
(dp4350
sg83
g4278
sg76
(lp4351
g69
(g90
g71
NtRp4352
(dp4353
g74
(dp4354
g94
g95
ssg83
g4348
sg76
(lp4355
S'generator'
p4356
asbag69
(g90
g71
NtRp4357
(dp4358
g74
(dp4359
g101
g102
ssg83
g4348
sg76
(lp4360
S':'
asbag69
(g90
g71
NtRp4361
(dp4362
g74
(dp4363
sg83
g4348
sg76
(lp4364
g69
(g70
g71
NtRp4365
(dp4366
g74
(dp4367
g82
I4
ssg83
g4361
sg76
(lp4368
S'Web2py Web Framework'
p4369
asbasbasbag69
(g85
g71
NtRp4370
(dp4371
g74
(dp4372
sg83
g4278
sg76
(lp4373
g69
(g90
g71
NtRp4374
(dp4375
g74
(dp4376
g94
g95
ssg83
g4370
sg76
(lp4377
S'keywords'
p4378
asbag69
(g90
g71
NtRp4379
(dp4380
g74
(dp4381
g101
g102
ssg83
g4370
sg76
(lp4382
S':'
asbag69
(g90
g71
NtRp4383
(dp4384
g74
(dp4385
sg83
g4370
sg76
(lp4386
g69
(g70
g71
NtRp4387
(dp4388
g74
(dp4389
g82
I4
ssg83
g4383
sg76
(lp4390
S'web2py, python, framework'
p4391
asbasbasbasbasbasbasbag69
(g85
g71
NtRp4392
(dp4393
g74
(dp4394
sg83
g3131
sg76
(lp4395
g69
(g90
g71
NtRp4396
(dp4397
g74
(dp4398
g94
g95
ssg83
g4392
sg76
(lp4399
S'postprocessing'
p4400
asbag69
(g90
g71
NtRp4401
(dp4402
g74
(dp4403
g101
g102
ssg83
g4392
sg76
(lp4404
S':'
asbag69
(g90
g71
NtRp4405
(dp4406
g74
(dp4407
sg83
g4392
sg76
(lp4408
g69
(g70
g71
NtRp4409
(dp4410
g74
(dp4411
g82
I5
ssg83
g4405
sg76
(lp4412
g69
(g78
g71
NtRp4413
(dp4414
g74
(dp4415
g82
I4
ssg83
Nsg76
(lp4416
sbasbasbasbag69
(g85
g71
NtRp4417
(dp4418
g74
(dp4419
sg83
g3131
sg76
(lp4420
g69
(g90
g71
NtRp4421
(dp4422
g74
(dp4423
g94
g95
ssg83
g4417
sg76
(lp4424
S'session_file'
p4425
asbag69
(g90
g71
NtRp4426
(dp4427
g74
(dp4428
g101
g102
ssg83
g4417
sg76
(lp4429
S':'
asbag69
(g90
g71
NtRp4430
(dp4431
g74
(dp4432
sg83
g4417
sg76
(lp4433
g69
(g70
g71
NtRp4434
(dp4435
g74
(dp4436
g82
I5
ssg83
g4430
sg76
(lp4437
S"<open file 'C:\\webapps\\ben\\project\\web2py\\applications\\profile\\sessions\\127.0.0.1-1f1dcddf-9da1-42ed-bf08-00e34922e094', mode 'rb+' at 0x00000000075E6C90>"
p4438
asbasbasbag69
(g85
g71
NtRp4439
(dp4440
g74
(dp4441
sg83
g3131
sg76
(lp4442
g69
(g90
g71
NtRp4443
(dp4444
g74
(dp4445
g94
g95
ssg83
g4439
sg76
(lp4446
S'session_filename'
p4447
asbag69
(g90
g71
NtRp4448
(dp4449
g74
(dp4450
g101
g102
ssg83
g4439
sg76
(lp4451
S':'
asbag69
(g90
g71
NtRp4452
(dp4453
g74
(dp4454
sg83
g4439
sg76
(lp4455
g69
(g70
g71
NtRp4456
(dp4457
g74
(dp4458
g82
I5
ssg83
g4452
sg76
(lp4459
S'C:\\webapps\\ben\\project\\web2py\\applications\\profile\\sessions\\127.0.0.1-1f1dcddf-9da1-42ed-bf08-00e34922e094'
p4460
asbasbasbag69
(g85
g71
NtRp4461
(dp4462
g74
(dp4463
sg83
g3131
sg76
(lp4464
g69
(g90
g71
NtRp4465
(dp4466
g74
(dp4467
g94
g95
ssg83
g4461
sg76
(lp4468
S'session_id'
p4469
asbag69
(g90
g71
NtRp4470
(dp4471
g74
(dp4472
g101
g102
ssg83
g4461
sg76
(lp4473
S':'
asbag69
(g90
g71
NtRp4474
(dp4475
g74
(dp4476
sg83
g4461
sg76
(lp4477
g69
(g70
g71
NtRp4478
(dp4479
g74
(dp4480
g82
I5
ssg83
g4474
sg76
(lp4481
S'127.0.0.1-1f1dcddf-9da1-42ed-bf08-00e34922e094'
p4482
asbasbasbag69
(g85
g71
NtRp4483
(dp4484
g74
(dp4485
sg83
g3131
sg76
(lp4486
g69
(g90
g71
NtRp4487
(dp4488
g74
(dp4489
g94
g95
ssg83
g4483
sg76
(lp4490
S'session_id_name'
p4491
asbag69
(g90
g71
NtRp4492
(dp4493
g74
(dp4494
g101
g102
ssg83
g4483
sg76
(lp4495
S':'
asbag69
(g90
g71
NtRp4496
(dp4497
g74
(dp4498
sg83
g4483
sg76
(lp4499
g69
(g70
g71
NtRp4500
(dp4501
g74
(dp4502
g82
I5
ssg83
g4496
sg76
(lp4503
g3188
asbasbasbag69
(g85
g71
NtRp4504
(dp4505
g74
(dp4506
sg83
g3131
sg76
(lp4507
g69
(g90
g71
NtRp4508
(dp4509
g74
(dp4510
g94
g95
ssg83
g4504
sg76
(lp4511
S'session_locked'
p4512
asbag69
(g90
g71
NtRp4513
(dp4514
g74
(dp4515
g101
g102
ssg83
g4504
sg76
(lp4516
S':'
asbag69
(g90
g71
NtRp4517
(dp4518
g74
(dp4519
sg83
g4504
sg76
(lp4520
g69
(g70
g71
NtRp4521
(dp4522
g74
(dp4523
g82
I5
ssg83
g4517
sg76
(lp4524
g1712
asbasbasbag69
(g85
g71
NtRp4525
(dp4526
g74
(dp4527
sg83
g3131
sg76
(lp4528
g69
(g90
g71
NtRp4529
(dp4530
g74
(dp4531
g94
g95
ssg83
g4525
sg76
(lp4532
S'session_new'
p4533
asbag69
(g90
g71
NtRp4534
(dp4535
g74
(dp4536
g101
g102
ssg83
g4525
sg76
(lp4537
S':'
asbag69
(g90
g71
NtRp4538
(dp4539
g74
(dp4540
sg83
g4525
sg76
(lp4541
g69
(g70
g71
NtRp4542
(dp4543
g74
(dp4544
g82
I5
ssg83
g4538
sg76
(lp4545
g112
asbasbasbag69
(g85
g71
NtRp4546
(dp4547
g74
(dp4548
sg83
g3131
sg76
(lp4549
g69
(g90
g71
NtRp4550
(dp4551
g74
(dp4552
g94
g95
ssg83
g4546
sg76
(lp4553
S'status'
p4554
asbag69
(g90
g71
NtRp4555
(dp4556
g74
(dp4557
g101
g102
ssg83
g4546
sg76
(lp4558
S':'
asbag69
(g90
g71
NtRp4559
(dp4560
g74
(dp4561
sg83
g4546
sg76
(lp4562
g69
(g70
g71
NtRp4563
(dp4564
g74
(dp4565
g82
I5
ssg83
g4559
sg76
(lp4566
S'200'
p4567
asbasbasbag69
(g85
g71
NtRp4568
(dp4569
g74
(dp4570
sg83
g3131
sg76
(lp4571
g69
(g90
g71
NtRp4572
(dp4573
g74
(dp4574
g94
g95
ssg83
g4568
sg76
(lp4575
S'subtitle'
p4576
asbag69
(g90
g71
NtRp4577
(dp4578
g74
(dp4579
g101
g102
ssg83
g4568
sg76
(lp4580
S':'
asbag69
(g90
g71
NtRp4581
(dp4582
g74
(dp4583
sg83
g4568
sg76
(lp4584
g69
(g70
g71
NtRp4585
(dp4586
g74
(dp4587
g82
I5
ssg83
g4581
sg76
(lp4588
g3637
(S's\r\x00\x00\x00customize me!'
tRp4589
asbasbasbag69
(g85
g71
NtRp4590
(dp4591
g74
(dp4592
sg83
g3131
sg76
(lp4593
g69
(g90
g71
NtRp4594
(dp4595
g74
(dp4596
g94
g95
ssg83
g4590
sg76
(lp4597
S'title'
p4598
asbag69
(g90
g71
NtRp4599
(dp4600
g74
(dp4601
g101
g102
ssg83
g4590
sg76
(lp4602
S':'
asbag69
(g90
g71
NtRp4603
(dp4604
g74
(dp4605
sg83
g4590
sg76
(lp4606
g69
(g70
g71
NtRp4607
(dp4608
g74
(dp4609
g82
I5
ssg83
g4603
sg76
(lp4610
S'Profile'
p4611
asbasbasbag69
(g85
g71
NtRp4612
(dp4613
g74
(dp4614
sg83
g3131
sg76
(lp4615
g69
(g90
g71
NtRp4616
(dp4617
g74
(dp4618
g94
g95
ssg83
g4612
sg76
(lp4619
g2376
asbag69
(g90
g71
NtRp4620
(dp4621
g74
(dp4622
g101
g102
ssg83
g4612
sg76
(lp4623
S':'
asbag69
(g90
g71
NtRp4624
(dp4625
g74
(dp4626
sg83
g4612
sg76
(lp4627
g69
(g70
g71
NtRp4628
(dp4629
g74
(dp4630
g82
I5
ssg83
g4624
sg76
(lp4631
g2389
asbasbasbag69
(g85
g71
NtRp4632
(dp4633
g74
(dp4634
sg83
g3131
sg76
(lp4635
g69
(g90
g71
NtRp4636
(dp4637
g74
(dp4638
g94
g95
ssg83
g4632
sg76
(lp4639
S'view'
p4640
asbag69
(g90
g71
NtRp4641
(dp4642
g74
(dp4643
g101
g102
ssg83
g4632
sg76
(lp4644
S':'
asbag69
(g90
g71
NtRp4645
(dp4646
g74
(dp4647
sg83
g4632
sg76
(lp4648
g69
(g70
g71
NtRp4649
(dp4650
g74
(dp4651
g82
I5
ssg83
g4645
sg76
(lp4652
S'default/index.html'
p4653
asbasbasbasbasbsS'locals'
p4654
(dp4655
g4
S"r'C:\\webapps\\ben\\project\\web2py\\applications\\profile\\views\\default/index.html'"
p4656
sg6
S'r"response.write(\'<!DOCTYPE html>\\n<!-- paulirish....ponse.write(\'\\n</body>\\n</html>\\n\', escape=False)"'
p4657
sssS'traceback'
p4658
S'Traceback (most recent call last):\n  File "C:\\webapps\\ben\\project\\web2py\\gluon\\restricted.py", line 203, in restricted\n    ccode = compile2(code,layer)\n  File "C:\\webapps\\ben\\project\\web2py\\gluon\\restricted.py", line 189, in compile2\n    return compile(code.rstrip().replace(\'\\r\\n\',\'\\n\')+\'\\n\', layer, \'exec\')\n  File "C:\\webapps\\ben\\project\\web2py\\applications\\profile\\views\\default/index.html", line 46\n    response.write(URL{\'profile\',\'static/imges\',name_splodge.png\'))\n                      ^\nSyntaxError: invalid syntax\n'
p4659
s.