(dp1
S'output'
p2
S"<type 'exceptions.SyntaxError'> invalid syntax (fun/jigsaw.html, line 48)"
p3
sS'layer'
p4
S'C:\\webapps\\ben\\project\\profile\\web2py\\applications\\profile\\views\\fun/jigsaw.html'
p5
sS'code'
p6
S'response.write(\'\\r\\n\', escape=False)\nresponse.write(\'<!DOCTYPE html>\\r\\n<!-- paulirish.com/2008/conditional-stylesheets-vs-css-hacks-answer-neither/ -->\\r\\n<!--[if lt IE 7]><html class="ie ie6 ie-lte9 ie-lte8 ie-lte7 no-js" lang="\', escape=False)\nresponse.write(T.accepted_language or \'en\')\nresponse.write(\'"> <![endif]-->\\r\\n<!--[if IE 7]><html class="ie ie7 ie-lte9 ie-lte8 ie-lte7 no-js" lang="\', escape=False)\nresponse.write(T.accepted_language or \'en\')\nresponse.write(\'"> <![endif]-->\\r\\n<!--[if IE 8]><html class="ie ie8 ie-lte9 ie-lte8 no-js" lang="\', escape=False)\nresponse.write(T.accepted_language or \'en\')\nresponse.write(\'"> <![endif]-->\\r\\n<!--[if IE 9]><html class="ie9 ie-lte9 no-js" lang="\', escape=False)\nresponse.write(T.accepted_language or \'en\')\nresponse.write(\'"> <![endif]-->\\r\\n<!--[if (gt IE 9)|!(IE)]><!--> <html class="no-js" lang="\', escape=False)\nresponse.write(T.accepted_language or \'en\')\nresponse.write(\'"> <!--<![endif]-->\\r\\n<head>\\r\\n  <meta charset="utf-8" />\\r\\n  <!-- www.phpied.com/conditional-comments-block-downloads/ -->\\r\\n  <!-- Always force latest IE rendering engine\\r\\n       (even in intranet) & Chrome Frame\\r\\n       Remove this if you use the .htaccess -->\\r\\n  <!--[if IE]>\\r\\n    <meta http-equiv="X-UA-Compatible" content="IE=edge\', escape=False)\nresponse.write(not request.is_local and \',chrome=1\' or \'\')\nresponse.write(\'">\\r\\n  <![endif]-->\\r\\n  \\r\\n  <title>ben mcphail</title>\\r\\n  \\r\\n  <!-- http://dev.w3.org/html5/markup/meta.name.html -->\\r\\n  <meta name="application-name" content="\', escape=False)\nresponse.write(request.application)\nresponse.write(\'" />\\r\\n  \\r\\n  <!-- Speaking of Google, don\\\'t forget to set your site up:\\r\\n       http://google.com/webmasters -->\\r\\n  <meta name="google-site-verification" content="" />\\r\\n\\r\\n  <!--  Mobile Viewport Fix\\r\\n      j.mp/mobileviewport & davidbcalhoun.com/2010/viewport-metatag\\r\\n      device-width: Occupy full width of the screen in its current orientation\\r\\n      initial-scale = 1.0 retains dimensions instead of zooming out if page height > device height\\r\\n      user-scalable = yes allows the user to zoom in -->\\r\\n  <meta name="viewport" content="width=device-width, initial-scale=1.0, user-scalable=yes">\\r\\n  \\r\\n  <!-- Place favicon.ico and apple-touch-icon.png in the root of your domain and delete these references -->\\r\\n  <link rel="shortcut icon" href="\', escape=False)\nresponse.write(URL(\'static\',\'favicon.ico\'))\nresponse.write(\'" type="image/x-icon">\\r\\n  <link rel="apple-touch-icon" href="\', escape=False)\nresponse.write(URL(\'static\',\'favicon.png\'))\nresponse.write(\'">\\r\\n\\r\\n  <!-- All JavaScript at the bottom, except for Modernizr which enables \\r\\n       HTML5 elements & feature detects -->\\r\\n  <script src="\', escape=False)\nresponse.write(URL(\'static\',\'js/modernizr.custom.js\'))\nresponse.write(\'"></script>  \\r\\n\\r\\n  <!-- include stylesheets -->\\r\\n  \', escape=False)\nresponse.files.append(URL(\'static\',\'css/skeleton.css\'))\nresponse.files.append(URL(\'static\',\'css/web2py.css\'))\nresponse.files.append(URL(\'static\',\'css/superfish.css\'))\nresponse.files.append(URL(\'static\',\'js/superfish.js\'))\nresponse.files.append(URL(\'static\',\'js/main.js\'))\nresponse.files.append(URL(\'static\',\'css/main.css\'))\nresponse.write(\'\\r\\n\\r\\n  \', escape=False)\nresponse.write(\'<script type="text/javascript"><!--\\n    // These variables are used by the web2py_ajax_init function in web2py_ajax.js (which is loaded below).\\n    var w2p_ajax_confirm_message = "\', escape=False)\nresponse.write(T(\'Are you sure you want to delete this object?\'))\nresponse.write(\'";\\n    var w2p_ajax_date_format = "\', escape=False)\nresponse.write(T(\'%Y-%m-%d\'))\nresponse.write(\'";\\n    var w2p_ajax_datetime_format = "\', escape=False)\nresponse.write(T(\'%Y-%m-%d %H:%M:%S\'))\nresponse.write(\'";\\n    //--></script>\\n\', escape=False)\nresponse.files.insert(0,URL(\'static\',\'js/jquery.js\'))\nresponse.files.insert(1,URL(\'static\',\'css/calendar.css\'))\nresponse.files.insert(2,URL(\'static\',\'js/calendar.js\'))\nresponse.files.insert(3,URL(\'static\',\'js/web2py.js\'))\nresponse.include_meta()\nresponse.include_files()\nresponse.write(\'\\n\', escape=False)\nresponse.write(\'\\r\\n\\r\\n  <script type="text/javascript">\\r\\n    jQuery(function(){ jQuery(\\\'ul.sf-menu\\\').supersubs({minWidth:12,maxWidth:30,extraWidth:3}).superfish(); });\\r\\n  </script>\\r\\n\\r\\n\\r\\n  <!-- uncomment here to load jquery-ui\\r\\n  <link rel="stylesheet" href="http://ajax.googleapis.com/ajax/libs/jqueryui/1.8.16/themes/base/jquery-ui.css" type="text/css" media="all" />\\r\\n  <script src="http://ajax.googleapis.com/ajax/libs/jqueryui/1.8.16/jquery-ui.min.js" type="text/javascript"></script>\\r\\n  uncomment to load jquery-ui //-->\\r\\n</head>\\r\\n<body>\\r\\n \\r\\n \\r\\n       <div style="clear: both;"></div><!-- Clear the divs -->\\r\\n   \', escape=False)\n#include \'statusbar.html\'\nresponse.write(\' <!-- Status bar is the menu -->\\r\\n    <div id="page"> <!-- Here my central body -->     \\r\\n      <!-- contsdsdent -->\\r\\n      <div id="content" >\\r\\n        \', escape=False)\nresponse.write(\'\\r\\n<script type="text/javascript" src="http://jqueryrotate.googlecode.com/svn/trunk/jQueryRotate.js"></script>\\r\\n<style>\\r\\n\\r\\n\\r\\n#jigsawRotatee{\\r\\n\\twidth: 150px;\\r\\n\\theight:150px;\\r\\n\\r\\n}\\r\\n\\r\\n</style>\\r\\n<audio>\\r\\n\\t<source = "\', escape=False)\n{=URL(\'profile\',\'static/music\', \'schism.mp3\')\nresponse.write(\'">\\r\\n</audio> \\r\\n<div id="jigContainer">\\r\\n\\r\\n\\r\\n</div>\\r\\n<!-- \\r\\n<img class="jigsawPiece" src="\', escape=False)\nresponse.write(URL(\'profile\',\'static/images\',\'jigsaw.jpg\'))\nresponse.write(\'">\\r\\n\\r\\n<img id="jigsawRotate" src="\', escape=False)\nresponse.write(URL(\'profile\',\'static/images\',\'jigsaw.jpg\'))\nresponse.write(\'">\\r\\n -->\\r\\n<script type="text/javascript">\\r\\n\\r\\n\\r\\n\\t\\r\\n\\t/*\\r\\n\\t\\tso i was listening to shism by tool and thought that would \\r\\n\\t\\tbe a cool thing to try, so the following is a series of \\r\\n\\t\\tfalling jigsaw puzzle pieces. I am using animate to move the\\r\\n\\t\\tpieces down the page, as it has a end function taht i will\\r\\n\\t\\tuse to terminate the piece, while i use the simple setInverval\\r\\n\\t\\tto rotate each piece, but everything will be Math.random()\\r\\n\\t\\tso it looks semi-natual\\r\\n\\t\\t\\r\\n\\t\\tso, let us begin!\\r\\n\\t\\r\\n\\t*/\\r\\n\\r\\n\\t// globals\\r\\n\\tpageHeight = window.innerHeight;\\r\\n\\tpageWidth = window.innerWidth - 150;\\r\\n\\t// num of images at once\\r\\n\\ttotNum = 15\\r\\n\\tfallTime = 8000\\r\\n\\t\\r\\n\\tpieceNum = totNum + 1\\r\\n\\tcont = "\\\'" + pageHeight + 200 + "px"\\r\\n\\t\\r\\n\\t// on ready, load all jigsaws randomly\\r\\n\\t$(document).ready(function() {\\r\\n\\r\\n\\t\\t// get parent div\\r\\n\\t\\tparent = $("#jigContainer")\\r\\n\\t\\t\\r\\n\\t\\t// create imgs\\r\\n\\t\\tvar x = totNum;\\r\\n\\t\\t\\r\\n\\t\\twhile(x--){\\r\\n\\t\\t\\timgSrc = "\', escape=False)\nresponse.write(URL(\'profile\',\'static/images\',\'jigsaw.png\'))\nresponse.write(\'"\\r\\n\\t\\t\\timg = "<img class=\\\'jigsawPiece\\\' id=\\\'piece_" + x + "\\\' src=\\\'" + imgSrc + "\\\'>"\\r\\n\\t\\t\\tparent.append(img)\\r\\n\\t\\t\\t\\r\\n\\t\\t\\t\\r\\n\\t\\t\\t\\r\\n\\t\\t\\trandomX = Math.random()*(pageWidth-100);\\r\\n\\t\\t\\t\\r\\n/*\\t\\t\\tif (randomX > (pageWidth - 190)){\\r\\n\\t\\t\\t\\trandomX -= 110\\r\\n\\t\\t\\t}\\r\\n\\t*/\\t\\t\\r\\n\\t\\t\\t$("#piece_" + x).css(\\\'left\\\',randomX + 200)\\r\\n\\t\\t\\tanimateThatPiece(x);\\r\\n\\r\\n\\t\\t}\\r\\n\\t\\t\\r\\n\\t\\t\\r\\n\\t\\r\\n\\t});\\r\\n\\t\\r\\n\\t\\r\\n\\t\\r\\nfunction animateThatPiece(x){\\r\\n\\t\\r\\n\\tif (x < totNum){\\r\\n\\t\\t$("#piece_" + x).delay(Math.random()*8000).animate({ \\r\\n\\t        top: newX\\r\\n\\t\\t},{\\r\\n\\t\\t\\tduration: fallTime,\\r\\n\\t\\t \\r\\n\\t        \\r\\n\\t        complete: function() {\\r\\n\\t              $("#piece_" + x).remove();\\r\\n\\t              getNewPiece();\\r\\n\\t     \\r\\n\\t        }\\r\\n\\t        });\\r\\n\\t}\\r\\n\\telse{\\r\\n\\t\\t$("#piece_" + x).animate({ \\r\\n\\t        top: newX\\r\\n\\t\\t},{\\r\\n\\t\\t\\tduration: fallTime,\\r\\n\\t\\t \\r\\n\\t        \\r\\n\\t        complete: function() {\\r\\n\\t              $("#piece_" + x).remove();\\r\\n\\t              getNewPiece();\\r\\n\\t     \\r\\n\\t        }\\r\\n\\t        });\\r\\n\\t\\t\\r\\n\\t}\\t\\r\\n\\t\\r\\n\\r\\n\\tvar angle = 0;\\r\\n\\tdirection = Math.random()\\r\\n\\tif (direction < 0.5){\\r\\n\\t\\tsetInterval(function(){\\r\\n\\t\\t      angle+=Math.random()*3;\\r\\n\\t\\t     $("#piece_" + x).rotate(angle);\\r\\n\\t\\t},Math.random()*50);\\r\\n\\t}\\r\\n\\telse{\\r\\n\\t\\tsetInterval(function(){\\r\\n\\t\\t      angle+=Math.random()*3;\\r\\n\\t\\t     $("#piece_" + x).rotate(-angle);\\r\\n\\t\\t},Math.random()*50);\\r\\n\\t}\\r\\n\\t\\r\\n\\r\\n\\t\\r\\n\\t\\r\\n};\\r\\n\\t\\r\\nfunction getNewPiece(){\\r\\n\\t\\r\\n\\t\\tx = pieceNum;\\r\\n\\t\\tpieceNum += 1;\\r\\n\\t\\t\\r\\n\\t\\timgSrc = "\', escape=False)\nresponse.write(URL(\'profile\',\'static/images\',\'jigsaw.png\'))\nresponse.write(\'"\\r\\n\\t\\timg = "<img class=\\\'jigsawPiece\\\' id=\\\'piece_" + x + "\\\' src=\\\'" + imgSrc + "\\\'>"\\r\\n\\t\\tparent.append(img)\\r\\n\\t\\t\\r\\n\\t\\t\\r\\n\\t\\t\\r\\n\\t\\trandomX = Math.random()*(pageWidth-100);\\r\\n\\t\\t\\r\\n/*\\t\\tif (randomX > (pageWidth - 190)){\\r\\n\\t\\t\\trandomX -= 110\\r\\n\\t\\t}\\r\\n\\t*/\\t$("#piece_" + x).css(\\\'left\\\',randomX + 200)\\r\\n\\t\\tanimateThatPiece(x);\\r\\n\\t\\r\\n\\t\\r\\n}\\r\\n\\r\\n\\t\\r\\n\\t// set up set interval\\r\\n\\t\\r\\n\\t//\\r\\n\\t\\r\\n\\t\\r\\n\\t\\r\\n\\tnum = pageHeight + 200\\r\\n\\tnewX = "+=" + num + "px"\\r\\n\\r\\n\\tvar angle = 0;\\r\\n\\tsetInterval(function(){\\r\\n\\t      angle+=3;\\r\\n\\t     $("#jigsawPiece").rotate(angle);\\r\\n\\t},50);\\r\\n\\t\\r\\n\\t\\r\\n\\r\\n\\r\\n</script>\\r\\n\\r\\n<!-- \\r\\n\\r\\n{  step: function(now, fx) {\\r\\n      \\r\\n      \\t\\r\\n    \\t\\t  $("#jigsawPiece").css({ \\r\\n    \\t\\t\\t  WebkitTransform: \\\'rotate(\\\' + 10 + \\\'deg)\\\',\\r\\n    \\t\\t\\t  top:  "10px"\\r\\n    \\t\\t\\t  \\r\\n    \\t\\t  \\r\\n    \\t\\t  });\\r\\n    \\t  }},\\r\\n    \\t\\r\\n\\r\\n -->\', escape=False)\nresponse.write(\' \\r\\n      </div>\\r\\n      <!-- content -->\\r\\n      <div style="clear: both;"></div><!-- Clear the divs -->\\r\\n    </div><!-- page -->\\r\\n\\r\\n  \\r\\n  <div id="footer_options">\\r\\n  <div id="bottom_img">\\r\\n  <div id="footer_top" onclick="scroll_top()">\\r\\n    <div id="option_title">\\r\\n        top\\r\\n    </div>\\r\\n  </div>\\r\\n  <div id="footer_skills" onclick="scroll_skills()">\\r\\n    <div id="option_title">\\r\\n        skills\\r\\n    </div>\\r\\n  </div>\\r\\n  <div id="footer_projects" onclick="scroll_projects()">\\r\\n    <div id="option_title">\\r\\n        projects\\r\\n    </div>\\r\\n  </div>\\r\\n  <div id="footer_connect" onclick="scroll_connect()">\\r\\n    <div id="option_title">\\r\\n        connect\\r\\n    </div>\\r\\n  </div>\\r\\n </div>\\r\\n </div>\\r\\n  \\r\\n  \\r\\n  <!--[if lt IE 7 ]>\\r\\n    <script src="\', escape=False)\nresponse.write(URL(\'static\',\'js/dd_belatedpng.js\'))\nresponse.write(\'"></script>\\r\\n    <script> DD_belatedPNG.fix(\\\'img, .png_bg\\\'); //fix any <img> or .png_bg background-images </script>\\r\\n    <![endif]-->\\r\\n  \', escape=False)\nif response.google_analytics_id:\n    response.write(\'<script type="text/javascript"> var _gaq = _gaq || []; _gaq.push([\\\'_setAccount\\\', \\\'\', escape=False)\n    response.write(response.google_analytics_id)\n    response.write("\']); _gaq.push([\'_trackPageview\']); (function() { var ga = document.createElement(\'script\'); ga.type = \'text/javascript\'; ga.async = true; ga.src = (\'https:\' == document.location.protocol ? \'https://ssl\' : \'http://www\') + \'.google-analytics.com/ga.js\'; var s = document.getElementsByTagName(\'script\')[0]; s.parentNode.insertBefore(ga, s); })(); </script> ", escape=False)\n    pass\nresponse.write(\'\\r\\n</body>\\r\\n</html>\\r\\n\', escape=False)'
p7
sS'snapshot'
p8
(dp9
S'exception'
p10
(dp11
S'__getslice__'
p12
S"<method-wrapper '__getslice__' of exceptions.SyntaxError object>"
p13
sS'text'
p14
S'"{=URL(\'profile\',\'static/music\', \'schism.mp3\')\\n"'
p15
sS'__str__'
p16
S"<method-wrapper '__str__' of exceptions.SyntaxError object>"
p17
sS'__reduce__'
p18
S'<built-in method __reduce__ of exceptions.SyntaxError object>'
p19
sS'__dict__'
p20
S'{}'
p21
sS'__sizeof__'
p22
S'<built-in method __sizeof__ of exceptions.SyntaxError object>'
p23
sS'__init__'
p24
S"<method-wrapper '__init__' of exceptions.SyntaxError object>"
p25
sS'__setattr__'
p26
S"<method-wrapper '__setattr__' of exceptions.SyntaxError object>"
p27
sS'__reduce_ex__'
p28
S'<built-in method __reduce_ex__ of exceptions.SyntaxError object>'
p29
sS'__new__'
p30
S'<built-in method __new__ of type object>'
p31
sS'__format__'
p32
S'<built-in method __format__ of exceptions.SyntaxError object>'
p33
sS'__class__'
p34
S"<type 'exceptions.SyntaxError'>"
p35
sS'filename'
p36
S"r'C:\\webapps\\ben\\project\\profile\\web2py\\applications\\profile\\views\\fun/jigsaw.html'"
p37
sS'lineno'
p38
S'48'
p39
sS'msg'
p40
S"'invalid syntax'"
p41
sS'__doc__'
p42
S"'Invalid syntax.'"
p43
sS'__getitem__'
p44
S"<method-wrapper '__getitem__' of exceptions.SyntaxError object>"
p45
sS'__setstate__'
p46
S'<built-in method __setstate__ of exceptions.SyntaxError object>'
p47
sS'__getattribute__'
p48
S"<method-wrapper '__getattribute__' of exceptions.SyntaxError object>"
p49
sS'print_file_and_line'
p50
S'None'
p51
sS'args'
p52
S'(\'invalid syntax\', (r\'C:\\webapps\\ben\\project\\profile\\web2py\\applications\\profile\\views\\fun/jigsaw.html\', 48, 2, "{=URL(\'profile\',\'static/music\', \'schism.mp3\')\\n"))'
p53
sS'__subclasshook__'
p54
S'<built-in method __subclasshook__ of type object>'
p55
sS'offset'
p56
S'2'
sS'__unicode__'
p57
S'<built-in method __unicode__ of exceptions.SyntaxError object>'
p58
sS'__delattr__'
p59
S"<method-wrapper '__delattr__' of exceptions.SyntaxError object>"
p60
sS'__repr__'
p61
S"<method-wrapper '__repr__' of exceptions.SyntaxError object>"
p62
sS'__hash__'
p63
S"<method-wrapper '__hash__' of exceptions.SyntaxError object>"
p64
ssS'evalue'
p65
S'invalid syntax (fun/jigsaw.html, line 48)'
p66
sS'request'
p67
ccopy_reg
_reconstructor
p68
(cgluon.html
BEAUTIFY
p69
c__builtin__
object
p70
NtRp71
(dp72
S'attributes'
p73
(dp74
sS'components'
p75
(lp76
g68
(cgluon.html
TABLE
p77
g70
NtRp78
(dp79
g73
(dp80
S'level'
p81
I5
ssS'parent'
p82
Nsg75
(lp83
g68
(cgluon.html
TR
p84
g70
NtRp85
(dp86
g73
(dp87
sg82
g78
sg75
(lp88
g68
(cgluon.html
TD
p89
g70
NtRp90
(dp91
g73
(dp92
S'_style'
p93
S'font-weight:bold;vertical-align:top'
p94
ssg82
g85
sg75
(lp95
S'ajax'
p96
asbag68
(g89
g70
NtRp97
(dp98
g73
(dp99
S'_valign'
p100
S'top'
p101
ssg82
g85
sg75
(lp102
S':'
asbag68
(g89
g70
NtRp103
(dp104
g73
(dp105
sg82
g85
sg75
(lp106
g68
(g69
g70
NtRp107
(dp108
g73
(dp109
g81
I5
ssg82
g103
sg75
(lp110
S'False'
p111
asbasbasbag68
(g84
g70
NtRp112
(dp113
g73
(dp114
sg82
g78
sg75
(lp115
g68
(g89
g70
NtRp116
(dp117
g73
(dp118
g93
g94
ssg82
g112
sg75
(lp119
S'application'
p120
asbag68
(g89
g70
NtRp121
(dp122
g73
(dp123
g100
g101
ssg82
g112
sg75
(lp124
S':'
asbag68
(g89
g70
NtRp125
(dp126
g73
(dp127
sg82
g112
sg75
(lp128
g68
(g69
g70
NtRp129
(dp130
g73
(dp131
g81
I5
ssg82
g125
sg75
(lp132
S'profile'
p133
asbasbasbag68
(g84
g70
NtRp134
(dp135
g73
(dp136
sg82
g78
sg75
(lp137
g68
(g89
g70
NtRp138
(dp139
g73
(dp140
g93
g94
ssg82
g134
sg75
(lp141
g52
asbag68
(g89
g70
NtRp142
(dp143
g73
(dp144
g100
g101
ssg82
g134
sg75
(lp145
S':'
asbag68
(g89
g70
NtRp146
(dp147
g73
(dp148
sg82
g134
sg75
(lp149
g68
(g69
g70
NtRp150
(dp151
g73
(dp152
g81
I5
ssg82
g146
sg75
(lp153
g68
(g77
g70
NtRp154
(dp155
g73
(dp156
g81
I4
ssg82
Nsg75
(lp157
sbasbasbasbag68
(g84
g70
NtRp158
(dp159
g73
(dp160
sg82
g78
sg75
(lp161
g68
(g89
g70
NtRp162
(dp163
g73
(dp164
g93
g94
ssg82
g158
sg75
(lp165
S'body'
p166
asbag68
(g89
g70
NtRp167
(dp168
g73
(dp169
g100
g101
ssg82
g158
sg75
(lp170
S':'
asbag68
(g89
g70
NtRp171
(dp172
g73
(dp173
sg82
g158
sg75
(lp174
g68
(g69
g70
NtRp175
(dp176
g73
(dp177
g81
I5
ssg82
g171
sg75
(lp178
S'<cStringIO.StringO object at 0x0000000005C6E730>'
p179
asbasbasbag68
(g84
g70
NtRp180
(dp181
g73
(dp182
sg82
g78
sg75
(lp183
g68
(g89
g70
NtRp184
(dp185
g73
(dp186
g93
g94
ssg82
g180
sg75
(lp187
S'client'
p188
asbag68
(g89
g70
NtRp189
(dp190
g73
(dp191
g100
g101
ssg82
g180
sg75
(lp192
S':'
asbag68
(g89
g70
NtRp193
(dp194
g73
(dp195
sg82
g180
sg75
(lp196
g68
(g69
g70
NtRp197
(dp198
g73
(dp199
g81
I5
ssg82
g193
sg75
(lp200
S'127.0.0.1'
p201
asbasbasbag68
(g84
g70
NtRp202
(dp203
g73
(dp204
sg82
g78
sg75
(lp205
g68
(g89
g70
NtRp206
(dp207
g73
(dp208
g93
g94
ssg82
g202
sg75
(lp209
S'controller'
p210
asbag68
(g89
g70
NtRp211
(dp212
g73
(dp213
g100
g101
ssg82
g202
sg75
(lp214
S':'
asbag68
(g89
g70
NtRp215
(dp216
g73
(dp217
sg82
g202
sg75
(lp218
g68
(g69
g70
NtRp219
(dp220
g73
(dp221
g81
I5
ssg82
g215
sg75
(lp222
S'fun'
p223
asbasbasbag68
(g84
g70
NtRp224
(dp225
g73
(dp226
sg82
g78
sg75
(lp227
g68
(g89
g70
NtRp228
(dp229
g73
(dp230
g93
g94
ssg82
g224
sg75
(lp231
S'cookies'
p232
asbag68
(g89
g70
NtRp233
(dp234
g73
(dp235
g100
g101
ssg82
g224
sg75
(lp236
S':'
asbag68
(g89
g70
NtRp237
(dp238
g73
(dp239
sg82
g224
sg75
(lp240
g68
(g69
g70
NtRp241
(dp242
g73
(dp243
g81
I5
ssg82
g237
sg75
(lp244
g68
(g77
g70
NtRp245
(dp246
g73
(dp247
g81
I4
ssg82
Nsg75
(lp248
g68
(g84
g70
NtRp249
(dp250
g73
(dp251
sg82
g245
sg75
(lp252
g68
(g89
g70
NtRp253
(dp254
g73
(dp255
g93
g94
ssg82
g249
sg75
(lp256
S'session_id_profile'
p257
asbag68
(g89
g70
NtRp258
(dp259
g73
(dp260
g100
g101
ssg82
g249
sg75
(lp261
S':'
asbag68
(g89
g70
NtRp262
(dp263
g73
(dp264
sg82
g249
sg75
(lp265
g68
(g69
g70
NtRp266
(dp267
g73
(dp268
g81
I4
ssg82
g262
sg75
(lp269
g68
(g77
g70
NtRp270
(dp271
g73
(dp272
g81
I3
ssg82
Nsg75
(lp273
g68
(g84
g70
NtRp274
(dp275
g73
(dp276
sg82
g270
sg75
(lp277
g68
(g89
g70
NtRp278
(dp279
g73
(dp280
g93
g94
ssg82
g274
sg75
(lp281
S'comment'
p282
asbag68
(g89
g70
NtRp283
(dp284
g73
(dp285
g100
g101
ssg82
g274
sg75
(lp286
S':'
asbag68
(g89
g70
NtRp287
(dp288
g73
(dp289
sg82
g274
sg75
(lp290
g68
(g69
g70
NtRp291
(dp292
g73
(dp293
g81
I3
ssg82
g287
sg75
(lp294
S''
asbasbasbag68
(g84
g70
NtRp295
(dp296
g73
(dp297
sg82
g270
sg75
(lp298
g68
(g89
g70
NtRp299
(dp300
g73
(dp301
g93
g94
ssg82
g295
sg75
(lp302
S'domain'
p303
asbag68
(g89
g70
NtRp304
(dp305
g73
(dp306
g100
g101
ssg82
g295
sg75
(lp307
S':'
asbag68
(g89
g70
NtRp308
(dp309
g73
(dp310
sg82
g295
sg75
(lp311
g68
(g69
g70
NtRp312
(dp313
g73
(dp314
g81
I3
ssg82
g308
sg75
(lp315
S''
asbasbasbag68
(g84
g70
NtRp316
(dp317
g73
(dp318
sg82
g270
sg75
(lp319
g68
(g89
g70
NtRp320
(dp321
g73
(dp322
g93
g94
ssg82
g316
sg75
(lp323
S'expires'
p324
asbag68
(g89
g70
NtRp325
(dp326
g73
(dp327
g100
g101
ssg82
g316
sg75
(lp328
S':'
asbag68
(g89
g70
NtRp329
(dp330
g73
(dp331
sg82
g316
sg75
(lp332
g68
(g69
g70
NtRp333
(dp334
g73
(dp335
g81
I3
ssg82
g329
sg75
(lp336
S''
asbasbasbag68
(g84
g70
NtRp337
(dp338
g73
(dp339
sg82
g270
sg75
(lp340
g68
(g89
g70
NtRp341
(dp342
g73
(dp343
g93
g94
ssg82
g337
sg75
(lp344
S'httponly'
p345
asbag68
(g89
g70
NtRp346
(dp347
g73
(dp348
g100
g101
ssg82
g337
sg75
(lp349
S':'
asbag68
(g89
g70
NtRp350
(dp351
g73
(dp352
sg82
g337
sg75
(lp353
g68
(g69
g70
NtRp354
(dp355
g73
(dp356
g81
I3
ssg82
g350
sg75
(lp357
S''
asbasbasbag68
(g84
g70
NtRp358
(dp359
g73
(dp360
sg82
g270
sg75
(lp361
g68
(g89
g70
NtRp362
(dp363
g73
(dp364
g93
g94
ssg82
g358
sg75
(lp365
S'max-age'
p366
asbag68
(g89
g70
NtRp367
(dp368
g73
(dp369
g100
g101
ssg82
g358
sg75
(lp370
S':'
asbag68
(g89
g70
NtRp371
(dp372
g73
(dp373
sg82
g358
sg75
(lp374
g68
(g69
g70
NtRp375
(dp376
g73
(dp377
g81
I3
ssg82
g371
sg75
(lp378
S''
asbasbasbag68
(g84
g70
NtRp379
(dp380
g73
(dp381
sg82
g270
sg75
(lp382
g68
(g89
g70
NtRp383
(dp384
g73
(dp385
g93
g94
ssg82
g379
sg75
(lp386
S'path'
p387
asbag68
(g89
g70
NtRp388
(dp389
g73
(dp390
g100
g101
ssg82
g379
sg75
(lp391
S':'
asbag68
(g89
g70
NtRp392
(dp393
g73
(dp394
sg82
g379
sg75
(lp395
g68
(g69
g70
NtRp396
(dp397
g73
(dp398
g81
I3
ssg82
g392
sg75
(lp399
S''
asbasbasbag68
(g84
g70
NtRp400
(dp401
g73
(dp402
sg82
g270
sg75
(lp403
g68
(g89
g70
NtRp404
(dp405
g73
(dp406
g93
g94
ssg82
g400
sg75
(lp407
S'secure'
p408
asbag68
(g89
g70
NtRp409
(dp410
g73
(dp411
g100
g101
ssg82
g400
sg75
(lp412
S':'
asbag68
(g89
g70
NtRp413
(dp414
g73
(dp415
sg82
g400
sg75
(lp416
g68
(g69
g70
NtRp417
(dp418
g73
(dp419
g81
I3
ssg82
g413
sg75
(lp420
S''
asbasbasbag68
(g84
g70
NtRp421
(dp422
g73
(dp423
sg82
g270
sg75
(lp424
g68
(g89
g70
NtRp425
(dp426
g73
(dp427
g93
g94
ssg82
g421
sg75
(lp428
S'version'
p429
asbag68
(g89
g70
NtRp430
(dp431
g73
(dp432
g100
g101
ssg82
g421
sg75
(lp433
S':'
asbag68
(g89
g70
NtRp434
(dp435
g73
(dp436
sg82
g421
sg75
(lp437
g68
(g69
g70
NtRp438
(dp439
g73
(dp440
g81
I3
ssg82
g434
sg75
(lp441
S''
asbasbasbasbasbasbasbasbasbasbasbag68
(g84
g70
NtRp442
(dp443
g73
(dp444
sg82
g78
sg75
(lp445
g68
(g89
g70
NtRp446
(dp447
g73
(dp448
g93
g94
ssg82
g442
sg75
(lp449
S'env'
p450
asbag68
(g89
g70
NtRp451
(dp452
g73
(dp453
g100
g101
ssg82
g442
sg75
(lp454
S':'
asbag68
(g89
g70
NtRp455
(dp456
g73
(dp457
sg82
g442
sg75
(lp458
g68
(g69
g70
NtRp459
(dp460
g73
(dp461
g81
I5
ssg82
g455
sg75
(lp462
g68
(g77
g70
NtRp463
(dp464
g73
(dp465
g81
I4
ssg82
Nsg75
(lp466
g68
(g84
g70
NtRp467
(dp468
g73
(dp469
sg82
g463
sg75
(lp470
g68
(g89
g70
NtRp471
(dp472
g73
(dp473
g93
g94
ssg82
g467
sg75
(lp474
S'app_folders'
p475
asbag68
(g89
g70
NtRp476
(dp477
g73
(dp478
g100
g101
ssg82
g467
sg75
(lp479
S':'
asbag68
(g89
g70
NtRp480
(dp481
g73
(dp482
sg82
g467
sg75
(lp483
g68
(g69
g70
NtRp484
(dp485
g73
(dp486
g81
I4
ssg82
g480
sg75
(lp487
S"set(['C:\\\\webapps\\\\ben\\\\project\\\\profile\\\\web2py\\\\applications\\\\profile\\\\'])"
p488
asbasbasbag68
(g84
g70
NtRp489
(dp490
g73
(dp491
sg82
g463
sg75
(lp492
g68
(g89
g70
NtRp493
(dp494
g73
(dp495
g93
g94
ssg82
g489
sg75
(lp496
S'applications_parent'
p497
asbag68
(g89
g70
NtRp498
(dp499
g73
(dp500
g100
g101
ssg82
g489
sg75
(lp501
S':'
asbag68
(g89
g70
NtRp502
(dp503
g73
(dp504
sg82
g489
sg75
(lp505
g68
(g69
g70
NtRp506
(dp507
g73
(dp508
g81
I4
ssg82
g502
sg75
(lp509
S'C:\\webapps\\ben\\project\\profile\\web2py'
p510
asbasbasbag68
(g84
g70
NtRp511
(dp512
g73
(dp513
sg82
g463
sg75
(lp514
g68
(g89
g70
NtRp515
(dp516
g73
(dp517
g93
g94
ssg82
g511
sg75
(lp518
S'cmd_args'
p519
asbag68
(g89
g70
NtRp520
(dp521
g73
(dp522
g100
g101
ssg82
g511
sg75
(lp523
S':'
asbag68
(g89
g70
NtRp524
(dp525
g73
(dp526
sg82
g511
sg75
(lp527
g68
(g69
g70
NtRp528
(dp529
g73
(dp530
g81
I4
ssg82
g524
sg75
(lp531
g68
(g77
g70
NtRp532
(dp533
g73
(dp534
g81
I3
ssg82
Nsg75
(lp535
sbasbasbasbag68
(g84
g70
NtRp536
(dp537
g73
(dp538
sg82
g463
sg75
(lp539
g68
(g89
g70
NtRp540
(dp541
g73
(dp542
g93
g94
ssg82
g536
sg75
(lp543
S'cmd_options'
p544
asbag68
(g89
g70
NtRp545
(dp546
g73
(dp547
g100
g101
ssg82
g536
sg75
(lp548
S':'
asbag68
(g89
g70
NtRp549
(dp550
g73
(dp551
sg82
g536
sg75
(lp552
g68
(g69
g70
NtRp553
(dp554
g73
(dp555
g81
I4
ssg82
g549
sg75
(lp556
S"<Values at 0x3880588: {'verbose': False, 'ip': '127.0.0.1', 'shutdown_timeout': 5, 'taskbar': False, 'nocron': False, 'pid_filename': 'httpserver.pid', 'maxthreads': None, 'softcron': False, 'server_name': 'Sablasticus-hp', 'bpython': False, 'nogui': False, 'port': 8000, 'extcron': False, 'debuglevel': 30, 'test': None, 'folder': 'C:\\\\webapps\\\\ben\\\\project\\\\profile\\\\web2py', 'config': '', 'import_models': False, 'winservice': '', 'shell': None, 'run': '', 'log_filename': 'httpserver.log', 'args': [''], 'socket_timeout': 1, 'ssl_ca_certificate': None, 'scheduler': None, 'profiler_filename': None, 'ssl_private_key': '', 'password': '<ask>', 'request_queue_size': 5, 'ssl_certificate': '', 'cronjob': False, 'numthreads': None, 'quiet': False, 'interfaces': None, 'minthreads': None, 'timeout': 10, 'plain': False, 'nobanner': False}>"
p557
asbasbasbag68
(g84
g70
NtRp558
(dp559
g73
(dp560
sg82
g463
sg75
(lp561
g68
(g89
g70
NtRp562
(dp563
g73
(dp564
g93
g94
ssg82
g558
sg75
(lp565
S'db_sessions'
p566
asbag68
(g89
g70
NtRp567
(dp568
g73
(dp569
g100
g101
ssg82
g558
sg75
(lp570
S':'
asbag68
(g89
g70
NtRp571
(dp572
g73
(dp573
sg82
g558
sg75
(lp574
g68
(g69
g70
NtRp575
(dp576
g73
(dp577
g81
I4
ssg82
g571
sg75
(lp578
S'set([])'
p579
asbasbasbag68
(g84
g70
NtRp580
(dp581
g73
(dp582
sg82
g463
sg75
(lp583
g68
(g89
g70
NtRp584
(dp585
g73
(dp586
g93
g94
ssg82
g580
sg75
(lp587
S'debugging'
p588
asbag68
(g89
g70
NtRp589
(dp590
g73
(dp591
g100
g101
ssg82
g580
sg75
(lp592
S':'
asbag68
(g89
g70
NtRp593
(dp594
g73
(dp595
sg82
g580
sg75
(lp596
g68
(g69
g70
NtRp597
(dp598
g73
(dp599
g81
I4
ssg82
g593
sg75
(lp600
g111
asbasbasbag68
(g84
g70
NtRp601
(dp602
g73
(dp603
sg82
g463
sg75
(lp604
g68
(g89
g70
NtRp605
(dp606
g73
(dp607
g93
g94
ssg82
g601
sg75
(lp608
S'gluon_parent'
p609
asbag68
(g89
g70
NtRp610
(dp611
g73
(dp612
g100
g101
ssg82
g601
sg75
(lp613
S':'
asbag68
(g89
g70
NtRp614
(dp615
g73
(dp616
sg82
g601
sg75
(lp617
g68
(g69
g70
NtRp618
(dp619
g73
(dp620
g81
I4
ssg82
g614
sg75
(lp621
S'C:\\webapps\\ben\\project\\profile\\web2py'
p622
asbasbasbag68
(g84
g70
NtRp623
(dp624
g73
(dp625
sg82
g463
sg75
(lp626
g68
(g89
g70
NtRp627
(dp628
g73
(dp629
g93
g94
ssg82
g623
sg75
(lp630
S'http_accept'
p631
asbag68
(g89
g70
NtRp632
(dp633
g73
(dp634
g100
g101
ssg82
g623
sg75
(lp635
S':'
asbag68
(g89
g70
NtRp636
(dp637
g73
(dp638
sg82
g623
sg75
(lp639
g68
(g69
g70
NtRp640
(dp641
g73
(dp642
g81
I4
ssg82
g636
sg75
(lp643
S'text/html,application/xhtml+xml,application/xml;q=0.9,*/*;q=0.8'
p644
asbasbasbag68
(g84
g70
NtRp645
(dp646
g73
(dp647
sg82
g463
sg75
(lp648
g68
(g89
g70
NtRp649
(dp650
g73
(dp651
g93
g94
ssg82
g645
sg75
(lp652
S'http_accept_charset'
p653
asbag68
(g89
g70
NtRp654
(dp655
g73
(dp656
g100
g101
ssg82
g645
sg75
(lp657
S':'
asbag68
(g89
g70
NtRp658
(dp659
g73
(dp660
sg82
g645
sg75
(lp661
g68
(g69
g70
NtRp662
(dp663
g73
(dp664
g81
I4
ssg82
g658
sg75
(lp665
S'ISO-8859-1,utf-8;q=0.7,*;q=0.3'
p666
asbasbasbag68
(g84
g70
NtRp667
(dp668
g73
(dp669
sg82
g463
sg75
(lp670
g68
(g89
g70
NtRp671
(dp672
g73
(dp673
g93
g94
ssg82
g667
sg75
(lp674
S'http_accept_encoding'
p675
asbag68
(g89
g70
NtRp676
(dp677
g73
(dp678
g100
g101
ssg82
g667
sg75
(lp679
S':'
asbag68
(g89
g70
NtRp680
(dp681
g73
(dp682
sg82
g667
sg75
(lp683
g68
(g69
g70
NtRp684
(dp685
g73
(dp686
g81
I4
ssg82
g680
sg75
(lp687
S'gzip,deflate,sdch'
p688
asbasbasbag68
(g84
g70
NtRp689
(dp690
g73
(dp691
sg82
g463
sg75
(lp692
g68
(g89
g70
NtRp693
(dp694
g73
(dp695
g93
g94
ssg82
g689
sg75
(lp696
S'http_accept_language'
p697
asbag68
(g89
g70
NtRp698
(dp699
g73
(dp700
g100
g101
ssg82
g689
sg75
(lp701
S':'
asbag68
(g89
g70
NtRp702
(dp703
g73
(dp704
sg82
g689
sg75
(lp705
g68
(g69
g70
NtRp706
(dp707
g73
(dp708
g81
I4
ssg82
g702
sg75
(lp709
S'en-GB,en-US;q=0.8,en;q=0.6'
p710
asbasbasbag68
(g84
g70
NtRp711
(dp712
g73
(dp713
sg82
g463
sg75
(lp714
g68
(g89
g70
NtRp715
(dp716
g73
(dp717
g93
g94
ssg82
g711
sg75
(lp718
S'http_connection'
p719
asbag68
(g89
g70
NtRp720
(dp721
g73
(dp722
g100
g101
ssg82
g711
sg75
(lp723
S':'
asbag68
(g89
g70
NtRp724
(dp725
g73
(dp726
sg82
g711
sg75
(lp727
g68
(g69
g70
NtRp728
(dp729
g73
(dp730
g81
I4
ssg82
g724
sg75
(lp731
S'keep-alive'
p732
asbasbasbag68
(g84
g70
NtRp733
(dp734
g73
(dp735
sg82
g463
sg75
(lp736
g68
(g89
g70
NtRp737
(dp738
g73
(dp739
g93
g94
ssg82
g733
sg75
(lp740
S'http_cookie'
p741
asbag68
(g89
g70
NtRp742
(dp743
g73
(dp744
g100
g101
ssg82
g733
sg75
(lp745
S':'
asbag68
(g89
g70
NtRp746
(dp747
g73
(dp748
sg82
g733
sg75
(lp749
g68
(g69
g70
NtRp750
(dp751
g73
(dp752
g81
I4
ssg82
g746
sg75
(lp753
S'__utma=96992031.1341095576.1342842403.1350749135.1350757383.77; __utmz=96992031.1342842403.1.1.utmcsr=(direct)|utmccn=(direct)|utmcmd=(none); session_id_profile=127.0.0.1-705ecf42-2523-439a-a625-be15e3037f20'
p754
asbasbasbag68
(g84
g70
NtRp755
(dp756
g73
(dp757
sg82
g463
sg75
(lp758
g68
(g89
g70
NtRp759
(dp760
g73
(dp761
g93
g94
ssg82
g755
sg75
(lp762
S'http_host'
p763
asbag68
(g89
g70
NtRp764
(dp765
g73
(dp766
g100
g101
ssg82
g755
sg75
(lp767
S':'
asbag68
(g89
g70
NtRp768
(dp769
g73
(dp770
sg82
g755
sg75
(lp771
g68
(g69
g70
NtRp772
(dp773
g73
(dp774
g81
I4
ssg82
g768
sg75
(lp775
S'127.0.0.1:8002'
p776
asbasbasbag68
(g84
g70
NtRp777
(dp778
g73
(dp779
sg82
g463
sg75
(lp780
g68
(g89
g70
NtRp781
(dp782
g73
(dp783
g93
g94
ssg82
g777
sg75
(lp784
S'http_user_agent'
p785
asbag68
(g89
g70
NtRp786
(dp787
g73
(dp788
g100
g101
ssg82
g777
sg75
(lp789
S':'
asbag68
(g89
g70
NtRp790
(dp791
g73
(dp792
sg82
g777
sg75
(lp793
g68
(g69
g70
NtRp794
(dp795
g73
(dp796
g81
I4
ssg82
g790
sg75
(lp797
S'Mozilla/5.0 (Windows NT 6.1; WOW64) AppleWebKit/537.4 (KHTML, like Gecko) Chrome/22.0.1229.94 Safari/537.4'
p798
asbasbasbag68
(g84
g70
NtRp799
(dp800
g73
(dp801
sg82
g463
sg75
(lp802
g68
(g89
g70
NtRp803
(dp804
g73
(dp805
g93
g94
ssg82
g799
sg75
(lp806
S'is_jython'
p807
asbag68
(g89
g70
NtRp808
(dp809
g73
(dp810
g100
g101
ssg82
g799
sg75
(lp811
S':'
asbag68
(g89
g70
NtRp812
(dp813
g73
(dp814
sg82
g799
sg75
(lp815
g68
(g69
g70
NtRp816
(dp817
g73
(dp818
g81
I4
ssg82
g812
sg75
(lp819
g111
asbasbasbag68
(g84
g70
NtRp820
(dp821
g73
(dp822
sg82
g463
sg75
(lp823
g68
(g89
g70
NtRp824
(dp825
g73
(dp826
g93
g94
ssg82
g820
sg75
(lp827
S'is_pypy'
p828
asbag68
(g89
g70
NtRp829
(dp830
g73
(dp831
g100
g101
ssg82
g820
sg75
(lp832
S':'
asbag68
(g89
g70
NtRp833
(dp834
g73
(dp835
sg82
g820
sg75
(lp836
g68
(g69
g70
NtRp837
(dp838
g73
(dp839
g81
I4
ssg82
g833
sg75
(lp840
g111
asbasbasbag68
(g84
g70
NtRp841
(dp842
g73
(dp843
sg82
g463
sg75
(lp844
g68
(g89
g70
NtRp845
(dp846
g73
(dp847
g93
g94
ssg82
g841
sg75
(lp848
S'path_info'
p849
asbag68
(g89
g70
NtRp850
(dp851
g73
(dp852
g100
g101
ssg82
g841
sg75
(lp853
S':'
asbag68
(g89
g70
NtRp854
(dp855
g73
(dp856
sg82
g841
sg75
(lp857
g68
(g69
g70
NtRp858
(dp859
g73
(dp860
g81
I4
ssg82
g854
sg75
(lp861
S'/profile/fun/jigsaw'
p862
asbasbasbag68
(g84
g70
NtRp863
(dp864
g73
(dp865
sg82
g463
sg75
(lp866
g68
(g89
g70
NtRp867
(dp868
g73
(dp869
g93
g94
ssg82
g863
sg75
(lp870
S'query_string'
p871
asbag68
(g89
g70
NtRp872
(dp873
g73
(dp874
g100
g101
ssg82
g863
sg75
(lp875
S':'
asbag68
(g89
g70
NtRp876
(dp877
g73
(dp878
sg82
g863
sg75
(lp879
g68
(g69
g70
NtRp880
(dp881
g73
(dp882
g81
I4
ssg82
g876
sg75
(lp883
S''
asbasbasbag68
(g84
g70
NtRp884
(dp885
g73
(dp886
sg82
g463
sg75
(lp887
g68
(g89
g70
NtRp888
(dp889
g73
(dp890
g93
g94
ssg82
g884
sg75
(lp891
S'remote_addr'
p892
asbag68
(g89
g70
NtRp893
(dp894
g73
(dp895
g100
g101
ssg82
g884
sg75
(lp896
S':'
asbag68
(g89
g70
NtRp897
(dp898
g73
(dp899
sg82
g884
sg75
(lp900
g68
(g69
g70
NtRp901
(dp902
g73
(dp903
g81
I4
ssg82
g897
sg75
(lp904
g201
asbasbasbag68
(g84
g70
NtRp905
(dp906
g73
(dp907
sg82
g463
sg75
(lp908
g68
(g89
g70
NtRp909
(dp910
g73
(dp911
g93
g94
ssg82
g905
sg75
(lp912
S'remote_port'
p913
asbag68
(g89
g70
NtRp914
(dp915
g73
(dp916
g100
g101
ssg82
g905
sg75
(lp917
S':'
asbag68
(g89
g70
NtRp918
(dp919
g73
(dp920
sg82
g905
sg75
(lp921
g68
(g69
g70
NtRp922
(dp923
g73
(dp924
g81
I4
ssg82
g918
sg75
(lp925
S'54612'
p926
asbasbasbag68
(g84
g70
NtRp927
(dp928
g73
(dp929
sg82
g463
sg75
(lp930
g68
(g89
g70
NtRp931
(dp932
g73
(dp933
g93
g94
ssg82
g927
sg75
(lp934
S'request_method'
p935
asbag68
(g89
g70
NtRp936
(dp937
g73
(dp938
g100
g101
ssg82
g927
sg75
(lp939
S':'
asbag68
(g89
g70
NtRp940
(dp941
g73
(dp942
sg82
g927
sg75
(lp943
g68
(g69
g70
NtRp944
(dp945
g73
(dp946
g81
I4
ssg82
g940
sg75
(lp947
S'GET'
p948
asbasbasbag68
(g84
g70
NtRp949
(dp950
g73
(dp951
sg82
g463
sg75
(lp952
g68
(g89
g70
NtRp953
(dp954
g73
(dp955
g93
g94
ssg82
g949
sg75
(lp956
S'request_uri'
p957
asbag68
(g89
g70
NtRp958
(dp959
g73
(dp960
g100
g101
ssg82
g949
sg75
(lp961
S':'
asbag68
(g89
g70
NtRp962
(dp963
g73
(dp964
sg82
g949
sg75
(lp965
g68
(g69
g70
NtRp966
(dp967
g73
(dp968
g81
I4
ssg82
g962
sg75
(lp969
g862
asbasbasbag68
(g84
g70
NtRp970
(dp971
g73
(dp972
sg82
g463
sg75
(lp973
g68
(g89
g70
NtRp974
(dp975
g73
(dp976
g93
g94
ssg82
g970
sg75
(lp977
S'script_name'
p978
asbag68
(g89
g70
NtRp979
(dp980
g73
(dp981
g100
g101
ssg82
g970
sg75
(lp982
S':'
asbag68
(g89
g70
NtRp983
(dp984
g73
(dp985
sg82
g970
sg75
(lp986
g68
(g69
g70
NtRp987
(dp988
g73
(dp989
g81
I4
ssg82
g983
sg75
(lp990
S''
asbasbasbag68
(g84
g70
NtRp991
(dp992
g73
(dp993
sg82
g463
sg75
(lp994
g68
(g89
g70
NtRp995
(dp996
g73
(dp997
g93
g94
ssg82
g991
sg75
(lp998
S'server_name'
p999
asbag68
(g89
g70
NtRp1000
(dp1001
g73
(dp1002
g100
g101
ssg82
g991
sg75
(lp1003
S':'
asbag68
(g89
g70
NtRp1004
(dp1005
g73
(dp1006
sg82
g991
sg75
(lp1007
g68
(g69
g70
NtRp1008
(dp1009
g73
(dp1010
g81
I4
ssg82
g1004
sg75
(lp1011
S'Sablasticus-hp'
p1012
asbasbasbag68
(g84
g70
NtRp1013
(dp1014
g73
(dp1015
sg82
g463
sg75
(lp1016
g68
(g89
g70
NtRp1017
(dp1018
g73
(dp1019
g93
g94
ssg82
g1013
sg75
(lp1020
S'server_port'
p1021
asbag68
(g89
g70
NtRp1022
(dp1023
g73
(dp1024
g100
g101
ssg82
g1013
sg75
(lp1025
S':'
asbag68
(g89
g70
NtRp1026
(dp1027
g73
(dp1028
sg82
g1013
sg75
(lp1029
g68
(g69
g70
NtRp1030
(dp1031
g73
(dp1032
g81
I4
ssg82
g1026
sg75
(lp1033
S'8002'
p1034
asbasbasbag68
(g84
g70
NtRp1035
(dp1036
g73
(dp1037
sg82
g463
sg75
(lp1038
g68
(g89
g70
NtRp1039
(dp1040
g73
(dp1041
g93
g94
ssg82
g1035
sg75
(lp1042
S'server_protocol'
p1043
asbag68
(g89
g70
NtRp1044
(dp1045
g73
(dp1046
g100
g101
ssg82
g1035
sg75
(lp1047
S':'
asbag68
(g89
g70
NtRp1048
(dp1049
g73
(dp1050
sg82
g1035
sg75
(lp1051
g68
(g69
g70
NtRp1052
(dp1053
g73
(dp1054
g81
I4
ssg82
g1048
sg75
(lp1055
S'HTTP/1.1'
p1056
asbasbasbag68
(g84
g70
NtRp1057
(dp1058
g73
(dp1059
sg82
g463
sg75
(lp1060
g68
(g89
g70
NtRp1061
(dp1062
g73
(dp1063
g93
g94
ssg82
g1057
sg75
(lp1064
S'server_software'
p1065
asbag68
(g89
g70
NtRp1066
(dp1067
g73
(dp1068
g100
g101
ssg82
g1057
sg75
(lp1069
S':'
asbag68
(g89
g70
NtRp1070
(dp1071
g73
(dp1072
sg82
g1057
sg75
(lp1073
g68
(g69
g70
NtRp1074
(dp1075
g73
(dp1076
g81
I4
ssg82
g1070
sg75
(lp1077
S'Rocket 1.2.4'
p1078
asbasbasbag68
(g84
g70
NtRp1079
(dp1080
g73
(dp1081
sg82
g463
sg75
(lp1082
g68
(g89
g70
NtRp1083
(dp1084
g73
(dp1085
g93
g94
ssg82
g1079
sg75
(lp1086
S'web2py_crontype'
p1087
asbag68
(g89
g70
NtRp1088
(dp1089
g73
(dp1090
g100
g101
ssg82
g1079
sg75
(lp1091
S':'
asbag68
(g89
g70
NtRp1092
(dp1093
g73
(dp1094
sg82
g1079
sg75
(lp1095
g68
(g69
g70
NtRp1096
(dp1097
g73
(dp1098
g81
I4
ssg82
g1092
sg75
(lp1099
S'hard'
p1100
asbasbasbag68
(g84
g70
NtRp1101
(dp1102
g73
(dp1103
sg82
g463
sg75
(lp1104
g68
(g89
g70
NtRp1105
(dp1106
g73
(dp1107
g93
g94
ssg82
g1101
sg75
(lp1108
S'web2py_original_uri'
p1109
asbag68
(g89
g70
NtRp1110
(dp1111
g73
(dp1112
g100
g101
ssg82
g1101
sg75
(lp1113
S':'
asbag68
(g89
g70
NtRp1114
(dp1115
g73
(dp1116
sg82
g1101
sg75
(lp1117
g68
(g69
g70
NtRp1118
(dp1119
g73
(dp1120
g81
I4
ssg82
g1114
sg75
(lp1121
g862
asbasbasbag68
(g84
g70
NtRp1122
(dp1123
g73
(dp1124
sg82
g463
sg75
(lp1125
g68
(g89
g70
NtRp1126
(dp1127
g73
(dp1128
g93
g94
ssg82
g1122
sg75
(lp1129
S'web2py_path'
p1130
asbag68
(g89
g70
NtRp1131
(dp1132
g73
(dp1133
g100
g101
ssg82
g1122
sg75
(lp1134
S':'
asbag68
(g89
g70
NtRp1135
(dp1136
g73
(dp1137
sg82
g1122
sg75
(lp1138
g68
(g69
g70
NtRp1139
(dp1140
g73
(dp1141
g81
I4
ssg82
g1135
sg75
(lp1142
g510
asbasbasbag68
(g84
g70
NtRp1143
(dp1144
g73
(dp1145
sg82
g463
sg75
(lp1146
g68
(g89
g70
NtRp1147
(dp1148
g73
(dp1149
g93
g94
ssg82
g1143
sg75
(lp1150
S'web2py_version'
p1151
asbag68
(g89
g70
NtRp1152
(dp1153
g73
(dp1154
g100
g101
ssg82
g1143
sg75
(lp1155
S':'
asbag68
(g89
g70
NtRp1156
(dp1157
g73
(dp1158
sg82
g1143
sg75
(lp1159
g68
(g69
g70
NtRp1160
(dp1161
g73
(dp1162
g81
I4
ssg82
g1156
sg75
(lp1163
g68
(g77
g70
NtRp1164
(dp1165
g73
(dp1166
g81
I3
ssg82
Nsg75
(lp1167
g68
(g84
g70
NtRp1168
(dp1169
g73
(dp1170
sg82
g1164
sg75
(lp1171
g68
(g89
g70
NtRp1172
(dp1173
g73
(dp1174
sg82
g1168
sg75
(lp1175
g68
(g69
g70
NtRp1176
(dp1177
g73
(dp1178
g81
I3
ssg82
g1172
sg75
(lp1179
S'1'
asbasbasbag68
(g84
g70
NtRp1180
(dp1181
g73
(dp1182
sg82
g1164
sg75
(lp1183
g68
(g89
g70
NtRp1184
(dp1185
g73
(dp1186
sg82
g1180
sg75
(lp1187
g68
(g69
g70
NtRp1188
(dp1189
g73
(dp1190
g81
I3
ssg82
g1184
sg75
(lp1191
S'99'
p1192
asbasbasbag68
(g84
g70
NtRp1193
(dp1194
g73
(dp1195
sg82
g1164
sg75
(lp1196
g68
(g89
g70
NtRp1197
(dp1198
g73
(dp1199
sg82
g1193
sg75
(lp1200
g68
(g69
g70
NtRp1201
(dp1202
g73
(dp1203
g81
I3
ssg82
g1197
sg75
(lp1204
S'4'
asbasbasbag68
(g84
g70
NtRp1205
(dp1206
g73
(dp1207
sg82
g1164
sg75
(lp1208
g68
(g89
g70
NtRp1209
(dp1210
g73
(dp1211
sg82
g1205
sg75
(lp1212
g68
(g69
g70
NtRp1213
(dp1214
g73
(dp1215
g81
I3
ssg82
g1209
sg75
(lp1216
S'datetime.datetime(2011, 12, 14, 14, 46, 14)'
p1217
asbasbasbag68
(g84
g70
NtRp1218
(dp1219
g73
(dp1220
sg82
g1164
sg75
(lp1221
g68
(g89
g70
NtRp1222
(dp1223
g73
(dp1224
sg82
g1218
sg75
(lp1225
g68
(g69
g70
NtRp1226
(dp1227
g73
(dp1228
g81
I3
ssg82
g1222
sg75
(lp1229
S'stable'
p1230
asbasbasbasbasbasbasbag68
(g84
g70
NtRp1231
(dp1232
g73
(dp1233
sg82
g463
sg75
(lp1234
g68
(g89
g70
NtRp1235
(dp1236
g73
(dp1237
g93
g94
ssg82
g1231
sg75
(lp1238
S'wsgi_errors'
p1239
asbag68
(g89
g70
NtRp1240
(dp1241
g73
(dp1242
g100
g101
ssg82
g1231
sg75
(lp1243
S':'
asbag68
(g89
g70
NtRp1244
(dp1245
g73
(dp1246
sg82
g1231
sg75
(lp1247
g68
(g69
g70
NtRp1248
(dp1249
g73
(dp1250
g81
I4
ssg82
g1244
sg75
(lp1251
S"<open file '<stderr>', mode 'w' at 0x0000000001D2E1E0>"
p1252
asbasbasbag68
(g84
g70
NtRp1253
(dp1254
g73
(dp1255
sg82
g463
sg75
(lp1256
g68
(g89
g70
NtRp1257
(dp1258
g73
(dp1259
g93
g94
ssg82
g1253
sg75
(lp1260
S'wsgi_file_wrapper'
p1261
asbag68
(g89
g70
NtRp1262
(dp1263
g73
(dp1264
g100
g101
ssg82
g1253
sg75
(lp1265
S':'
asbag68
(g89
g70
NtRp1266
(dp1267
g73
(dp1268
sg82
g1253
sg75
(lp1269
g68
(g69
g70
NtRp1270
(dp1271
g73
(dp1272
g81
I4
ssg82
g1266
sg75
(lp1273
S'<class wsgiref.util.FileWrapper at 0x0000000003769588>'
p1274
asbasbasbag68
(g84
g70
NtRp1275
(dp1276
g73
(dp1277
sg82
g463
sg75
(lp1278
g68
(g89
g70
NtRp1279
(dp1280
g73
(dp1281
g93
g94
ssg82
g1275
sg75
(lp1282
S'wsgi_input'
p1283
asbag68
(g89
g70
NtRp1284
(dp1285
g73
(dp1286
g100
g101
ssg82
g1275
sg75
(lp1287
S':'
asbag68
(g89
g70
NtRp1288
(dp1289
g73
(dp1290
sg82
g1275
sg75
(lp1291
g68
(g69
g70
NtRp1292
(dp1293
g73
(dp1294
g81
I4
ssg82
g1288
sg75
(lp1295
S'<socket._fileobject object at 0x0000000005C46E58>'
p1296
asbasbasbag68
(g84
g70
NtRp1297
(dp1298
g73
(dp1299
sg82
g463
sg75
(lp1300
g68
(g89
g70
NtRp1301
(dp1302
g73
(dp1303
g93
g94
ssg82
g1297
sg75
(lp1304
S'wsgi_multiprocess'
p1305
asbag68
(g89
g70
NtRp1306
(dp1307
g73
(dp1308
g100
g101
ssg82
g1297
sg75
(lp1309
S':'
asbag68
(g89
g70
NtRp1310
(dp1311
g73
(dp1312
sg82
g1297
sg75
(lp1313
g68
(g69
g70
NtRp1314
(dp1315
g73
(dp1316
g81
I4
ssg82
g1310
sg75
(lp1317
g111
asbasbasbag68
(g84
g70
NtRp1318
(dp1319
g73
(dp1320
sg82
g463
sg75
(lp1321
g68
(g89
g70
NtRp1322
(dp1323
g73
(dp1324
g93
g94
ssg82
g1318
sg75
(lp1325
S'wsgi_multithread'
p1326
asbag68
(g89
g70
NtRp1327
(dp1328
g73
(dp1329
g100
g101
ssg82
g1318
sg75
(lp1330
S':'
asbag68
(g89
g70
NtRp1331
(dp1332
g73
(dp1333
sg82
g1318
sg75
(lp1334
g68
(g69
g70
NtRp1335
(dp1336
g73
(dp1337
g81
I4
ssg82
g1331
sg75
(lp1338
S'True'
p1339
asbasbasbag68
(g84
g70
NtRp1340
(dp1341
g73
(dp1342
sg82
g463
sg75
(lp1343
g68
(g89
g70
NtRp1344
(dp1345
g73
(dp1346
g93
g94
ssg82
g1340
sg75
(lp1347
S'wsgi_run_once'
p1348
asbag68
(g89
g70
NtRp1349
(dp1350
g73
(dp1351
g100
g101
ssg82
g1340
sg75
(lp1352
S':'
asbag68
(g89
g70
NtRp1353
(dp1354
g73
(dp1355
sg82
g1340
sg75
(lp1356
g68
(g69
g70
NtRp1357
(dp1358
g73
(dp1359
g81
I4
ssg82
g1353
sg75
(lp1360
g111
asbasbasbag68
(g84
g70
NtRp1361
(dp1362
g73
(dp1363
sg82
g463
sg75
(lp1364
g68
(g89
g70
NtRp1365
(dp1366
g73
(dp1367
g93
g94
ssg82
g1361
sg75
(lp1368
S'wsgi_url_scheme'
p1369
asbag68
(g89
g70
NtRp1370
(dp1371
g73
(dp1372
g100
g101
ssg82
g1361
sg75
(lp1373
S':'
asbag68
(g89
g70
NtRp1374
(dp1375
g73
(dp1376
sg82
g1361
sg75
(lp1377
g68
(g69
g70
NtRp1378
(dp1379
g73
(dp1380
g81
I4
ssg82
g1374
sg75
(lp1381
S'http'
p1382
asbasbasbag68
(g84
g70
NtRp1383
(dp1384
g73
(dp1385
sg82
g463
sg75
(lp1386
g68
(g89
g70
NtRp1387
(dp1388
g73
(dp1389
g93
g94
ssg82
g1383
sg75
(lp1390
S'wsgi_version'
p1391
asbag68
(g89
g70
NtRp1392
(dp1393
g73
(dp1394
g100
g101
ssg82
g1383
sg75
(lp1395
S':'
asbag68
(g89
g70
NtRp1396
(dp1397
g73
(dp1398
sg82
g1383
sg75
(lp1399
g68
(g69
g70
NtRp1400
(dp1401
g73
(dp1402
g81
I4
ssg82
g1396
sg75
(lp1403
g68
(g77
g70
NtRp1404
(dp1405
g73
(dp1406
g81
I3
ssg82
Nsg75
(lp1407
g68
(g84
g70
NtRp1408
(dp1409
g73
(dp1410
sg82
g1404
sg75
(lp1411
g68
(g89
g70
NtRp1412
(dp1413
g73
(dp1414
sg82
g1408
sg75
(lp1415
g68
(g69
g70
NtRp1416
(dp1417
g73
(dp1418
g81
I3
ssg82
g1412
sg75
(lp1419
S'1'
asbasbasbag68
(g84
g70
NtRp1420
(dp1421
g73
(dp1422
sg82
g1404
sg75
(lp1423
g68
(g89
g70
NtRp1424
(dp1425
g73
(dp1426
sg82
g1420
sg75
(lp1427
g68
(g69
g70
NtRp1428
(dp1429
g73
(dp1430
g81
I3
ssg82
g1424
sg75
(lp1431
S'0'
asbasbasbasbasbasbasbasbasbasbasbag68
(g84
g70
NtRp1432
(dp1433
g73
(dp1434
sg82
g78
sg75
(lp1435
g68
(g89
g70
NtRp1436
(dp1437
g73
(dp1438
g93
g94
ssg82
g1432
sg75
(lp1439
S'extension'
p1440
asbag68
(g89
g70
NtRp1441
(dp1442
g73
(dp1443
g100
g101
ssg82
g1432
sg75
(lp1444
S':'
asbag68
(g89
g70
NtRp1445
(dp1446
g73
(dp1447
sg82
g1432
sg75
(lp1448
g68
(g69
g70
NtRp1449
(dp1450
g73
(dp1451
g81
I5
ssg82
g1445
sg75
(lp1452
S'html'
p1453
asbasbasbag68
(g84
g70
NtRp1454
(dp1455
g73
(dp1456
sg82
g78
sg75
(lp1457
g68
(g89
g70
NtRp1458
(dp1459
g73
(dp1460
g93
g94
ssg82
g1454
sg75
(lp1461
S'folder'
p1462
asbag68
(g89
g70
NtRp1463
(dp1464
g73
(dp1465
g100
g101
ssg82
g1454
sg75
(lp1466
S':'
asbag68
(g89
g70
NtRp1467
(dp1468
g73
(dp1469
sg82
g1454
sg75
(lp1470
g68
(g69
g70
NtRp1471
(dp1472
g73
(dp1473
g81
I5
ssg82
g1467
sg75
(lp1474
S'C:\\webapps\\ben\\project\\profile\\web2py\\applications\\profile\\'
p1475
asbasbasbag68
(g84
g70
NtRp1476
(dp1477
g73
(dp1478
sg82
g78
sg75
(lp1479
g68
(g89
g70
NtRp1480
(dp1481
g73
(dp1482
g93
g94
ssg82
g1476
sg75
(lp1483
S'function'
p1484
asbag68
(g89
g70
NtRp1485
(dp1486
g73
(dp1487
g100
g101
ssg82
g1476
sg75
(lp1488
S':'
asbag68
(g89
g70
NtRp1489
(dp1490
g73
(dp1491
sg82
g1476
sg75
(lp1492
g68
(g69
g70
NtRp1493
(dp1494
g73
(dp1495
g81
I5
ssg82
g1489
sg75
(lp1496
S'jigsaw'
p1497
asbasbasbag68
(g84
g70
NtRp1498
(dp1499
g73
(dp1500
sg82
g78
sg75
(lp1501
g68
(g89
g70
NtRp1502
(dp1503
g73
(dp1504
g93
g94
ssg82
g1498
sg75
(lp1505
S'get_vars'
p1506
asbag68
(g89
g70
NtRp1507
(dp1508
g73
(dp1509
g100
g101
ssg82
g1498
sg75
(lp1510
S':'
asbag68
(g89
g70
NtRp1511
(dp1512
g73
(dp1513
sg82
g1498
sg75
(lp1514
g68
(g69
g70
NtRp1515
(dp1516
g73
(dp1517
g81
I5
ssg82
g1511
sg75
(lp1518
g68
(g77
g70
NtRp1519
(dp1520
g73
(dp1521
g81
I4
ssg82
Nsg75
(lp1522
sbasbasbasbag68
(g84
g70
NtRp1523
(dp1524
g73
(dp1525
sg82
g78
sg75
(lp1526
g68
(g89
g70
NtRp1527
(dp1528
g73
(dp1529
g93
g94
ssg82
g1523
sg75
(lp1530
S'global_settings'
p1531
asbag68
(g89
g70
NtRp1532
(dp1533
g73
(dp1534
g100
g101
ssg82
g1523
sg75
(lp1535
S':'
asbag68
(g89
g70
NtRp1536
(dp1537
g73
(dp1538
sg82
g1523
sg75
(lp1539
g68
(g69
g70
NtRp1540
(dp1541
g73
(dp1542
g81
I5
ssg82
g1536
sg75
(lp1543
g68
(g77
g70
NtRp1544
(dp1545
g73
(dp1546
g81
I4
ssg82
Nsg75
(lp1547
g68
(g84
g70
NtRp1548
(dp1549
g73
(dp1550
sg82
g1544
sg75
(lp1551
g68
(g89
g70
NtRp1552
(dp1553
g73
(dp1554
g93
g94
ssg82
g1548
sg75
(lp1555
g475
asbag68
(g89
g70
NtRp1556
(dp1557
g73
(dp1558
g100
g101
ssg82
g1548
sg75
(lp1559
S':'
asbag68
(g89
g70
NtRp1560
(dp1561
g73
(dp1562
sg82
g1548
sg75
(lp1563
g68
(g69
g70
NtRp1564
(dp1565
g73
(dp1566
g81
I4
ssg82
g1560
sg75
(lp1567
S"set(['C:\\\\webapps\\\\ben\\\\project\\\\profile\\\\web2py\\\\applications\\\\profile\\\\'])"
p1568
asbasbasbag68
(g84
g70
NtRp1569
(dp1570
g73
(dp1571
sg82
g1544
sg75
(lp1572
g68
(g89
g70
NtRp1573
(dp1574
g73
(dp1575
g93
g94
ssg82
g1569
sg75
(lp1576
g497
asbag68
(g89
g70
NtRp1577
(dp1578
g73
(dp1579
g100
g101
ssg82
g1569
sg75
(lp1580
S':'
asbag68
(g89
g70
NtRp1581
(dp1582
g73
(dp1583
sg82
g1569
sg75
(lp1584
g68
(g69
g70
NtRp1585
(dp1586
g73
(dp1587
g81
I4
ssg82
g1581
sg75
(lp1588
g510
asbasbasbag68
(g84
g70
NtRp1589
(dp1590
g73
(dp1591
sg82
g1544
sg75
(lp1592
g68
(g89
g70
NtRp1593
(dp1594
g73
(dp1595
g93
g94
ssg82
g1589
sg75
(lp1596
g519
asbag68
(g89
g70
NtRp1597
(dp1598
g73
(dp1599
g100
g101
ssg82
g1589
sg75
(lp1600
S':'
asbag68
(g89
g70
NtRp1601
(dp1602
g73
(dp1603
sg82
g1589
sg75
(lp1604
g68
(g69
g70
NtRp1605
(dp1606
g73
(dp1607
g81
I4
ssg82
g1601
sg75
(lp1608
g68
(g77
g70
NtRp1609
(dp1610
g73
(dp1611
g81
I3
ssg82
Nsg75
(lp1612
sbasbasbasbag68
(g84
g70
NtRp1613
(dp1614
g73
(dp1615
sg82
g1544
sg75
(lp1616
g68
(g89
g70
NtRp1617
(dp1618
g73
(dp1619
g93
g94
ssg82
g1613
sg75
(lp1620
g544
asbag68
(g89
g70
NtRp1621
(dp1622
g73
(dp1623
g100
g101
ssg82
g1613
sg75
(lp1624
S':'
asbag68
(g89
g70
NtRp1625
(dp1626
g73
(dp1627
sg82
g1613
sg75
(lp1628
g68
(g69
g70
NtRp1629
(dp1630
g73
(dp1631
g81
I4
ssg82
g1625
sg75
(lp1632
S"<Values at 0x3880588: {'verbose': False, 'ip': '127.0.0.1', 'shutdown_timeout': 5, 'taskbar': False, 'nocron': False, 'pid_filename': 'httpserver.pid', 'maxthreads': None, 'softcron': False, 'server_name': 'Sablasticus-hp', 'bpython': False, 'nogui': False, 'port': 8000, 'extcron': False, 'debuglevel': 30, 'test': None, 'folder': 'C:\\\\webapps\\\\ben\\\\project\\\\profile\\\\web2py', 'config': '', 'import_models': False, 'winservice': '', 'shell': None, 'run': '', 'log_filename': 'httpserver.log', 'args': [''], 'socket_timeout': 1, 'ssl_ca_certificate': None, 'scheduler': None, 'profiler_filename': None, 'ssl_private_key': '', 'password': '<ask>', 'request_queue_size': 5, 'ssl_certificate': '', 'cronjob': False, 'numthreads': None, 'quiet': False, 'interfaces': None, 'minthreads': None, 'timeout': 10, 'plain': False, 'nobanner': False}>"
p1633
asbasbasbag68
(g84
g70
NtRp1634
(dp1635
g73
(dp1636
sg82
g1544
sg75
(lp1637
g68
(g89
g70
NtRp1638
(dp1639
g73
(dp1640
g93
g94
ssg82
g1634
sg75
(lp1641
g566
asbag68
(g89
g70
NtRp1642
(dp1643
g73
(dp1644
g100
g101
ssg82
g1634
sg75
(lp1645
S':'
asbag68
(g89
g70
NtRp1646
(dp1647
g73
(dp1648
sg82
g1634
sg75
(lp1649
g68
(g69
g70
NtRp1650
(dp1651
g73
(dp1652
g81
I4
ssg82
g1646
sg75
(lp1653
S'set([])'
p1654
asbasbasbag68
(g84
g70
NtRp1655
(dp1656
g73
(dp1657
sg82
g1544
sg75
(lp1658
g68
(g89
g70
NtRp1659
(dp1660
g73
(dp1661
g93
g94
ssg82
g1655
sg75
(lp1662
g588
asbag68
(g89
g70
NtRp1663
(dp1664
g73
(dp1665
g100
g101
ssg82
g1655
sg75
(lp1666
S':'
asbag68
(g89
g70
NtRp1667
(dp1668
g73
(dp1669
sg82
g1655
sg75
(lp1670
g68
(g69
g70
NtRp1671
(dp1672
g73
(dp1673
g81
I4
ssg82
g1667
sg75
(lp1674
g111
asbasbasbag68
(g84
g70
NtRp1675
(dp1676
g73
(dp1677
sg82
g1544
sg75
(lp1678
g68
(g89
g70
NtRp1679
(dp1680
g73
(dp1681
g93
g94
ssg82
g1675
sg75
(lp1682
g609
asbag68
(g89
g70
NtRp1683
(dp1684
g73
(dp1685
g100
g101
ssg82
g1675
sg75
(lp1686
S':'
asbag68
(g89
g70
NtRp1687
(dp1688
g73
(dp1689
sg82
g1675
sg75
(lp1690
g68
(g69
g70
NtRp1691
(dp1692
g73
(dp1693
g81
I4
ssg82
g1687
sg75
(lp1694
g622
asbasbasbag68
(g84
g70
NtRp1695
(dp1696
g73
(dp1697
sg82
g1544
sg75
(lp1698
g68
(g89
g70
NtRp1699
(dp1700
g73
(dp1701
g93
g94
ssg82
g1695
sg75
(lp1702
g807
asbag68
(g89
g70
NtRp1703
(dp1704
g73
(dp1705
g100
g101
ssg82
g1695
sg75
(lp1706
S':'
asbag68
(g89
g70
NtRp1707
(dp1708
g73
(dp1709
sg82
g1695
sg75
(lp1710
g68
(g69
g70
NtRp1711
(dp1712
g73
(dp1713
g81
I4
ssg82
g1707
sg75
(lp1714
g111
asbasbasbag68
(g84
g70
NtRp1715
(dp1716
g73
(dp1717
sg82
g1544
sg75
(lp1718
g68
(g89
g70
NtRp1719
(dp1720
g73
(dp1721
g93
g94
ssg82
g1715
sg75
(lp1722
g828
asbag68
(g89
g70
NtRp1723
(dp1724
g73
(dp1725
g100
g101
ssg82
g1715
sg75
(lp1726
S':'
asbag68
(g89
g70
NtRp1727
(dp1728
g73
(dp1729
sg82
g1715
sg75
(lp1730
g68
(g69
g70
NtRp1731
(dp1732
g73
(dp1733
g81
I4
ssg82
g1727
sg75
(lp1734
g111
asbasbasbag68
(g84
g70
NtRp1735
(dp1736
g73
(dp1737
sg82
g1544
sg75
(lp1738
g68
(g89
g70
NtRp1739
(dp1740
g73
(dp1741
g93
g94
ssg82
g1735
sg75
(lp1742
g1087
asbag68
(g89
g70
NtRp1743
(dp1744
g73
(dp1745
g100
g101
ssg82
g1735
sg75
(lp1746
S':'
asbag68
(g89
g70
NtRp1747
(dp1748
g73
(dp1749
sg82
g1735
sg75
(lp1750
g68
(g69
g70
NtRp1751
(dp1752
g73
(dp1753
g81
I4
ssg82
g1747
sg75
(lp1754
g1100
asbasbasbag68
(g84
g70
NtRp1755
(dp1756
g73
(dp1757
sg82
g1544
sg75
(lp1758
g68
(g89
g70
NtRp1759
(dp1760
g73
(dp1761
g93
g94
ssg82
g1755
sg75
(lp1762
g1151
asbag68
(g89
g70
NtRp1763
(dp1764
g73
(dp1765
g100
g101
ssg82
g1755
sg75
(lp1766
S':'
asbag68
(g89
g70
NtRp1767
(dp1768
g73
(dp1769
sg82
g1755
sg75
(lp1770
g68
(g69
g70
NtRp1771
(dp1772
g73
(dp1773
g81
I4
ssg82
g1767
sg75
(lp1774
g68
(g77
g70
NtRp1775
(dp1776
g73
(dp1777
g81
I3
ssg82
Nsg75
(lp1778
g68
(g84
g70
NtRp1779
(dp1780
g73
(dp1781
sg82
g1775
sg75
(lp1782
g68
(g89
g70
NtRp1783
(dp1784
g73
(dp1785
sg82
g1779
sg75
(lp1786
g68
(g69
g70
NtRp1787
(dp1788
g73
(dp1789
g81
I3
ssg82
g1783
sg75
(lp1790
S'1'
asbasbasbag68
(g84
g70
NtRp1791
(dp1792
g73
(dp1793
sg82
g1775
sg75
(lp1794
g68
(g89
g70
NtRp1795
(dp1796
g73
(dp1797
sg82
g1791
sg75
(lp1798
g68
(g69
g70
NtRp1799
(dp1800
g73
(dp1801
g81
I3
ssg82
g1795
sg75
(lp1802
S'99'
p1803
asbasbasbag68
(g84
g70
NtRp1804
(dp1805
g73
(dp1806
sg82
g1775
sg75
(lp1807
g68
(g89
g70
NtRp1808
(dp1809
g73
(dp1810
sg82
g1804
sg75
(lp1811
g68
(g69
g70
NtRp1812
(dp1813
g73
(dp1814
g81
I3
ssg82
g1808
sg75
(lp1815
S'4'
asbasbasbag68
(g84
g70
NtRp1816
(dp1817
g73
(dp1818
sg82
g1775
sg75
(lp1819
g68
(g89
g70
NtRp1820
(dp1821
g73
(dp1822
sg82
g1816
sg75
(lp1823
g68
(g69
g70
NtRp1824
(dp1825
g73
(dp1826
g81
I3
ssg82
g1820
sg75
(lp1827
S'datetime.datetime(2011, 12, 14, 14, 46, 14)'
p1828
asbasbasbag68
(g84
g70
NtRp1829
(dp1830
g73
(dp1831
sg82
g1775
sg75
(lp1832
g68
(g89
g70
NtRp1833
(dp1834
g73
(dp1835
sg82
g1829
sg75
(lp1836
g68
(g69
g70
NtRp1837
(dp1838
g73
(dp1839
g81
I3
ssg82
g1833
sg75
(lp1840
g1230
asbasbasbasbasbasbasbasbasbasbasbag68
(g84
g70
NtRp1841
(dp1842
g73
(dp1843
sg82
g78
sg75
(lp1844
g68
(g89
g70
NtRp1845
(dp1846
g73
(dp1847
g93
g94
ssg82
g1841
sg75
(lp1848
S'is_https'
p1849
asbag68
(g89
g70
NtRp1850
(dp1851
g73
(dp1852
g100
g101
ssg82
g1841
sg75
(lp1853
S':'
asbag68
(g89
g70
NtRp1854
(dp1855
g73
(dp1856
sg82
g1841
sg75
(lp1857
g68
(g69
g70
NtRp1858
(dp1859
g73
(dp1860
g81
I5
ssg82
g1854
sg75
(lp1861
g111
asbasbasbag68
(g84
g70
NtRp1862
(dp1863
g73
(dp1864
sg82
g78
sg75
(lp1865
g68
(g89
g70
NtRp1866
(dp1867
g73
(dp1868
g93
g94
ssg82
g1862
sg75
(lp1869
S'is_local'
p1870
asbag68
(g89
g70
NtRp1871
(dp1872
g73
(dp1873
g100
g101
ssg82
g1862
sg75
(lp1874
S':'
asbag68
(g89
g70
NtRp1875
(dp1876
g73
(dp1877
sg82
g1862
sg75
(lp1878
g68
(g69
g70
NtRp1879
(dp1880
g73
(dp1881
g81
I5
ssg82
g1875
sg75
(lp1882
g1339
asbasbasbag68
(g84
g70
NtRp1883
(dp1884
g73
(dp1885
sg82
g78
sg75
(lp1886
g68
(g89
g70
NtRp1887
(dp1888
g73
(dp1889
g93
g94
ssg82
g1883
sg75
(lp1890
S'is_restful'
p1891
asbag68
(g89
g70
NtRp1892
(dp1893
g73
(dp1894
g100
g101
ssg82
g1883
sg75
(lp1895
S':'
asbag68
(g89
g70
NtRp1896
(dp1897
g73
(dp1898
sg82
g1883
sg75
(lp1899
g68
(g69
g70
NtRp1900
(dp1901
g73
(dp1902
g81
I5
ssg82
g1896
sg75
(lp1903
g111
asbasbasbag68
(g84
g70
NtRp1904
(dp1905
g73
(dp1906
sg82
g78
sg75
(lp1907
g68
(g89
g70
NtRp1908
(dp1909
g73
(dp1910
g93
g94
ssg82
g1904
sg75
(lp1911
S'now'
p1912
asbag68
(g89
g70
NtRp1913
(dp1914
g73
(dp1915
g100
g101
ssg82
g1904
sg75
(lp1916
S':'
asbag68
(g89
g70
NtRp1917
(dp1918
g73
(dp1919
sg82
g1904
sg75
(lp1920
g68
(g69
g70
NtRp1921
(dp1922
g73
(dp1923
g81
I5
ssg82
g1917
sg75
(lp1924
S'datetime.datetime(2012, 11, 1, 11, 44, 27, 947000)'
p1925
asbasbasbag68
(g84
g70
NtRp1926
(dp1927
g73
(dp1928
sg82
g78
sg75
(lp1929
g68
(g89
g70
NtRp1930
(dp1931
g73
(dp1932
g93
g94
ssg82
g1926
sg75
(lp1933
S'post_vars'
p1934
asbag68
(g89
g70
NtRp1935
(dp1936
g73
(dp1937
g100
g101
ssg82
g1926
sg75
(lp1938
S':'
asbag68
(g89
g70
NtRp1939
(dp1940
g73
(dp1941
sg82
g1926
sg75
(lp1942
g68
(g69
g70
NtRp1943
(dp1944
g73
(dp1945
g81
I5
ssg82
g1939
sg75
(lp1946
g68
(g77
g70
NtRp1947
(dp1948
g73
(dp1949
g81
I4
ssg82
Nsg75
(lp1950
sbasbasbasbag68
(g84
g70
NtRp1951
(dp1952
g73
(dp1953
sg82
g78
sg75
(lp1954
g68
(g89
g70
NtRp1955
(dp1956
g73
(dp1957
g93
g94
ssg82
g1951
sg75
(lp1958
S'url'
p1959
asbag68
(g89
g70
NtRp1960
(dp1961
g73
(dp1962
g100
g101
ssg82
g1951
sg75
(lp1963
S':'
asbag68
(g89
g70
NtRp1964
(dp1965
g73
(dp1966
sg82
g1951
sg75
(lp1967
g68
(g69
g70
NtRp1968
(dp1969
g73
(dp1970
g81
I5
ssg82
g1964
sg75
(lp1971
S'/profile/fun/jigsaw'
p1972
asbasbasbag68
(g84
g70
NtRp1973
(dp1974
g73
(dp1975
sg82
g78
sg75
(lp1976
g68
(g89
g70
NtRp1977
(dp1978
g73
(dp1979
g93
g94
ssg82
g1973
sg75
(lp1980
S'utcnow'
p1981
asbag68
(g89
g70
NtRp1982
(dp1983
g73
(dp1984
g100
g101
ssg82
g1973
sg75
(lp1985
S':'
asbag68
(g89
g70
NtRp1986
(dp1987
g73
(dp1988
sg82
g1973
sg75
(lp1989
g68
(g69
g70
NtRp1990
(dp1991
g73
(dp1992
g81
I5
ssg82
g1986
sg75
(lp1993
S'datetime.datetime(2012, 11, 1, 0, 44, 27, 947000)'
p1994
asbasbasbag68
(g84
g70
NtRp1995
(dp1996
g73
(dp1997
sg82
g78
sg75
(lp1998
g68
(g89
g70
NtRp1999
(dp2000
g73
(dp2001
g93
g94
ssg82
g1995
sg75
(lp2002
S'uuid'
p2003
asbag68
(g89
g70
NtRp2004
(dp2005
g73
(dp2006
g100
g101
ssg82
g1995
sg75
(lp2007
S':'
asbag68
(g89
g70
NtRp2008
(dp2009
g73
(dp2010
sg82
g1995
sg75
(lp2011
g68
(g69
g70
NtRp2012
(dp2013
g73
(dp2014
g81
I5
ssg82
g2008
sg75
(lp2015
S'profile/127.0.0.1.2012-11-01.11-44-27.7099c545-7b0e-4562-8c7f-28fab53f522a'
p2016
asbasbasbag68
(g84
g70
NtRp2017
(dp2018
g73
(dp2019
sg82
g78
sg75
(lp2020
g68
(g89
g70
NtRp2021
(dp2022
g73
(dp2023
g93
g94
ssg82
g2017
sg75
(lp2024
S'vars'
p2025
asbag68
(g89
g70
NtRp2026
(dp2027
g73
(dp2028
g100
g101
ssg82
g2017
sg75
(lp2029
S':'
asbag68
(g89
g70
NtRp2030
(dp2031
g73
(dp2032
sg82
g2017
sg75
(lp2033
g68
(g69
g70
NtRp2034
(dp2035
g73
(dp2036
g81
I5
ssg82
g2030
sg75
(lp2037
g68
(g77
g70
NtRp2038
(dp2039
g73
(dp2040
g81
I4
ssg82
Nsg75
(lp2041
sbasbasbasbag68
(g84
g70
NtRp2042
(dp2043
g73
(dp2044
sg82
g78
sg75
(lp2045
g68
(g89
g70
NtRp2046
(dp2047
g73
(dp2048
g93
g94
ssg82
g2042
sg75
(lp2049
S'wsgi'
p2050
asbag68
(g89
g70
NtRp2051
(dp2052
g73
(dp2053
g100
g101
ssg82
g2042
sg75
(lp2054
S':'
asbag68
(g89
g70
NtRp2055
(dp2056
g73
(dp2057
sg82
g2042
sg75
(lp2058
g68
(g69
g70
NtRp2059
(dp2060
g73
(dp2061
g81
I5
ssg82
g2055
sg75
(lp2062
g68
(g77
g70
NtRp2063
(dp2064
g73
(dp2065
g81
I4
ssg82
Nsg75
(lp2066
g68
(g84
g70
NtRp2067
(dp2068
g73
(dp2069
sg82
g2063
sg75
(lp2070
g68
(g89
g70
NtRp2071
(dp2072
g73
(dp2073
g93
g94
ssg82
g2067
sg75
(lp2074
S'environ'
p2075
asbag68
(g89
g70
NtRp2076
(dp2077
g73
(dp2078
g100
g101
ssg82
g2067
sg75
(lp2079
S':'
asbag68
(g89
g70
NtRp2080
(dp2081
g73
(dp2082
sg82
g2067
sg75
(lp2083
g68
(g69
g70
NtRp2084
(dp2085
g73
(dp2086
g81
I4
ssg82
g2080
sg75
(lp2087
g68
(g77
g70
NtRp2088
(dp2089
g73
(dp2090
g81
I3
ssg82
Nsg75
(lp2091
g68
(g84
g70
NtRp2092
(dp2093
g73
(dp2094
sg82
g2088
sg75
(lp2095
g68
(g89
g70
NtRp2096
(dp2097
g73
(dp2098
g93
g94
ssg82
g2092
sg75
(lp2099
S'HTTP_ACCEPT'
p2100
asbag68
(g89
g70
NtRp2101
(dp2102
g73
(dp2103
g100
g101
ssg82
g2092
sg75
(lp2104
S':'
asbag68
(g89
g70
NtRp2105
(dp2106
g73
(dp2107
sg82
g2092
sg75
(lp2108
g68
(g69
g70
NtRp2109
(dp2110
g73
(dp2111
g81
I3
ssg82
g2105
sg75
(lp2112
g644
asbasbasbag68
(g84
g70
NtRp2113
(dp2114
g73
(dp2115
sg82
g2088
sg75
(lp2116
g68
(g89
g70
NtRp2117
(dp2118
g73
(dp2119
g93
g94
ssg82
g2113
sg75
(lp2120
S'HTTP_ACCEPT_CHARSET'
p2121
asbag68
(g89
g70
NtRp2122
(dp2123
g73
(dp2124
g100
g101
ssg82
g2113
sg75
(lp2125
S':'
asbag68
(g89
g70
NtRp2126
(dp2127
g73
(dp2128
sg82
g2113
sg75
(lp2129
g68
(g69
g70
NtRp2130
(dp2131
g73
(dp2132
g81
I3
ssg82
g2126
sg75
(lp2133
g666
asbasbasbag68
(g84
g70
NtRp2134
(dp2135
g73
(dp2136
sg82
g2088
sg75
(lp2137
g68
(g89
g70
NtRp2138
(dp2139
g73
(dp2140
g93
g94
ssg82
g2134
sg75
(lp2141
S'HTTP_ACCEPT_ENCODING'
p2142
asbag68
(g89
g70
NtRp2143
(dp2144
g73
(dp2145
g100
g101
ssg82
g2134
sg75
(lp2146
S':'
asbag68
(g89
g70
NtRp2147
(dp2148
g73
(dp2149
sg82
g2134
sg75
(lp2150
g68
(g69
g70
NtRp2151
(dp2152
g73
(dp2153
g81
I3
ssg82
g2147
sg75
(lp2154
g688
asbasbasbag68
(g84
g70
NtRp2155
(dp2156
g73
(dp2157
sg82
g2088
sg75
(lp2158
g68
(g89
g70
NtRp2159
(dp2160
g73
(dp2161
g93
g94
ssg82
g2155
sg75
(lp2162
S'HTTP_ACCEPT_LANGUAGE'
p2163
asbag68
(g89
g70
NtRp2164
(dp2165
g73
(dp2166
g100
g101
ssg82
g2155
sg75
(lp2167
S':'
asbag68
(g89
g70
NtRp2168
(dp2169
g73
(dp2170
sg82
g2155
sg75
(lp2171
g68
(g69
g70
NtRp2172
(dp2173
g73
(dp2174
g81
I3
ssg82
g2168
sg75
(lp2175
g710
asbasbasbag68
(g84
g70
NtRp2176
(dp2177
g73
(dp2178
sg82
g2088
sg75
(lp2179
g68
(g89
g70
NtRp2180
(dp2181
g73
(dp2182
g93
g94
ssg82
g2176
sg75
(lp2183
S'HTTP_CONNECTION'
p2184
asbag68
(g89
g70
NtRp2185
(dp2186
g73
(dp2187
g100
g101
ssg82
g2176
sg75
(lp2188
S':'
asbag68
(g89
g70
NtRp2189
(dp2190
g73
(dp2191
sg82
g2176
sg75
(lp2192
g68
(g69
g70
NtRp2193
(dp2194
g73
(dp2195
g81
I3
ssg82
g2189
sg75
(lp2196
g732
asbasbasbag68
(g84
g70
NtRp2197
(dp2198
g73
(dp2199
sg82
g2088
sg75
(lp2200
g68
(g89
g70
NtRp2201
(dp2202
g73
(dp2203
g93
g94
ssg82
g2197
sg75
(lp2204
S'HTTP_COOKIE'
p2205
asbag68
(g89
g70
NtRp2206
(dp2207
g73
(dp2208
g100
g101
ssg82
g2197
sg75
(lp2209
S':'
asbag68
(g89
g70
NtRp2210
(dp2211
g73
(dp2212
sg82
g2197
sg75
(lp2213
g68
(g69
g70
NtRp2214
(dp2215
g73
(dp2216
g81
I3
ssg82
g2210
sg75
(lp2217
g754
asbasbasbag68
(g84
g70
NtRp2218
(dp2219
g73
(dp2220
sg82
g2088
sg75
(lp2221
g68
(g89
g70
NtRp2222
(dp2223
g73
(dp2224
g93
g94
ssg82
g2218
sg75
(lp2225
S'HTTP_HOST'
p2226
asbag68
(g89
g70
NtRp2227
(dp2228
g73
(dp2229
g100
g101
ssg82
g2218
sg75
(lp2230
S':'
asbag68
(g89
g70
NtRp2231
(dp2232
g73
(dp2233
sg82
g2218
sg75
(lp2234
g68
(g69
g70
NtRp2235
(dp2236
g73
(dp2237
g81
I3
ssg82
g2231
sg75
(lp2238
g776
asbasbasbag68
(g84
g70
NtRp2239
(dp2240
g73
(dp2241
sg82
g2088
sg75
(lp2242
g68
(g89
g70
NtRp2243
(dp2244
g73
(dp2245
g93
g94
ssg82
g2239
sg75
(lp2246
S'HTTP_USER_AGENT'
p2247
asbag68
(g89
g70
NtRp2248
(dp2249
g73
(dp2250
g100
g101
ssg82
g2239
sg75
(lp2251
S':'
asbag68
(g89
g70
NtRp2252
(dp2253
g73
(dp2254
sg82
g2239
sg75
(lp2255
g68
(g69
g70
NtRp2256
(dp2257
g73
(dp2258
g81
I3
ssg82
g2252
sg75
(lp2259
g798
asbasbasbag68
(g84
g70
NtRp2260
(dp2261
g73
(dp2262
sg82
g2088
sg75
(lp2263
g68
(g89
g70
NtRp2264
(dp2265
g73
(dp2266
g93
g94
ssg82
g2260
sg75
(lp2267
S'PATH_INFO'
p2268
asbag68
(g89
g70
NtRp2269
(dp2270
g73
(dp2271
g100
g101
ssg82
g2260
sg75
(lp2272
S':'
asbag68
(g89
g70
NtRp2273
(dp2274
g73
(dp2275
sg82
g2260
sg75
(lp2276
g68
(g69
g70
NtRp2277
(dp2278
g73
(dp2279
g81
I3
ssg82
g2273
sg75
(lp2280
g862
asbasbasbag68
(g84
g70
NtRp2281
(dp2282
g73
(dp2283
sg82
g2088
sg75
(lp2284
g68
(g89
g70
NtRp2285
(dp2286
g73
(dp2287
g93
g94
ssg82
g2281
sg75
(lp2288
S'QUERY_STRING'
p2289
asbag68
(g89
g70
NtRp2290
(dp2291
g73
(dp2292
g100
g101
ssg82
g2281
sg75
(lp2293
S':'
asbag68
(g89
g70
NtRp2294
(dp2295
g73
(dp2296
sg82
g2281
sg75
(lp2297
g68
(g69
g70
NtRp2298
(dp2299
g73
(dp2300
g81
I3
ssg82
g2294
sg75
(lp2301
S''
asbasbasbag68
(g84
g70
NtRp2302
(dp2303
g73
(dp2304
sg82
g2088
sg75
(lp2305
g68
(g89
g70
NtRp2306
(dp2307
g73
(dp2308
g93
g94
ssg82
g2302
sg75
(lp2309
S'REMOTE_ADDR'
p2310
asbag68
(g89
g70
NtRp2311
(dp2312
g73
(dp2313
g100
g101
ssg82
g2302
sg75
(lp2314
S':'
asbag68
(g89
g70
NtRp2315
(dp2316
g73
(dp2317
sg82
g2302
sg75
(lp2318
g68
(g69
g70
NtRp2319
(dp2320
g73
(dp2321
g81
I3
ssg82
g2315
sg75
(lp2322
g201
asbasbasbag68
(g84
g70
NtRp2323
(dp2324
g73
(dp2325
sg82
g2088
sg75
(lp2326
g68
(g89
g70
NtRp2327
(dp2328
g73
(dp2329
g93
g94
ssg82
g2323
sg75
(lp2330
S'REMOTE_PORT'
p2331
asbag68
(g89
g70
NtRp2332
(dp2333
g73
(dp2334
g100
g101
ssg82
g2323
sg75
(lp2335
S':'
asbag68
(g89
g70
NtRp2336
(dp2337
g73
(dp2338
sg82
g2323
sg75
(lp2339
g68
(g69
g70
NtRp2340
(dp2341
g73
(dp2342
g81
I3
ssg82
g2336
sg75
(lp2343
g926
asbasbasbag68
(g84
g70
NtRp2344
(dp2345
g73
(dp2346
sg82
g2088
sg75
(lp2347
g68
(g89
g70
NtRp2348
(dp2349
g73
(dp2350
g93
g94
ssg82
g2344
sg75
(lp2351
S'REQUEST_METHOD'
p2352
asbag68
(g89
g70
NtRp2353
(dp2354
g73
(dp2355
g100
g101
ssg82
g2344
sg75
(lp2356
S':'
asbag68
(g89
g70
NtRp2357
(dp2358
g73
(dp2359
sg82
g2344
sg75
(lp2360
g68
(g69
g70
NtRp2361
(dp2362
g73
(dp2363
g81
I3
ssg82
g2357
sg75
(lp2364
g948
asbasbasbag68
(g84
g70
NtRp2365
(dp2366
g73
(dp2367
sg82
g2088
sg75
(lp2368
g68
(g89
g70
NtRp2369
(dp2370
g73
(dp2371
g93
g94
ssg82
g2365
sg75
(lp2372
S'REQUEST_URI'
p2373
asbag68
(g89
g70
NtRp2374
(dp2375
g73
(dp2376
g100
g101
ssg82
g2365
sg75
(lp2377
S':'
asbag68
(g89
g70
NtRp2378
(dp2379
g73
(dp2380
sg82
g2365
sg75
(lp2381
g68
(g69
g70
NtRp2382
(dp2383
g73
(dp2384
g81
I3
ssg82
g2378
sg75
(lp2385
g862
asbasbasbag68
(g84
g70
NtRp2386
(dp2387
g73
(dp2388
sg82
g2088
sg75
(lp2389
g68
(g89
g70
NtRp2390
(dp2391
g73
(dp2392
g93
g94
ssg82
g2386
sg75
(lp2393
S'SCRIPT_NAME'
p2394
asbag68
(g89
g70
NtRp2395
(dp2396
g73
(dp2397
g100
g101
ssg82
g2386
sg75
(lp2398
S':'
asbag68
(g89
g70
NtRp2399
(dp2400
g73
(dp2401
sg82
g2386
sg75
(lp2402
g68
(g69
g70
NtRp2403
(dp2404
g73
(dp2405
g81
I3
ssg82
g2399
sg75
(lp2406
S''
asbasbasbag68
(g84
g70
NtRp2407
(dp2408
g73
(dp2409
sg82
g2088
sg75
(lp2410
g68
(g89
g70
NtRp2411
(dp2412
g73
(dp2413
g93
g94
ssg82
g2407
sg75
(lp2414
S'SERVER_NAME'
p2415
asbag68
(g89
g70
NtRp2416
(dp2417
g73
(dp2418
g100
g101
ssg82
g2407
sg75
(lp2419
S':'
asbag68
(g89
g70
NtRp2420
(dp2421
g73
(dp2422
sg82
g2407
sg75
(lp2423
g68
(g69
g70
NtRp2424
(dp2425
g73
(dp2426
g81
I3
ssg82
g2420
sg75
(lp2427
g1012
asbasbasbag68
(g84
g70
NtRp2428
(dp2429
g73
(dp2430
sg82
g2088
sg75
(lp2431
g68
(g89
g70
NtRp2432
(dp2433
g73
(dp2434
g93
g94
ssg82
g2428
sg75
(lp2435
S'SERVER_PORT'
p2436
asbag68
(g89
g70
NtRp2437
(dp2438
g73
(dp2439
g100
g101
ssg82
g2428
sg75
(lp2440
S':'
asbag68
(g89
g70
NtRp2441
(dp2442
g73
(dp2443
sg82
g2428
sg75
(lp2444
g68
(g69
g70
NtRp2445
(dp2446
g73
(dp2447
g81
I3
ssg82
g2441
sg75
(lp2448
g1034
asbasbasbag68
(g84
g70
NtRp2449
(dp2450
g73
(dp2451
sg82
g2088
sg75
(lp2452
g68
(g89
g70
NtRp2453
(dp2454
g73
(dp2455
g93
g94
ssg82
g2449
sg75
(lp2456
S'SERVER_PROTOCOL'
p2457
asbag68
(g89
g70
NtRp2458
(dp2459
g73
(dp2460
g100
g101
ssg82
g2449
sg75
(lp2461
S':'
asbag68
(g89
g70
NtRp2462
(dp2463
g73
(dp2464
sg82
g2449
sg75
(lp2465
g68
(g69
g70
NtRp2466
(dp2467
g73
(dp2468
g81
I3
ssg82
g2462
sg75
(lp2469
g1056
asbasbasbag68
(g84
g70
NtRp2470
(dp2471
g73
(dp2472
sg82
g2088
sg75
(lp2473
g68
(g89
g70
NtRp2474
(dp2475
g73
(dp2476
g93
g94
ssg82
g2470
sg75
(lp2477
S'SERVER_SOFTWARE'
p2478
asbag68
(g89
g70
NtRp2479
(dp2480
g73
(dp2481
g100
g101
ssg82
g2470
sg75
(lp2482
S':'
asbag68
(g89
g70
NtRp2483
(dp2484
g73
(dp2485
sg82
g2470
sg75
(lp2486
g68
(g69
g70
NtRp2487
(dp2488
g73
(dp2489
g81
I3
ssg82
g2483
sg75
(lp2490
g1078
asbasbasbag68
(g84
g70
NtRp2491
(dp2492
g73
(dp2493
sg82
g2088
sg75
(lp2494
g68
(g89
g70
NtRp2495
(dp2496
g73
(dp2497
g93
g94
ssg82
g2491
sg75
(lp2498
S'WEB2PY_ORIGINAL_URI'
p2499
asbag68
(g89
g70
NtRp2500
(dp2501
g73
(dp2502
g100
g101
ssg82
g2491
sg75
(lp2503
S':'
asbag68
(g89
g70
NtRp2504
(dp2505
g73
(dp2506
sg82
g2491
sg75
(lp2507
g68
(g69
g70
NtRp2508
(dp2509
g73
(dp2510
g81
I3
ssg82
g2504
sg75
(lp2511
g862
asbasbasbag68
(g84
g70
NtRp2512
(dp2513
g73
(dp2514
sg82
g2088
sg75
(lp2515
g68
(g89
g70
NtRp2516
(dp2517
g73
(dp2518
g93
g94
ssg82
g2512
sg75
(lp2519
S'wsgi.errors'
p2520
asbag68
(g89
g70
NtRp2521
(dp2522
g73
(dp2523
g100
g101
ssg82
g2512
sg75
(lp2524
S':'
asbag68
(g89
g70
NtRp2525
(dp2526
g73
(dp2527
sg82
g2512
sg75
(lp2528
g68
(g69
g70
NtRp2529
(dp2530
g73
(dp2531
g81
I3
ssg82
g2525
sg75
(lp2532
S"<open file '<stderr>', mode 'w' at 0x0000000001D2E1E0>"
p2533
asbasbasbag68
(g84
g70
NtRp2534
(dp2535
g73
(dp2536
sg82
g2088
sg75
(lp2537
g68
(g89
g70
NtRp2538
(dp2539
g73
(dp2540
g93
g94
ssg82
g2534
sg75
(lp2541
S'wsgi.file_wrapper'
p2542
asbag68
(g89
g70
NtRp2543
(dp2544
g73
(dp2545
g100
g101
ssg82
g2534
sg75
(lp2546
S':'
asbag68
(g89
g70
NtRp2547
(dp2548
g73
(dp2549
sg82
g2534
sg75
(lp2550
g68
(g69
g70
NtRp2551
(dp2552
g73
(dp2553
g81
I3
ssg82
g2547
sg75
(lp2554
S'<class wsgiref.util.FileWrapper at 0x0000000003769588>'
p2555
asbasbasbag68
(g84
g70
NtRp2556
(dp2557
g73
(dp2558
sg82
g2088
sg75
(lp2559
g68
(g89
g70
NtRp2560
(dp2561
g73
(dp2562
g93
g94
ssg82
g2556
sg75
(lp2563
S'wsgi.input'
p2564
asbag68
(g89
g70
NtRp2565
(dp2566
g73
(dp2567
g100
g101
ssg82
g2556
sg75
(lp2568
S':'
asbag68
(g89
g70
NtRp2569
(dp2570
g73
(dp2571
sg82
g2556
sg75
(lp2572
g68
(g69
g70
NtRp2573
(dp2574
g73
(dp2575
g81
I3
ssg82
g2569
sg75
(lp2576
S'<cStringIO.StringO object at 0x0000000005C6E730>'
p2577
asbasbasbag68
(g84
g70
NtRp2578
(dp2579
g73
(dp2580
sg82
g2088
sg75
(lp2581
g68
(g89
g70
NtRp2582
(dp2583
g73
(dp2584
g93
g94
ssg82
g2578
sg75
(lp2585
S'wsgi.multiprocess'
p2586
asbag68
(g89
g70
NtRp2587
(dp2588
g73
(dp2589
g100
g101
ssg82
g2578
sg75
(lp2590
S':'
asbag68
(g89
g70
NtRp2591
(dp2592
g73
(dp2593
sg82
g2578
sg75
(lp2594
g68
(g69
g70
NtRp2595
(dp2596
g73
(dp2597
g81
I3
ssg82
g2591
sg75
(lp2598
g111
asbasbasbag68
(g84
g70
NtRp2599
(dp2600
g73
(dp2601
sg82
g2088
sg75
(lp2602
g68
(g89
g70
NtRp2603
(dp2604
g73
(dp2605
g93
g94
ssg82
g2599
sg75
(lp2606
S'wsgi.multithread'
p2607
asbag68
(g89
g70
NtRp2608
(dp2609
g73
(dp2610
g100
g101
ssg82
g2599
sg75
(lp2611
S':'
asbag68
(g89
g70
NtRp2612
(dp2613
g73
(dp2614
sg82
g2599
sg75
(lp2615
g68
(g69
g70
NtRp2616
(dp2617
g73
(dp2618
g81
I3
ssg82
g2612
sg75
(lp2619
g1339
asbasbasbag68
(g84
g70
NtRp2620
(dp2621
g73
(dp2622
sg82
g2088
sg75
(lp2623
g68
(g89
g70
NtRp2624
(dp2625
g73
(dp2626
g93
g94
ssg82
g2620
sg75
(lp2627
S'wsgi.run_once'
p2628
asbag68
(g89
g70
NtRp2629
(dp2630
g73
(dp2631
g100
g101
ssg82
g2620
sg75
(lp2632
S':'
asbag68
(g89
g70
NtRp2633
(dp2634
g73
(dp2635
sg82
g2620
sg75
(lp2636
g68
(g69
g70
NtRp2637
(dp2638
g73
(dp2639
g81
I3
ssg82
g2633
sg75
(lp2640
g111
asbasbasbag68
(g84
g70
NtRp2641
(dp2642
g73
(dp2643
sg82
g2088
sg75
(lp2644
g68
(g89
g70
NtRp2645
(dp2646
g73
(dp2647
g93
g94
ssg82
g2641
sg75
(lp2648
S'wsgi.url_scheme'
p2649
asbag68
(g89
g70
NtRp2650
(dp2651
g73
(dp2652
g100
g101
ssg82
g2641
sg75
(lp2653
S':'
asbag68
(g89
g70
NtRp2654
(dp2655
g73
(dp2656
sg82
g2641
sg75
(lp2657
g68
(g69
g70
NtRp2658
(dp2659
g73
(dp2660
g81
I3
ssg82
g2654
sg75
(lp2661
g1382
asbasbasbag68
(g84
g70
NtRp2662
(dp2663
g73
(dp2664
sg82
g2088
sg75
(lp2665
g68
(g89
g70
NtRp2666
(dp2667
g73
(dp2668
g93
g94
ssg82
g2662
sg75
(lp2669
S'wsgi.version'
p2670
asbag68
(g89
g70
NtRp2671
(dp2672
g73
(dp2673
g100
g101
ssg82
g2662
sg75
(lp2674
S':'
asbag68
(g89
g70
NtRp2675
(dp2676
g73
(dp2677
sg82
g2662
sg75
(lp2678
g68
(g69
g70
NtRp2679
(dp2680
g73
(dp2681
g81
I3
ssg82
g2675
sg75
(lp2682
S'1'
asbasbasbasbasbasbasbasbasbasbasbasbasbsS'frames'
p2683
(lp2684
(dp2685
S'file'
p2686
S'C:\\webapps\\ben\\project\\profile\\web2py\\gluon\\restricted.py'
p2687
sS'dump'
p2688
(dp2689
S'code'
p2690
S'"response.write(\'\\\\r\\\\n\', escape=False)\\nresponse.wr...write(\'\\\\r\\\\n</body>\\\\r\\\\n</html>\\\\r\\\\n\', escape=False)"'
p2691
sS'layer'
p2692
S"r'C:\\webapps\\ben\\project\\profile\\web2py\\applications\\profile\\views\\fun/jigsaw.html'"
p2693
sS'global compile2'
p2694
S'<function compile2>'
p2695
sS'ccode'
p2696
S'undefined'
p2697
ssS'lnum'
p2698
I203
sS'lines'
p2699
(dp2700
I198
S"    environment['__file__'] = layer"
p2701
sI199
S'    try:'
p2702
sI200
S'        if type(code) == types.CodeType:'
p2703
sI201
S'            ccode = code'
p2704
sI202
S'        else:'
p2705
sI203
S'            ccode = compile2(code,layer)'
p2706
sI204
S'        exec ccode in environment'
p2707
sI205
S'    except HTTP:'
p2708
sI206
S'        raise'
p2709
sI207
S'    except RestrictedError:'
p2710
ssS'call'
p2711
S'(code="response.write(\'\\\\r\\\\n\', escape=False)\\nresponse.wr...write(\'\\\\r\\\\n</body>\\\\r\\\\n</html>\\\\r\\\\n\', escape=False)", environment={\'A\': <class \'gluon.html.A\'>, \'Auth\': <class \'gluon.tools.Auth\'>, \'B\': <class \'gluon.html.B\'>, \'BEAUTIFY\': <class \'gluon.html.BEAUTIFY\'>, \'BODY\': <class \'gluon.html.BODY\'>, \'BR\': <class \'gluon.html.BR\'>, \'BUTTON\': <class \'gluon.html.BUTTON\'>, \'CAT\': <class \'gluon.html.CAT\'>, \'CENTER\': <class \'gluon.html.CENTER\'>, \'CLEANUP\': <class \'gluon.validators.CLEANUP\'>, ...}, layer=r\'C:\\webapps\\ben\\project\\profile\\web2py\\applications\\profile\\views\\fun/jigsaw.html\')'
p2712
sS'func'
p2713
S'restricted'
p2714
sa(dp2715
g2686
S'C:\\webapps\\ben\\project\\profile\\web2py\\gluon\\restricted.py'
p2716
sg2688
(dp2717
S'builtincompile'
p2718
S'<built-in function compile>'
p2719
sS'code'
p2720
S'"response.write(\'\\\\r\\\\n\', escape=False)\\nresponse.wr...write(\'\\\\r\\\\n</body>\\\\r\\\\n</html>\\\\r\\\\n\', escape=False)"'
p2721
sS'code.rstrip'
p2722
S'<built-in method rstrip of str object>'
p2723
sS').replace'
p2724
g2697
sS'layer'
p2725
S"r'C:\\webapps\\ben\\project\\profile\\web2py\\applications\\profile\\views\\fun/jigsaw.html'"
p2726
ssg2698
I189
sg2699
(dp2727
I192
S'    """'
p2728
sI193
S'    runs code in environment and returns the output. if an exception occurs'
p2729
sI184
S''
sI185
S'def compile2(code,layer):'
p2730
sI186
S'    """'
p2731
sI187
S"    The +'\\n' is necessary else compile fails when code ends in a comment."
p2732
sI188
S'    """'
p2733
sI189
S"    return compile(code.rstrip().replace('\\r\\n','\\n')+'\\n', layer, 'exec')"
p2734
sI190
S''
sI191
S"def restricted(code, environment=None, layer='Unknown'):"
p2735
ssg2711
S'(code="response.write(\'\\\\r\\\\n\', escape=False)\\nresponse.wr...write(\'\\\\r\\\\n</body>\\\\r\\\\n</html>\\\\r\\\\n\', escape=False)", layer=r\'C:\\webapps\\ben\\project\\profile\\web2py\\applications\\profile\\views\\fun/jigsaw.html\')'
p2736
sg2713
S'compile2'
p2737
sasS'pyver'
p2738
S'Python 2.7.2: C:\\Python27\\python.exe'
p2739
sS'session'
p2740
g68
(g69
g70
NtRp2741
(dp2742
g73
(dp2743
sg75
(lp2744
g68
(g77
g70
NtRp2745
(dp2746
g73
(dp2747
g81
I5
ssg82
Nsg75
(lp2748
sbasbsS'etype'
p2749
S"<type 'exceptions.SyntaxError'>"
p2750
sS'date'
p2751
S'Thu Nov 01 11:44:28 2012'
p2752
sS'response'
p2753
g68
(g69
g70
NtRp2754
(dp2755
g73
(dp2756
sg75
(lp2757
g68
(g77
g70
NtRp2758
(dp2759
g73
(dp2760
g81
I5
ssg82
Nsg75
(lp2761
g68
(g84
g70
NtRp2762
(dp2763
g73
(dp2764
sg82
g2758
sg75
(lp2765
g68
(g89
g70
NtRp2766
(dp2767
g73
(dp2768
g93
g94
ssg82
g2762
sg75
(lp2769
g166
asbag68
(g89
g70
NtRp2770
(dp2771
g73
(dp2772
g100
g101
ssg82
g2762
sg75
(lp2773
S':'
asbag68
(g89
g70
NtRp2774
(dp2775
g73
(dp2776
sg82
g2762
sg75
(lp2777
g68
(g69
g70
NtRp2778
(dp2779
g73
(dp2780
g81
I5
ssg82
g2774
sg75
(lp2781
S'<cStringIO.StringO object at 0x0000000005C6ED50>'
p2782
asbasbasbag68
(g84
g70
NtRp2783
(dp2784
g73
(dp2785
sg82
g2758
sg75
(lp2786
g68
(g89
g70
NtRp2787
(dp2788
g73
(dp2789
g93
g94
ssg82
g2783
sg75
(lp2790
g232
asbag68
(g89
g70
NtRp2791
(dp2792
g73
(dp2793
g100
g101
ssg82
g2783
sg75
(lp2794
S':'
asbag68
(g89
g70
NtRp2795
(dp2796
g73
(dp2797
sg82
g2783
sg75
(lp2798
g68
(g69
g70
NtRp2799
(dp2800
g73
(dp2801
g81
I5
ssg82
g2795
sg75
(lp2802
g68
(g77
g70
NtRp2803
(dp2804
g73
(dp2805
g81
I4
ssg82
Nsg75
(lp2806
g68
(g84
g70
NtRp2807
(dp2808
g73
(dp2809
sg82
g2803
sg75
(lp2810
g68
(g89
g70
NtRp2811
(dp2812
g73
(dp2813
g93
g94
ssg82
g2807
sg75
(lp2814
S'session_id_profile'
p2815
asbag68
(g89
g70
NtRp2816
(dp2817
g73
(dp2818
g100
g101
ssg82
g2807
sg75
(lp2819
S':'
asbag68
(g89
g70
NtRp2820
(dp2821
g73
(dp2822
sg82
g2807
sg75
(lp2823
g68
(g69
g70
NtRp2824
(dp2825
g73
(dp2826
g81
I4
ssg82
g2820
sg75
(lp2827
g68
(g77
g70
NtRp2828
(dp2829
g73
(dp2830
g81
I3
ssg82
Nsg75
(lp2831
g68
(g84
g70
NtRp2832
(dp2833
g73
(dp2834
sg82
g2828
sg75
(lp2835
g68
(g89
g70
NtRp2836
(dp2837
g73
(dp2838
g93
g94
ssg82
g2832
sg75
(lp2839
g282
asbag68
(g89
g70
NtRp2840
(dp2841
g73
(dp2842
g100
g101
ssg82
g2832
sg75
(lp2843
S':'
asbag68
(g89
g70
NtRp2844
(dp2845
g73
(dp2846
sg82
g2832
sg75
(lp2847
g68
(g69
g70
NtRp2848
(dp2849
g73
(dp2850
g81
I3
ssg82
g2844
sg75
(lp2851
S''
asbasbasbag68
(g84
g70
NtRp2852
(dp2853
g73
(dp2854
sg82
g2828
sg75
(lp2855
g68
(g89
g70
NtRp2856
(dp2857
g73
(dp2858
g93
g94
ssg82
g2852
sg75
(lp2859
g303
asbag68
(g89
g70
NtRp2860
(dp2861
g73
(dp2862
g100
g101
ssg82
g2852
sg75
(lp2863
S':'
asbag68
(g89
g70
NtRp2864
(dp2865
g73
(dp2866
sg82
g2852
sg75
(lp2867
g68
(g69
g70
NtRp2868
(dp2869
g73
(dp2870
g81
I3
ssg82
g2864
sg75
(lp2871
S''
asbasbasbag68
(g84
g70
NtRp2872
(dp2873
g73
(dp2874
sg82
g2828
sg75
(lp2875
g68
(g89
g70
NtRp2876
(dp2877
g73
(dp2878
g93
g94
ssg82
g2872
sg75
(lp2879
g324
asbag68
(g89
g70
NtRp2880
(dp2881
g73
(dp2882
g100
g101
ssg82
g2872
sg75
(lp2883
S':'
asbag68
(g89
g70
NtRp2884
(dp2885
g73
(dp2886
sg82
g2872
sg75
(lp2887
g68
(g69
g70
NtRp2888
(dp2889
g73
(dp2890
g81
I3
ssg82
g2884
sg75
(lp2891
S''
asbasbasbag68
(g84
g70
NtRp2892
(dp2893
g73
(dp2894
sg82
g2828
sg75
(lp2895
g68
(g89
g70
NtRp2896
(dp2897
g73
(dp2898
g93
g94
ssg82
g2892
sg75
(lp2899
g345
asbag68
(g89
g70
NtRp2900
(dp2901
g73
(dp2902
g100
g101
ssg82
g2892
sg75
(lp2903
S':'
asbag68
(g89
g70
NtRp2904
(dp2905
g73
(dp2906
sg82
g2892
sg75
(lp2907
g68
(g69
g70
NtRp2908
(dp2909
g73
(dp2910
g81
I3
ssg82
g2904
sg75
(lp2911
S''
asbasbasbag68
(g84
g70
NtRp2912
(dp2913
g73
(dp2914
sg82
g2828
sg75
(lp2915
g68
(g89
g70
NtRp2916
(dp2917
g73
(dp2918
g93
g94
ssg82
g2912
sg75
(lp2919
g366
asbag68
(g89
g70
NtRp2920
(dp2921
g73
(dp2922
g100
g101
ssg82
g2912
sg75
(lp2923
S':'
asbag68
(g89
g70
NtRp2924
(dp2925
g73
(dp2926
sg82
g2912
sg75
(lp2927
g68
(g69
g70
NtRp2928
(dp2929
g73
(dp2930
g81
I3
ssg82
g2924
sg75
(lp2931
S''
asbasbasbag68
(g84
g70
NtRp2932
(dp2933
g73
(dp2934
sg82
g2828
sg75
(lp2935
g68
(g89
g70
NtRp2936
(dp2937
g73
(dp2938
g93
g94
ssg82
g2932
sg75
(lp2939
g387
asbag68
(g89
g70
NtRp2940
(dp2941
g73
(dp2942
g100
g101
ssg82
g2932
sg75
(lp2943
S':'
asbag68
(g89
g70
NtRp2944
(dp2945
g73
(dp2946
sg82
g2932
sg75
(lp2947
g68
(g69
g70
NtRp2948
(dp2949
g73
(dp2950
g81
I3
ssg82
g2944
sg75
(lp2951
S'/'
asbasbasbag68
(g84
g70
NtRp2952
(dp2953
g73
(dp2954
sg82
g2828
sg75
(lp2955
g68
(g89
g70
NtRp2956
(dp2957
g73
(dp2958
g93
g94
ssg82
g2952
sg75
(lp2959
g408
asbag68
(g89
g70
NtRp2960
(dp2961
g73
(dp2962
g100
g101
ssg82
g2952
sg75
(lp2963
S':'
asbag68
(g89
g70
NtRp2964
(dp2965
g73
(dp2966
sg82
g2952
sg75
(lp2967
g68
(g69
g70
NtRp2968
(dp2969
g73
(dp2970
g81
I3
ssg82
g2964
sg75
(lp2971
S''
asbasbasbag68
(g84
g70
NtRp2972
(dp2973
g73
(dp2974
sg82
g2828
sg75
(lp2975
g68
(g89
g70
NtRp2976
(dp2977
g73
(dp2978
g93
g94
ssg82
g2972
sg75
(lp2979
g429
asbag68
(g89
g70
NtRp2980
(dp2981
g73
(dp2982
g100
g101
ssg82
g2972
sg75
(lp2983
S':'
asbag68
(g89
g70
NtRp2984
(dp2985
g73
(dp2986
sg82
g2972
sg75
(lp2987
g68
(g69
g70
NtRp2988
(dp2989
g73
(dp2990
g81
I3
ssg82
g2984
sg75
(lp2991
S''
asbasbasbasbasbasbasbasbasbasbasbag68
(g84
g70
NtRp2992
(dp2993
g73
(dp2994
sg82
g2758
sg75
(lp2995
g68
(g89
g70
NtRp2996
(dp2997
g73
(dp2998
g93
g94
ssg82
g2992
sg75
(lp2999
S'files'
p3000
asbag68
(g89
g70
NtRp3001
(dp3002
g73
(dp3003
g100
g101
ssg82
g2992
sg75
(lp3004
S':'
asbag68
(g89
g70
NtRp3005
(dp3006
g73
(dp3007
sg82
g2992
sg75
(lp3008
g68
(g69
g70
NtRp3009
(dp3010
g73
(dp3011
g81
I5
ssg82
g3005
sg75
(lp3012
g68
(g77
g70
NtRp3013
(dp3014
g73
(dp3015
g81
I4
ssg82
Nsg75
(lp3016
sbasbasbasbag68
(g84
g70
NtRp3017
(dp3018
g73
(dp3019
sg82
g2758
sg75
(lp3020
g68
(g89
g70
NtRp3021
(dp3022
g73
(dp3023
g93
g94
ssg82
g3017
sg75
(lp3024
S'flash'
p3025
asbag68
(g89
g70
NtRp3026
(dp3027
g73
(dp3028
g100
g101
ssg82
g3017
sg75
(lp3029
S':'
asbag68
(g89
g70
NtRp3030
(dp3031
g73
(dp3032
sg82
g3017
sg75
(lp3033
g68
(g69
g70
NtRp3034
(dp3035
g73
(dp3036
g81
I5
ssg82
g3030
sg75
(lp3037
S''
asbasbasbag68
(g84
g70
NtRp3038
(dp3039
g73
(dp3040
sg82
g2758
sg75
(lp3041
g68
(g89
g70
NtRp3042
(dp3043
g73
(dp3044
g93
g94
ssg82
g3038
sg75
(lp3045
S'generic_patterns'
p3046
asbag68
(g89
g70
NtRp3047
(dp3048
g73
(dp3049
g100
g101
ssg82
g3038
sg75
(lp3050
S':'
asbag68
(g89
g70
NtRp3051
(dp3052
g73
(dp3053
sg82
g3038
sg75
(lp3054
g68
(g69
g70
NtRp3055
(dp3056
g73
(dp3057
g81
I5
ssg82
g3051
sg75
(lp3058
g68
(g77
g70
NtRp3059
(dp3060
g73
(dp3061
g81
I4
ssg82
Nsg75
(lp3062
g68
(g84
g70
NtRp3063
(dp3064
g73
(dp3065
sg82
g3059
sg75
(lp3066
g68
(g89
g70
NtRp3067
(dp3068
g73
(dp3069
sg82
g3063
sg75
(lp3070
g68
(g69
g70
NtRp3071
(dp3072
g73
(dp3073
g81
I4
ssg82
g3067
sg75
(lp3074
S'*'
asbasbasbasbasbasbasbag68
(g84
g70
NtRp3075
(dp3076
g73
(dp3077
sg82
g2758
sg75
(lp3078
g68
(g89
g70
NtRp3079
(dp3080
g73
(dp3081
g93
g94
ssg82
g3075
sg75
(lp3082
S'headers'
p3083
asbag68
(g89
g70
NtRp3084
(dp3085
g73
(dp3086
g100
g101
ssg82
g3075
sg75
(lp3087
S':'
asbag68
(g89
g70
NtRp3088
(dp3089
g73
(dp3090
sg82
g3075
sg75
(lp3091
g68
(g69
g70
NtRp3092
(dp3093
g73
(dp3094
g81
I5
ssg82
g3088
sg75
(lp3095
g68
(g77
g70
NtRp3096
(dp3097
g73
(dp3098
g81
I4
ssg82
Nsg75
(lp3099
g68
(g84
g70
NtRp3100
(dp3101
g73
(dp3102
sg82
g3096
sg75
(lp3103
g68
(g89
g70
NtRp3104
(dp3105
g73
(dp3106
g93
g94
ssg82
g3100
sg75
(lp3107
S'Cache-Control'
p3108
asbag68
(g89
g70
NtRp3109
(dp3110
g73
(dp3111
g100
g101
ssg82
g3100
sg75
(lp3112
S':'
asbag68
(g89
g70
NtRp3113
(dp3114
g73
(dp3115
sg82
g3100
sg75
(lp3116
g68
(g69
g70
NtRp3117
(dp3118
g73
(dp3119
g81
I4
ssg82
g3113
sg75
(lp3120
S'no-store, no-cache, must-revalidate, post-check=0, pre-check=0'
p3121
asbasbasbag68
(g84
g70
NtRp3122
(dp3123
g73
(dp3124
sg82
g3096
sg75
(lp3125
g68
(g89
g70
NtRp3126
(dp3127
g73
(dp3128
g93
g94
ssg82
g3122
sg75
(lp3129
S'Content-Type'
p3130
asbag68
(g89
g70
NtRp3131
(dp3132
g73
(dp3133
g100
g101
ssg82
g3122
sg75
(lp3134
S':'
asbag68
(g89
g70
NtRp3135
(dp3136
g73
(dp3137
sg82
g3122
sg75
(lp3138
g68
(g69
g70
NtRp3139
(dp3140
g73
(dp3141
g81
I4
ssg82
g3135
sg75
(lp3142
S'text/html; charset=utf-8'
p3143
asbasbasbag68
(g84
g70
NtRp3144
(dp3145
g73
(dp3146
sg82
g3096
sg75
(lp3147
g68
(g89
g70
NtRp3148
(dp3149
g73
(dp3150
g93
g94
ssg82
g3144
sg75
(lp3151
S'Expires'
p3152
asbag68
(g89
g70
NtRp3153
(dp3154
g73
(dp3155
g100
g101
ssg82
g3144
sg75
(lp3156
S':'
asbag68
(g89
g70
NtRp3157
(dp3158
g73
(dp3159
sg82
g3144
sg75
(lp3160
g68
(g69
g70
NtRp3161
(dp3162
g73
(dp3163
g81
I4
ssg82
g3157
sg75
(lp3164
S'Thu, 01 Nov 2012 00:44:27 GMT'
p3165
asbasbasbag68
(g84
g70
NtRp3166
(dp3167
g73
(dp3168
sg82
g3096
sg75
(lp3169
g68
(g89
g70
NtRp3170
(dp3171
g73
(dp3172
g93
g94
ssg82
g3166
sg75
(lp3173
S'Pragma'
p3174
asbag68
(g89
g70
NtRp3175
(dp3176
g73
(dp3177
g100
g101
ssg82
g3166
sg75
(lp3178
S':'
asbag68
(g89
g70
NtRp3179
(dp3180
g73
(dp3181
sg82
g3166
sg75
(lp3182
g68
(g69
g70
NtRp3183
(dp3184
g73
(dp3185
g81
I4
ssg82
g3179
sg75
(lp3186
S'no-cache'
p3187
asbasbasbag68
(g84
g70
NtRp3188
(dp3189
g73
(dp3190
sg82
g3096
sg75
(lp3191
g68
(g89
g70
NtRp3192
(dp3193
g73
(dp3194
g93
g94
ssg82
g3188
sg75
(lp3195
S'X-Powered-By'
p3196
asbag68
(g89
g70
NtRp3197
(dp3198
g73
(dp3199
g100
g101
ssg82
g3188
sg75
(lp3200
S':'
asbag68
(g89
g70
NtRp3201
(dp3202
g73
(dp3203
sg82
g3188
sg75
(lp3204
g68
(g69
g70
NtRp3205
(dp3206
g73
(dp3207
g81
I4
ssg82
g3201
sg75
(lp3208
S'web2py'
p3209
asbasbasbasbasbasbasbag68
(g84
g70
NtRp3210
(dp3211
g73
(dp3212
sg82
g2758
sg75
(lp3213
g68
(g89
g70
NtRp3214
(dp3215
g73
(dp3216
g93
g94
ssg82
g3210
sg75
(lp3217
S'menu'
p3218
asbag68
(g89
g70
NtRp3219
(dp3220
g73
(dp3221
g100
g101
ssg82
g3210
sg75
(lp3222
S':'
asbag68
(g89
g70
NtRp3223
(dp3224
g73
(dp3225
sg82
g3210
sg75
(lp3226
g68
(g69
g70
NtRp3227
(dp3228
g73
(dp3229
g81
I5
ssg82
g3223
sg75
(lp3230
g68
(g77
g70
NtRp3231
(dp3232
g73
(dp3233
g81
I4
ssg82
Nsg75
(lp3234
g68
(g84
g70
NtRp3235
(dp3236
g73
(dp3237
sg82
g3231
sg75
(lp3238
g68
(g89
g70
NtRp3239
(dp3240
g73
(dp3241
sg82
g3235
sg75
(lp3242
g68
(g69
g70
NtRp3243
(dp3244
g73
(dp3245
g81
I4
ssg82
g3239
sg75
(lp3246
g68
(g77
g70
NtRp3247
(dp3248
g73
(dp3249
g81
I3
ssg82
Nsg75
(lp3250
g68
(g84
g70
NtRp3251
(dp3252
g73
(dp3253
sg82
g3247
sg75
(lp3254
g68
(g89
g70
NtRp3255
(dp3256
g73
(dp3257
sg82
g3251
sg75
(lp3258
g68
(g69
g70
NtRp3259
(dp3260
g73
(dp3261
g81
I3
ssg82
g3255
sg75
(lp3262
cgluon.languages
lazyT_unpickle
p3263
(S't\x04\x00\x00\x00Home'
tRp3264
asbasbasbag68
(g84
g70
NtRp3265
(dp3266
g73
(dp3267
sg82
g3247
sg75
(lp3268
g68
(g89
g70
NtRp3269
(dp3270
g73
(dp3271
sg82
g3265
sg75
(lp3272
g68
(g69
g70
NtRp3273
(dp3274
g73
(dp3275
g81
I3
ssg82
g3269
sg75
(lp3276
g111
asbasbasbag68
(g84
g70
NtRp3277
(dp3278
g73
(dp3279
sg82
g3247
sg75
(lp3280
g68
(g89
g70
NtRp3281
(dp3282
g73
(dp3283
sg82
g3277
sg75
(lp3284
g68
(g69
g70
NtRp3285
(dp3286
g73
(dp3287
g81
I3
ssg82
g3281
sg75
(lp3288
S'/'
asbasbasbag68
(g84
g70
NtRp3289
(dp3290
g73
(dp3291
sg82
g3247
sg75
(lp3292
g68
(g89
g70
NtRp3293
(dp3294
g73
(dp3295
sg82
g3289
sg75
(lp3296
g68
(g69
g70
NtRp3297
(dp3298
g73
(dp3299
g81
I3
ssg82
g3293
sg75
(lp3300
g68
(g77
g70
NtRp3301
(dp3302
g73
(dp3303
g81
I2
ssg82
Nsg75
(lp3304
sbasbasbasbasbasbasbasbag68
(g84
g70
NtRp3305
(dp3306
g73
(dp3307
sg82
g3231
sg75
(lp3308
g68
(g89
g70
NtRp3309
(dp3310
g73
(dp3311
sg82
g3305
sg75
(lp3312
g68
(g69
g70
NtRp3313
(dp3314
g73
(dp3315
g81
I4
ssg82
g3309
sg75
(lp3316
g68
(g77
g70
NtRp3317
(dp3318
g73
(dp3319
g81
I3
ssg82
Nsg75
(lp3320
g68
(g84
g70
NtRp3321
(dp3322
g73
(dp3323
sg82
g3317
sg75
(lp3324
g68
(g89
g70
NtRp3325
(dp3326
g73
(dp3327
sg82
g3321
sg75
(lp3328
g68
(g69
g70
NtRp3329
(dp3330
g73
(dp3331
g81
I3
ssg82
g3325
sg75
(lp3332
g68
(cgluon.html
SPAN
p3333
g70
NtRp3334
(dp3335
g73
(dp3336
g93
S'color:yellow'
p3337
ssg82
Nsg75
(lp3338
g3209
asbasbasbasbag68
(g84
g70
NtRp3339
(dp3340
g73
(dp3341
sg82
g3317
sg75
(lp3342
g68
(g89
g70
NtRp3343
(dp3344
g73
(dp3345
sg82
g3339
sg75
(lp3346
g68
(g69
g70
NtRp3347
(dp3348
g73
(dp3349
g81
I3
ssg82
g3343
sg75
(lp3350
g111
asbasbasbag68
(g84
g70
NtRp3351
(dp3352
g73
(dp3353
sg82
g3317
sg75
(lp3354
g68
(g89
g70
NtRp3355
(dp3356
g73
(dp3357
sg82
g3351
sg75
(lp3358
g68
(g69
g70
NtRp3359
(dp3360
g73
(dp3361
g81
I3
ssg82
g3355
sg75
(lp3362
S'None'
p3363
asbasbasbag68
(g84
g70
NtRp3364
(dp3365
g73
(dp3366
sg82
g3317
sg75
(lp3367
g68
(g89
g70
NtRp3368
(dp3369
g73
(dp3370
sg82
g3364
sg75
(lp3371
g68
(g69
g70
NtRp3372
(dp3373
g73
(dp3374
g81
I3
ssg82
g3368
sg75
(lp3375
g68
(g77
g70
NtRp3376
(dp3377
g73
(dp3378
g81
I2
ssg82
Nsg75
(lp3379
g68
(g84
g70
NtRp3380
(dp3381
g73
(dp3382
sg82
g3376
sg75
(lp3383
g68
(g89
g70
NtRp3384
(dp3385
g73
(dp3386
sg82
g3380
sg75
(lp3387
g68
(g69
g70
NtRp3388
(dp3389
g73
(dp3390
g81
I2
ssg82
g3384
sg75
(lp3391
g68
(g77
g70
NtRp3392
(dp3393
g73
(dp3394
g81
I1
ssg82
Nsg75
(lp3395
g68
(g84
g70
NtRp3396
(dp3397
g73
(dp3398
sg82
g3392
sg75
(lp3399
g68
(g89
g70
NtRp3400
(dp3401
g73
(dp3402
sg82
g3396
sg75
(lp3403
g68
(g69
g70
NtRp3404
(dp3405
g73
(dp3406
g81
I1
ssg82
g3400
sg75
(lp3407
g3263
(S's\x08\x00\x00\x00My Sites'
tRp3408
asbasbasbag68
(g84
g70
NtRp3409
(dp3410
g73
(dp3411
sg82
g3392
sg75
(lp3412
g68
(g89
g70
NtRp3413
(dp3414
g73
(dp3415
sg82
g3409
sg75
(lp3416
g68
(g69
g70
NtRp3417
(dp3418
g73
(dp3419
g81
I1
ssg82
g3413
sg75
(lp3420
I00
asbasbasbag68
(g84
g70
NtRp3421
(dp3422
g73
(dp3423
sg82
g3392
sg75
(lp3424
g68
(g89
g70
NtRp3425
(dp3426
g73
(dp3427
sg82
g3421
sg75
(lp3428
g68
(g69
g70
NtRp3429
(dp3430
g73
(dp3431
g81
I1
ssg82
g3425
sg75
(lp3432
S'/admin/default/site'
p3433
asbasbasbasbasbasbasbag68
(g84
g70
NtRp3434
(dp3435
g73
(dp3436
sg82
g3376
sg75
(lp3437
g68
(g89
g70
NtRp3438
(dp3439
g73
(dp3440
sg82
g3434
sg75
(lp3441
g68
(g69
g70
NtRp3442
(dp3443
g73
(dp3444
g81
I2
ssg82
g3438
sg75
(lp3445
g68
(g77
g70
NtRp3446
(dp3447
g73
(dp3448
g81
I1
ssg82
Nsg75
(lp3449
g68
(g84
g70
NtRp3450
(dp3451
g73
(dp3452
sg82
g3446
sg75
(lp3453
g68
(g89
g70
NtRp3454
(dp3455
g73
(dp3456
sg82
g3450
sg75
(lp3457
g68
(g69
g70
NtRp3458
(dp3459
g73
(dp3460
g81
I1
ssg82
g3454
sg75
(lp3461
g3263
(S's\x08\x00\x00\x00This App'
tRp3462
asbasbasbag68
(g84
g70
NtRp3463
(dp3464
g73
(dp3465
sg82
g3446
sg75
(lp3466
g68
(g89
g70
NtRp3467
(dp3468
g73
(dp3469
sg82
g3463
sg75
(lp3470
g68
(g69
g70
NtRp3471
(dp3472
g73
(dp3473
g81
I1
ssg82
g3467
sg75
(lp3474
I00
asbasbasbag68
(g84
g70
NtRp3475
(dp3476
g73
(dp3477
sg82
g3446
sg75
(lp3478
g68
(g89
g70
NtRp3479
(dp3480
g73
(dp3481
sg82
g3475
sg75
(lp3482
g68
(g69
g70
NtRp3483
(dp3484
g73
(dp3485
g81
I1
ssg82
g3479
sg75
(lp3486
S'/admin/default/design/profile'
p3487
asbasbasbag68
(g84
g70
NtRp3488
(dp3489
g73
(dp3490
sg82
g3446
sg75
(lp3491
g68
(g89
g70
NtRp3492
(dp3493
g73
(dp3494
sg82
g3488
sg75
(lp3495
g68
(g69
g70
NtRp3496
(dp3497
g73
(dp3498
g81
I1
ssg82
g3492
sg75
(lp3499
(lp3500
(g3263
(S't\n\x00\x00\x00Controller'
tRp3501
I00
S'/admin/default/edit/profile/controllers/fun.py'
tp3502
a(g3263
(S't\x04\x00\x00\x00View'
tRp3503
I00
S'/admin/default/edit/profile/views/fun/jigsaw.html'
tp3504
a(g3263
(S't\x06\x00\x00\x00Layout'
tRp3505
I00
S'/admin/default/edit/profile/views/layout.html'
tp3506
a(g3263
(S't\n\x00\x00\x00Stylesheet'
tRp3507
I00
S'/admin/default/edit/profile/static/css/web2py.css'
tp3508
a(g3263
(S's\x08\x00\x00\x00DB Model'
tRp3509
I00
S'/admin/default/edit/profile/models/db.py'
tp3510
a(g3263
(S's\n\x00\x00\x00Menu Model'
tRp3511
I00
S'/admin/default/edit/profile/models/menu.py'
tp3512
a(g3263
(S't\x08\x00\x00\x00Database'
tRp3513
I00
S'/profile/appadmin/index'
tp3514
a(g3263
(S't\x06\x00\x00\x00Errors'
tRp3515
I00
S'/admin/default/errors/profile'
tp3516
a(g3263
(S't\x05\x00\x00\x00About'
tRp3517
I00
S'/admin/default/about/profile'
tp3518
aasbasbasbasbasbasbasbag68
(g84
g70
NtRp3519
(dp3520
g73
(dp3521
sg82
g3376
sg75
(lp3522
g68
(g89
g70
NtRp3523
(dp3524
g73
(dp3525
sg82
g3519
sg75
(lp3526
g68
(g69
g70
NtRp3527
(dp3528
g73
(dp3529
g81
I2
ssg82
g3523
sg75
(lp3530
g68
(g77
g70
NtRp3531
(dp3532
g73
(dp3533
g81
I1
ssg82
Nsg75
(lp3534
g68
(g84
g70
NtRp3535
(dp3536
g73
(dp3537
sg82
g3531
sg75
(lp3538
g68
(g89
g70
NtRp3539
(dp3540
g73
(dp3541
sg82
g3535
sg75
(lp3542
g68
(g69
g70
NtRp3543
(dp3544
g73
(dp3545
g81
I1
ssg82
g3539
sg75
(lp3546
S'web2py.com'
p3547
asbasbasbag68
(g84
g70
NtRp3548
(dp3549
g73
(dp3550
sg82
g3531
sg75
(lp3551
g68
(g89
g70
NtRp3552
(dp3553
g73
(dp3554
sg82
g3548
sg75
(lp3555
g68
(g69
g70
NtRp3556
(dp3557
g73
(dp3558
g81
I1
ssg82
g3552
sg75
(lp3559
I00
asbasbasbag68
(g84
g70
NtRp3560
(dp3561
g73
(dp3562
sg82
g3531
sg75
(lp3563
g68
(g89
g70
NtRp3564
(dp3565
g73
(dp3566
sg82
g3560
sg75
(lp3567
g68
(g69
g70
NtRp3568
(dp3569
g73
(dp3570
g81
I1
ssg82
g3564
sg75
(lp3571
S'http://www.web2py.com'
p3572
asbasbasbag68
(g84
g70
NtRp3573
(dp3574
g73
(dp3575
sg82
g3531
sg75
(lp3576
g68
(g89
g70
NtRp3577
(dp3578
g73
(dp3579
sg82
g3573
sg75
(lp3580
g68
(g69
g70
NtRp3581
(dp3582
g73
(dp3583
g81
I1
ssg82
g3577
sg75
(lp3584
(lp3585
(g3263
(S't\x08\x00\x00\x00Download'
tRp3586
I00
S'http://www.web2py.com/examples/default/download'
p3587
tp3588
a(g3263
(S't\x07\x00\x00\x00Support'
tRp3589
I00
S'http://www.web2py.com/examples/default/support'
p3590
tp3591
a(g3263
(S't\x04\x00\x00\x00Demo'
tRp3592
I00
S'http://web2py.com/demo_admin'
p3593
tp3594
a(g3263
(S's\x0e\x00\x00\x00Quick Examples'
tRp3595
I00
S'http://web2py.com/examples/default/examples'
p3596
tp3597
a(g3263
(S't\x03\x00\x00\x00FAQ'
tRp3598
I00
S'http://web2py.com/AlterEgo'
p3599
tp3600
a(g3263
(S't\x06\x00\x00\x00Videos'
tRp3601
I00
S'http://www.web2py.com/examples/default/videos/'
p3602
tp3603
a(g3263
(S's\x11\x00\x00\x00Free Applications'
tRp3604
I00
S'http://web2py.com/appliances'
p3605
tp3606
a(g3263
(S't\x07\x00\x00\x00Plugins'
tRp3607
I00
S'http://web2py.com/plugins'
p3608
tp3609
a(g3263
(S't\x07\x00\x00\x00Layouts'
tRp3610
I00
S'http://web2py.com/layouts'
p3611
tp3612
a(g3263
(S't\x07\x00\x00\x00Recipes'
tRp3613
I00
S'http://web2pyslices.com/'
p3614
tp3615
a(g3263
(S't\x08\x00\x00\x00Semantic'
tRp3616
I00
S'http://web2py.com/semantic'
p3617
tp3618
aasbasbasbasbasbasbasbag68
(g84
g70
NtRp3619
(dp3620
g73
(dp3621
sg82
g3376
sg75
(lp3622
g68
(g89
g70
NtRp3623
(dp3624
g73
(dp3625
sg82
g3619
sg75
(lp3626
g68
(g69
g70
NtRp3627
(dp3628
g73
(dp3629
g81
I2
ssg82
g3623
sg75
(lp3630
g68
(g77
g70
NtRp3631
(dp3632
g73
(dp3633
g81
I1
ssg82
Nsg75
(lp3634
g68
(g84
g70
NtRp3635
(dp3636
g73
(dp3637
sg82
g3631
sg75
(lp3638
g68
(g89
g70
NtRp3639
(dp3640
g73
(dp3641
sg82
g3635
sg75
(lp3642
g68
(g69
g70
NtRp3643
(dp3644
g73
(dp3645
g81
I1
ssg82
g3639
sg75
(lp3646
g3263
(S't\r\x00\x00\x00Documentation'
tRp3647
asbasbasbag68
(g84
g70
NtRp3648
(dp3649
g73
(dp3650
sg82
g3631
sg75
(lp3651
g68
(g89
g70
NtRp3652
(dp3653
g73
(dp3654
sg82
g3648
sg75
(lp3655
g68
(g69
g70
NtRp3656
(dp3657
g73
(dp3658
g81
I1
ssg82
g3652
sg75
(lp3659
I00
asbasbasbag68
(g84
g70
NtRp3660
(dp3661
g73
(dp3662
sg82
g3631
sg75
(lp3663
g68
(g89
g70
NtRp3664
(dp3665
g73
(dp3666
sg82
g3660
sg75
(lp3667
g68
(g69
g70
NtRp3668
(dp3669
g73
(dp3670
g81
I1
ssg82
g3664
sg75
(lp3671
S'http://www.web2py.com/book'
p3672
asbasbasbag68
(g84
g70
NtRp3673
(dp3674
g73
(dp3675
sg82
g3631
sg75
(lp3676
g68
(g89
g70
NtRp3677
(dp3678
g73
(dp3679
sg82
g3673
sg75
(lp3680
g68
(g69
g70
NtRp3681
(dp3682
g73
(dp3683
g81
I1
ssg82
g3677
sg75
(lp3684
(lp3685
(g3263
(S't\x07\x00\x00\x00Preface'
tRp3686
I00
S'http://www.web2py.com/book/default/chapter/00'
p3687
tp3688
a(g3263
(S't\x0c\x00\x00\x00Introduction'
tRp3689
I00
S'http://www.web2py.com/book/default/chapter/01'
p3690
tp3691
a(g3263
(S't\x06\x00\x00\x00Python'
tRp3692
I00
S'http://www.web2py.com/book/default/chapter/02'
p3693
tp3694
a(g3263
(S't\x08\x00\x00\x00Overview'
tRp3695
I00
S'http://www.web2py.com/book/default/chapter/03'
p3696
tp3697
a(g3263
(S's\x08\x00\x00\x00The Core'
tRp3698
I00
S'http://www.web2py.com/book/default/chapter/04'
p3699
tp3700
a(g3263
(S's\t\x00\x00\x00The Views'
tRp3701
I00
S'http://www.web2py.com/book/default/chapter/05'
p3702
tp3703
a(g3263
(S't\x08\x00\x00\x00Database'
tRp3704
I00
S'http://www.web2py.com/book/default/chapter/06'
p3705
tp3706
a(g3263
(S's\x14\x00\x00\x00Forms and Validators'
tRp3707
I00
S'http://www.web2py.com/book/default/chapter/07'
p3708
tp3709
a(g3263
(S's\r\x00\x00\x00Email and SMS'
tRp3710
I00
S'http://www.web2py.com/book/default/chapter/08'
p3711
tp3712
a(g3263
(S's\x0e\x00\x00\x00Access Control'
tRp3713
I00
S'http://www.web2py.com/book/default/chapter/09'
p3714
tp3715
a(g3263
(S't\x08\x00\x00\x00Services'
tRp3716
I00
S'http://www.web2py.com/book/default/chapter/10'
p3717
tp3718
a(g3263
(S's\x0c\x00\x00\x00Ajax Recipes'
tRp3719
I00
S'http://www.web2py.com/book/default/chapter/11'
p3720
tp3721
a(g3263
(S's\x16\x00\x00\x00Components and Plugins'
tRp3722
I00
S'http://www.web2py.com/book/default/chapter/12'
p3723
tp3724
a(g3263
(S's\x12\x00\x00\x00Deployment Recipes'
tRp3725
I00
S'http://www.web2py.com/book/default/chapter/13'
p3726
tp3727
a(g3263
(S's\r\x00\x00\x00Other Recipes'
tRp3728
I00
S'http://www.web2py.com/book/default/chapter/14'
p3729
tp3730
a(g3263
(S's\r\x00\x00\x00Buy this book'
tRp3731
I00
S'http://stores.lulu.com/web2py'
p3732
tp3733
aasbasbasbasbasbasbasbag68
(g84
g70
NtRp3734
(dp3735
g73
(dp3736
sg82
g3376
sg75
(lp3737
g68
(g89
g70
NtRp3738
(dp3739
g73
(dp3740
sg82
g3734
sg75
(lp3741
g68
(g69
g70
NtRp3742
(dp3743
g73
(dp3744
g81
I2
ssg82
g3738
sg75
(lp3745
g68
(g77
g70
NtRp3746
(dp3747
g73
(dp3748
g81
I1
ssg82
Nsg75
(lp3749
g68
(g84
g70
NtRp3750
(dp3751
g73
(dp3752
sg82
g3746
sg75
(lp3753
g68
(g89
g70
NtRp3754
(dp3755
g73
(dp3756
sg82
g3750
sg75
(lp3757
g68
(g69
g70
NtRp3758
(dp3759
g73
(dp3760
g81
I1
ssg82
g3754
sg75
(lp3761
g3263
(S't\t\x00\x00\x00Community'
tRp3762
asbasbasbag68
(g84
g70
NtRp3763
(dp3764
g73
(dp3765
sg82
g3746
sg75
(lp3766
g68
(g89
g70
NtRp3767
(dp3768
g73
(dp3769
sg82
g3763
sg75
(lp3770
g68
(g69
g70
NtRp3771
(dp3772
g73
(dp3773
g81
I1
ssg82
g3767
sg75
(lp3774
I00
asbasbasbag68
(g84
g70
NtRp3775
(dp3776
g73
(dp3777
sg82
g3746
sg75
(lp3778
g68
(g89
g70
NtRp3779
(dp3780
g73
(dp3781
sg82
g3775
sg75
(lp3782
g68
(g69
g70
NtRp3783
(dp3784
g73
(dp3785
g81
I1
ssg82
g3779
sg75
(lp3786
Nasbasbasbag68
(g84
g70
NtRp3787
(dp3788
g73
(dp3789
sg82
g3746
sg75
(lp3790
g68
(g89
g70
NtRp3791
(dp3792
g73
(dp3793
sg82
g3787
sg75
(lp3794
g68
(g69
g70
NtRp3795
(dp3796
g73
(dp3797
g81
I1
ssg82
g3791
sg75
(lp3798
(lp3799
(g3263
(S't\x06\x00\x00\x00Groups'
tRp3800
I00
S'http://www.web2py.com/examples/default/usergroups'
p3801
tp3802
a(g3263
(S't\x07\x00\x00\x00Twitter'
tRp3803
I00
S'http://twitter.com/web2py'
p3804
tp3805
a(g3263
(S's\t\x00\x00\x00Live Chat'
tRp3806
I00
S'http://webchat.freenode.net/?channels=web2py'
p3807
tp3808
aasbasbasbasbasbasbasbag68
(g84
g70
NtRp3809
(dp3810
g73
(dp3811
sg82
g3376
sg75
(lp3812
g68
(g89
g70
NtRp3813
(dp3814
g73
(dp3815
sg82
g3809
sg75
(lp3816
g68
(g69
g70
NtRp3817
(dp3818
g73
(dp3819
g81
I2
ssg82
g3813
sg75
(lp3820
g68
(g77
g70
NtRp3821
(dp3822
g73
(dp3823
g81
I1
ssg82
Nsg75
(lp3824
g68
(g84
g70
NtRp3825
(dp3826
g73
(dp3827
sg82
g3821
sg75
(lp3828
g68
(g89
g70
NtRp3829
(dp3830
g73
(dp3831
sg82
g3825
sg75
(lp3832
g68
(g69
g70
NtRp3833
(dp3834
g73
(dp3835
g81
I1
ssg82
g3829
sg75
(lp3836
g3263
(S't\x07\x00\x00\x00Plugins'
tRp3837
asbasbasbag68
(g84
g70
NtRp3838
(dp3839
g73
(dp3840
sg82
g3821
sg75
(lp3841
g68
(g89
g70
NtRp3842
(dp3843
g73
(dp3844
sg82
g3838
sg75
(lp3845
g68
(g69
g70
NtRp3846
(dp3847
g73
(dp3848
g81
I1
ssg82
g3842
sg75
(lp3849
I00
asbasbasbag68
(g84
g70
NtRp3850
(dp3851
g73
(dp3852
sg82
g3821
sg75
(lp3853
g68
(g89
g70
NtRp3854
(dp3855
g73
(dp3856
sg82
g3850
sg75
(lp3857
g68
(g69
g70
NtRp3858
(dp3859
g73
(dp3860
g81
I1
ssg82
g3854
sg75
(lp3861
Nasbasbasbag68
(g84
g70
NtRp3862
(dp3863
g73
(dp3864
sg82
g3821
sg75
(lp3865
g68
(g89
g70
NtRp3866
(dp3867
g73
(dp3868
sg82
g3862
sg75
(lp3869
g68
(g69
g70
NtRp3870
(dp3871
g73
(dp3872
g81
I1
ssg82
g3866
sg75
(lp3873
(lp3874
(S'plugin_wiki'
p3875
I00
S'http://web2py.com/examples/default/download'
p3876
tp3877
a(g3263
(S's\r\x00\x00\x00Other Plugins'
tRp3878
I00
g3608
tp3879
a(g3263
(S's\x0e\x00\x00\x00Layout Plugins'
tRp3880
I00
g3611
tp3881
aasbasbasbasbasbasbasbasbasbasbasbasbasbasbasbasbasbasbasbag68
(g84
g70
NtRp3882
(dp3883
g73
(dp3884
sg82
g2758
sg75
(lp3885
g68
(g89
g70
NtRp3886
(dp3887
g73
(dp3888
g93
g94
ssg82
g3882
sg75
(lp3889
S'meta'
p3890
asbag68
(g89
g70
NtRp3891
(dp3892
g73
(dp3893
g100
g101
ssg82
g3882
sg75
(lp3894
S':'
asbag68
(g89
g70
NtRp3895
(dp3896
g73
(dp3897
sg82
g3882
sg75
(lp3898
g68
(g69
g70
NtRp3899
(dp3900
g73
(dp3901
g81
I5
ssg82
g3895
sg75
(lp3902
g68
(g77
g70
NtRp3903
(dp3904
g73
(dp3905
g81
I4
ssg82
Nsg75
(lp3906
g68
(g84
g70
NtRp3907
(dp3908
g73
(dp3909
sg82
g3903
sg75
(lp3910
g68
(g89
g70
NtRp3911
(dp3912
g73
(dp3913
g93
g94
ssg82
g3907
sg75
(lp3914
S'author'
p3915
asbag68
(g89
g70
NtRp3916
(dp3917
g73
(dp3918
g100
g101
ssg82
g3907
sg75
(lp3919
S':'
asbag68
(g89
g70
NtRp3920
(dp3921
g73
(dp3922
sg82
g3907
sg75
(lp3923
g68
(g69
g70
NtRp3924
(dp3925
g73
(dp3926
g81
I4
ssg82
g3920
sg75
(lp3927
S'Your Name <you@example.com>'
p3928
asbasbasbag68
(g84
g70
NtRp3929
(dp3930
g73
(dp3931
sg82
g3903
sg75
(lp3932
g68
(g89
g70
NtRp3933
(dp3934
g73
(dp3935
g93
g94
ssg82
g3929
sg75
(lp3936
S'copyright'
p3937
asbag68
(g89
g70
NtRp3938
(dp3939
g73
(dp3940
g100
g101
ssg82
g3929
sg75
(lp3941
S':'
asbag68
(g89
g70
NtRp3942
(dp3943
g73
(dp3944
sg82
g3929
sg75
(lp3945
g68
(g69
g70
NtRp3946
(dp3947
g73
(dp3948
g81
I4
ssg82
g3942
sg75
(lp3949
S'Copyright 2011'
p3950
asbasbasbag68
(g84
g70
NtRp3951
(dp3952
g73
(dp3953
sg82
g3903
sg75
(lp3954
g68
(g89
g70
NtRp3955
(dp3956
g73
(dp3957
g93
g94
ssg82
g3951
sg75
(lp3958
S'description'
p3959
asbag68
(g89
g70
NtRp3960
(dp3961
g73
(dp3962
g100
g101
ssg82
g3951
sg75
(lp3963
S':'
asbag68
(g89
g70
NtRp3964
(dp3965
g73
(dp3966
sg82
g3951
sg75
(lp3967
g68
(g69
g70
NtRp3968
(dp3969
g73
(dp3970
g81
I4
ssg82
g3964
sg75
(lp3971
S'a cool new app'
p3972
asbasbasbag68
(g84
g70
NtRp3973
(dp3974
g73
(dp3975
sg82
g3903
sg75
(lp3976
g68
(g89
g70
NtRp3977
(dp3978
g73
(dp3979
g93
g94
ssg82
g3973
sg75
(lp3980
S'generator'
p3981
asbag68
(g89
g70
NtRp3982
(dp3983
g73
(dp3984
g100
g101
ssg82
g3973
sg75
(lp3985
S':'
asbag68
(g89
g70
NtRp3986
(dp3987
g73
(dp3988
sg82
g3973
sg75
(lp3989
g68
(g69
g70
NtRp3990
(dp3991
g73
(dp3992
g81
I4
ssg82
g3986
sg75
(lp3993
S'Web2py Web Framework'
p3994
asbasbasbag68
(g84
g70
NtRp3995
(dp3996
g73
(dp3997
sg82
g3903
sg75
(lp3998
g68
(g89
g70
NtRp3999
(dp4000
g73
(dp4001
g93
g94
ssg82
g3995
sg75
(lp4002
S'keywords'
p4003
asbag68
(g89
g70
NtRp4004
(dp4005
g73
(dp4006
g100
g101
ssg82
g3995
sg75
(lp4007
S':'
asbag68
(g89
g70
NtRp4008
(dp4009
g73
(dp4010
sg82
g3995
sg75
(lp4011
g68
(g69
g70
NtRp4012
(dp4013
g73
(dp4014
g81
I4
ssg82
g4008
sg75
(lp4015
S'web2py, python, framework'
p4016
asbasbasbasbasbasbasbag68
(g84
g70
NtRp4017
(dp4018
g73
(dp4019
sg82
g2758
sg75
(lp4020
g68
(g89
g70
NtRp4021
(dp4022
g73
(dp4023
g93
g94
ssg82
g4017
sg75
(lp4024
S'postprocessing'
p4025
asbag68
(g89
g70
NtRp4026
(dp4027
g73
(dp4028
g100
g101
ssg82
g4017
sg75
(lp4029
S':'
asbag68
(g89
g70
NtRp4030
(dp4031
g73
(dp4032
sg82
g4017
sg75
(lp4033
g68
(g69
g70
NtRp4034
(dp4035
g73
(dp4036
g81
I5
ssg82
g4030
sg75
(lp4037
g68
(g77
g70
NtRp4038
(dp4039
g73
(dp4040
g81
I4
ssg82
Nsg75
(lp4041
sbasbasbasbag68
(g84
g70
NtRp4042
(dp4043
g73
(dp4044
sg82
g2758
sg75
(lp4045
g68
(g89
g70
NtRp4046
(dp4047
g73
(dp4048
g93
g94
ssg82
g4042
sg75
(lp4049
S'session_filename'
p4050
asbag68
(g89
g70
NtRp4051
(dp4052
g73
(dp4053
g100
g101
ssg82
g4042
sg75
(lp4054
S':'
asbag68
(g89
g70
NtRp4055
(dp4056
g73
(dp4057
sg82
g4042
sg75
(lp4058
g68
(g69
g70
NtRp4059
(dp4060
g73
(dp4061
g81
I5
ssg82
g4055
sg75
(lp4062
S'C:\\webapps\\ben\\project\\profile\\web2py\\applications\\profile\\sessions\\127.0.0.1-3f2e6109-e00a-4c40-a31b-969c29958dc1'
p4063
asbasbasbag68
(g84
g70
NtRp4064
(dp4065
g73
(dp4066
sg82
g2758
sg75
(lp4067
g68
(g89
g70
NtRp4068
(dp4069
g73
(dp4070
g93
g94
ssg82
g4064
sg75
(lp4071
S'session_id'
p4072
asbag68
(g89
g70
NtRp4073
(dp4074
g73
(dp4075
g100
g101
ssg82
g4064
sg75
(lp4076
S':'
asbag68
(g89
g70
NtRp4077
(dp4078
g73
(dp4079
sg82
g4064
sg75
(lp4080
g68
(g69
g70
NtRp4081
(dp4082
g73
(dp4083
g81
I5
ssg82
g4077
sg75
(lp4084
S'127.0.0.1-3f2e6109-e00a-4c40-a31b-969c29958dc1'
p4085
asbasbasbag68
(g84
g70
NtRp4086
(dp4087
g73
(dp4088
sg82
g2758
sg75
(lp4089
g68
(g89
g70
NtRp4090
(dp4091
g73
(dp4092
g93
g94
ssg82
g4086
sg75
(lp4093
S'session_id_name'
p4094
asbag68
(g89
g70
NtRp4095
(dp4096
g73
(dp4097
g100
g101
ssg82
g4086
sg75
(lp4098
S':'
asbag68
(g89
g70
NtRp4099
(dp4100
g73
(dp4101
sg82
g4086
sg75
(lp4102
g68
(g69
g70
NtRp4103
(dp4104
g73
(dp4105
g81
I5
ssg82
g4099
sg75
(lp4106
g2815
asbasbasbag68
(g84
g70
NtRp4107
(dp4108
g73
(dp4109
sg82
g2758
sg75
(lp4110
g68
(g89
g70
NtRp4111
(dp4112
g73
(dp4113
g93
g94
ssg82
g4107
sg75
(lp4114
S'session_new'
p4115
asbag68
(g89
g70
NtRp4116
(dp4117
g73
(dp4118
g100
g101
ssg82
g4107
sg75
(lp4119
S':'
asbag68
(g89
g70
NtRp4120
(dp4121
g73
(dp4122
sg82
g4107
sg75
(lp4123
g68
(g69
g70
NtRp4124
(dp4125
g73
(dp4126
g81
I5
ssg82
g4120
sg75
(lp4127
g1339
asbasbasbag68
(g84
g70
NtRp4128
(dp4129
g73
(dp4130
sg82
g2758
sg75
(lp4131
g68
(g89
g70
NtRp4132
(dp4133
g73
(dp4134
g93
g94
ssg82
g4128
sg75
(lp4135
S'status'
p4136
asbag68
(g89
g70
NtRp4137
(dp4138
g73
(dp4139
g100
g101
ssg82
g4128
sg75
(lp4140
S':'
asbag68
(g89
g70
NtRp4141
(dp4142
g73
(dp4143
sg82
g4128
sg75
(lp4144
g68
(g69
g70
NtRp4145
(dp4146
g73
(dp4147
g81
I5
ssg82
g4141
sg75
(lp4148
S'200'
p4149
asbasbasbag68
(g84
g70
NtRp4150
(dp4151
g73
(dp4152
sg82
g2758
sg75
(lp4153
g68
(g89
g70
NtRp4154
(dp4155
g73
(dp4156
g93
g94
ssg82
g4150
sg75
(lp4157
S'subtitle'
p4158
asbag68
(g89
g70
NtRp4159
(dp4160
g73
(dp4161
g100
g101
ssg82
g4150
sg75
(lp4162
S':'
asbag68
(g89
g70
NtRp4163
(dp4164
g73
(dp4165
sg82
g4150
sg75
(lp4166
g68
(g69
g70
NtRp4167
(dp4168
g73
(dp4169
g81
I5
ssg82
g4163
sg75
(lp4170
g3263
(S's\r\x00\x00\x00customize me!'
tRp4171
asbasbasbag68
(g84
g70
NtRp4172
(dp4173
g73
(dp4174
sg82
g2758
sg75
(lp4175
g68
(g89
g70
NtRp4176
(dp4177
g73
(dp4178
g93
g94
ssg82
g4172
sg75
(lp4179
S'title'
p4180
asbag68
(g89
g70
NtRp4181
(dp4182
g73
(dp4183
g100
g101
ssg82
g4172
sg75
(lp4184
S':'
asbag68
(g89
g70
NtRp4185
(dp4186
g73
(dp4187
sg82
g4172
sg75
(lp4188
g68
(g69
g70
NtRp4189
(dp4190
g73
(dp4191
g81
I5
ssg82
g4185
sg75
(lp4192
S'Profile'
p4193
asbasbasbag68
(g84
g70
NtRp4194
(dp4195
g73
(dp4196
sg82
g2758
sg75
(lp4197
g68
(g89
g70
NtRp4198
(dp4199
g73
(dp4200
g93
g94
ssg82
g4194
sg75
(lp4201
g2003
asbag68
(g89
g70
NtRp4202
(dp4203
g73
(dp4204
g100
g101
ssg82
g4194
sg75
(lp4205
S':'
asbag68
(g89
g70
NtRp4206
(dp4207
g73
(dp4208
sg82
g4194
sg75
(lp4209
g68
(g69
g70
NtRp4210
(dp4211
g73
(dp4212
g81
I5
ssg82
g4206
sg75
(lp4213
g2016
asbasbasbag68
(g84
g70
NtRp4214
(dp4215
g73
(dp4216
sg82
g2758
sg75
(lp4217
g68
(g89
g70
NtRp4218
(dp4219
g73
(dp4220
g93
g94
ssg82
g4214
sg75
(lp4221
S'view'
p4222
asbag68
(g89
g70
NtRp4223
(dp4224
g73
(dp4225
g100
g101
ssg82
g4214
sg75
(lp4226
S':'
asbag68
(g89
g70
NtRp4227
(dp4228
g73
(dp4229
sg82
g4214
sg75
(lp4230
g68
(g69
g70
NtRp4231
(dp4232
g73
(dp4233
g81
I5
ssg82
g4227
sg75
(lp4234
S'fun/jigsaw.html'
p4235
asbasbasbasbasbsS'locals'
p4236
(dp4237
g4
S"r'C:\\webapps\\ben\\project\\profile\\web2py\\applications\\profile\\views\\fun/jigsaw.html'"
p4238
sg6
S'"response.write(\'\\\\r\\\\n\', escape=False)\\nresponse.wr...write(\'\\\\r\\\\n</body>\\\\r\\\\n</html>\\\\r\\\\n\', escape=False)"'
p4239
sssS'traceback'
p4240
S'Traceback (most recent call last):\n  File "C:\\webapps\\ben\\project\\profile\\web2py\\gluon\\restricted.py", line 203, in restricted\n    ccode = compile2(code,layer)\n  File "C:\\webapps\\ben\\project\\profile\\web2py\\gluon\\restricted.py", line 189, in compile2\n    return compile(code.rstrip().replace(\'\\r\\n\',\'\\n\')+\'\\n\', layer, \'exec\')\n  File "C:\\webapps\\ben\\project\\profile\\web2py\\applications\\profile\\views\\fun/jigsaw.html", line 48\n    {=URL(\'profile\',\'static/music\', \'schism.mp3\')\n     ^\nSyntaxError: invalid syntax\n'
p4241
s.