(dp1
S'output'
p2
S"<type 'exceptions.SyntaxError'> invalid syntax (default/index.html, line 59)"
p3
sS'layer'
p4
S'C:\\webapps\\ben\\project\\web2py\\applications\\profile\\views\\default/index.html'
p5
sS'code'
p6
S'response.write(\'<!DOCTYPE html>\\r\\n<!-- paulirish.com/2008/conditional-stylesheets-vs-css-hacks-answer-neither/ -->\\r\\n<!--[if lt IE 7]><html class="ie ie6 ie-lte9 ie-lte8 ie-lte7 no-js" lang="\', escape=False)\nresponse.write(T.accepted_language or \'en\')\nresponse.write(\'"> <![endif]-->\\r\\n<!--[if IE 7]><html class="ie ie7 ie-lte9 ie-lte8 ie-lte7 no-js" lang="\', escape=False)\nresponse.write(T.accepted_language or \'en\')\nresponse.write(\'"> <![endif]-->\\r\\n<!--[if IE 8]><html class="ie ie8 ie-lte9 ie-lte8 no-js" lang="\', escape=False)\nresponse.write(T.accepted_language or \'en\')\nresponse.write(\'"> <![endif]-->\\r\\n<!--[if IE 9]><html class="ie9 ie-lte9 no-js" lang="\', escape=False)\nresponse.write(T.accepted_language or \'en\')\nresponse.write(\'"> <![endif]-->\\r\\n<!--[if (gt IE 9)|!(IE)]><!--> <html class="no-js" lang="\', escape=False)\nresponse.write(T.accepted_language or \'en\')\nresponse.write(\'"> <!--<![endif]-->\\r\\n<head>\\r\\n  <meta charset="utf-8" />\\r\\n  <!-- www.phpied.com/conditional-comments-block-downloads/ -->\\r\\n  <!-- Always force latest IE rendering engine\\r\\n       (even in intranet) & Chrome Frame\\r\\n       Remove this if you use the .htaccess -->\\r\\n  <!--[if IE]>\\r\\n    <meta http-equiv="X-UA-Compatible" content="IE=edge\', escape=False)\nresponse.write(not request.is_local and \',chrome=1\' or \'\')\nresponse.write(\'">\\r\\n  <![endif]-->\\r\\n  \\r\\n  <title>\', escape=False)\nresponse.write(response.title or request.application)\nresponse.write(\'</title>\\r\\n  \\r\\n  <!-- http://dev.w3.org/html5/markup/meta.name.html -->\\r\\n  <meta name="application-name" content="\', escape=False)\nresponse.write(request.application)\nresponse.write(\'" />\\r\\n  \\r\\n  <!-- Speaking of Google, don\\\'t forget to set your site up:\\r\\n       http://google.com/webmasters -->\\r\\n  <meta name="google-site-verification" content="" />\\r\\n\\r\\n  <!--  Mobile Viewport Fix\\r\\n      j.mp/mobileviewport & davidbcalhoun.com/2010/viewport-metatag\\r\\n      device-width: Occupy full width of the screen in its current orientation\\r\\n      initial-scale = 1.0 retains dimensions instead of zooming out if page height > device height\\r\\n      user-scalable = yes allows the user to zoom in -->\\r\\n  <meta name="viewport" content="width=device-width, initial-scale=1.0, user-scalable=yes">\\r\\n  \\r\\n  <!-- Place favicon.ico and apple-touch-icon.png in the root of your domain and delete these references -->\\r\\n  <link rel="shortcut icon" href="\', escape=False)\nresponse.write(URL(\'static\',\'favicon.ico\'))\nresponse.write(\'" type="image/x-icon">\\r\\n  <link rel="apple-touch-icon" href="\', escape=False)\nresponse.write(URL(\'static\',\'favicon.png\'))\nresponse.write(\'">\\r\\n\\r\\n  <!-- All JavaScript at the bottom, except for Modernizr which enables \\r\\n       HTML5 elements & feature detects -->\\r\\n  <script src="\', escape=False)\nresponse.write(URL(\'static\',\'js/modernizr.custom.js\'))\nresponse.write(\'"></script>  \\r\\n\\r\\n  <!-- include stylesheets -->\\r\\n  \', escape=False)\nresponse.files.append(URL(\'static\',\'css/skeleton.css\'))\nresponse.files.append(URL(\'static\',\'css/web2py.css\'))\nresponse.files.append(URL(\'static\',\'css/superfish.css\'))\nresponse.files.append(URL(\'static\',\'js/superfish.js\'))\nresponse.files.append(URL(\'static\',\'js/main.js\'))\nresponse.files.append(URL(\'static\',\'css/main.css\'))\nresponse.write(\'\\r\\n\\r\\n  \', escape=False)\nresponse.write(\'<script type="text/javascript"><!--\\n    // These variables are used by the web2py_ajax_init function in web2py_ajax.js (which is loaded below).\\n    var w2p_ajax_confirm_message = "\', escape=False)\nresponse.write(T(\'Are you sure you want to delete this object?\'))\nresponse.write(\'";\\n    var w2p_ajax_date_format = "\', escape=False)\nresponse.write(T(\'%Y-%m-%d\'))\nresponse.write(\'";\\n    var w2p_ajax_datetime_format = "\', escape=False)\nresponse.write(T(\'%Y-%m-%d %H:%M:%S\'))\nresponse.write(\'";\\n    //--></script>\\n\', escape=False)\nresponse.files.insert(0,URL(\'static\',\'js/jquery.js\'))\nresponse.files.insert(1,URL(\'static\',\'css/calendar.css\'))\nresponse.files.insert(2,URL(\'static\',\'js/calendar.js\'))\nresponse.files.insert(3,URL(\'static\',\'js/web2py.js\'))\nresponse.include_meta()\nresponse.include_files()\nresponse.write(\'\\n\', escape=False)\nresponse.write(\'\\r\\n\\r\\n  <script type="text/javascript">\\r\\n    jQuery(function(){ jQuery(\\\'ul.sf-menu\\\').supersubs({minWidth:12,maxWidth:30,extraWidth:3}).superfish(); });\\r\\n  </script>\\r\\n\\r\\n\\r\\n  <!-- uncomment here to load jquery-ui\\r\\n  <link rel="stylesheet" href="http://ajax.googleapis.com/ajax/libs/jqueryui/1.8.16/themes/base/jquery-ui.css" type="text/css" media="all" />\\r\\n  <script src="http://ajax.googleapis.com/ajax/libs/jqueryui/1.8.16/jquery-ui.min.js" type="text/javascript"></script>\\r\\n  uncomment to load jquery-ui //-->\\r\\n</head>\\r\\n<body>\\r\\n \\r\\n \\r\\n       <div style="clear: both;"></div><!-- Clear the divs -->\\r\\n   \', escape=False)\n#include \'statusbar.html\'\nresponse.write(\' <!-- Status bar is the menu -->\\r\\n    <div id="page"> <!-- Here my central body -->     \\r\\n      <!-- contsdsdent -->\\r\\n      <div id="content" >\\r\\n        \', escape=False)\nresponse.write(\'\\r\\n\\r\\n <div class="wrapper"><!-- for sticky footer -->\\r\\n  \\r\\n      <div class="container">                 \\r\\n        <div id="main_name">\\r\\n            <div id="name_splodge">\\r\\n                <img src="\', escape=False)\nresponse.write(URL(\'profile\',\'static/images\',\'name_splodge.png\'))\nresponse.write(\'" style="width: 450px; height:450px">\\r\\n            </div>\\r\\n            <div id="profile_name">\\r\\n                ben mcphail\\r\\n            </div>\\r\\n            <div id="profile_tagline">elegance through design</div>\\r\\n        </div>\\r\\n        <div id="main_skills">\\r\\n            <div id="section_title">\\r\\n                skills\\r\\n            </div>\\r\\n            <div id="section_content">\\r\\n            <img id="skill_corner" src ="\', escape=False)\nresponse.write(URL(\'profile\',\'static/images\',\'skill_corner.png\'))\nresponse.write(\'">\\r\\n                <div id="section_one">\\r\\n                <div id="section_header">\\r\\n                    source\\r\\n                </div>\\r\\n                i\\\'m a software programmer based in sydney australia working on\\r\\n                web apps designed to empower the individual and strengthen the community.<BR>\\r\\n                <BR> my skills revolve around:<ul>\\r\\n                <li>python</li>\\r\\n                <li> php </li>\\r\\n                <li> javascript(jquery)</li>\\r\\n                <li>html(5)</li>\\r\\n                <li>css(3)</li>\\r\\n                <li>mysql</li>\\r\\n                <li>sqlite</li>\\r\\n                <li>web2py</li>\\r\\n                just to name a few\\r\\n                </ul> \\r\\n                </div>\\r\\n                <div id="section_two">\\r\\n                    <div id="section_header">\\r\\n                        ideas   \\r\\n                    </div>\\r\\n                i\\\'m a firm believer any problem can be solved with the right people, a whiteboard, and a whiteboard marker.<br>\\r\\n                <BR>\\r\\n                there is no such thing as a limitation, just merely additional elements to the equation\\r\\n                \\r\\n                </div>\\r\\n                <div id="section_three">\\r\\n                <div id="section_header">\\r\\n                    people\\r\\n                </div>\\r\\n                great people build great experiences. through people comes discussion, through discussion comes customisation and through customisation comes innovation. <BR><BR>i\\\'m always up for a chat and always keen to discuss and explore new ideas and possibilities.<BR><BR>feel free to contact me for a greet and meet, i\\\'m a cheap date</div>\\r\\n            </div>\\r\\n            </div>\\r\\n        <div id="main_projects">\\r\\n            <div id="section_title">\\r\\n                projects\\r\\n            </div>\\r\\n            <div id="project_header">\\r\\n            oddjob\\r\\n            </div>\\r\\n            \\r\\n            <img id="oddjob_img" src ="\', escape=False)\nresponse.write(URL(\'profile\',\'static/images\',\'oddjob.png\'))\nresponse.write(\'" style="height: 450px; width: 800px;">\\r\\n            <div id="humotiv_info">\\r\\n                oddjob is webapp designed to build an environment where users can buy and sell their skills and services within their local community and promotes the importance of local communities which are continually challenege by a forever growing global economy\\r\\n            </div>\\r\\n            <div class ="humotiv" id="project_header">\\r\\n            humotiv \\r\\n            </div>\\r\\n            <a href ="\', escape=False)\nresponse.write(URL(\'humotiv\',\'default\',\'index\'))\nresponse.write(\'">\\r\\n            <img id="humotiv_img" src ="\', escape=False)\nresponse.write(URL(\'profile\',\'static/images\',\'humotiv.png\'))\nresponse.write(\'" style="height: 450px; width: 800px;">\\r\\n            </a>\\r\\n            <div id="humotiv_info">\\r\\n                humotiv is a world wide collaboration of all things human. set up as photo based blogging website, people can come together and share, rate, rank and truly discover what it means to be human and what feelings truly extend across age, race, gender and orientation\\r\\n                <BR><BR>note - humotiv is currently still in production but will become live very soon\\r\\n                <a href="\', escape=False)\n{=URL(\'profile\',\'default\',\'index\')\nresponse.write(\'">check it out</a>\\r\\n            </div>\\r\\n        </div>\\r\\n        <div id="main_connect">\\r\\n            <div id="section_title">\\r\\n                connect\\r\\n            </div>\\r\\n            <div id="section_content_bottom" class="connect_content">\\r\\n            please feel free to send me an email @ ben@benmcphail.com or add me on g+!<BR><BR>note: a blog will be coming soon\\r\\n        </div>\\r\\n        </div>\\r\\n        \\r\\n      </div><!-- container -->\\r\\n    \\r\\n    <div class="push"></div>\\r\\n  </div><!-- wrapper -->\\r\\n\', escape=False)\nresponse.write(\' \\r\\n      </div>\\r\\n      <!-- content -->\\r\\n      <div style="clear: both;"></div><!-- Clear the divs -->\\r\\n    </div><!-- page -->\\r\\n\\r\\n  \\r\\n  <div id="footer_options">\\r\\n  <div id="bottom_img">\\r\\n  <div id="footer_top" onclick="scroll_top()">\\r\\n    <div id="option_title">\\r\\n        top\\r\\n    </div>\\r\\n  </div>\\r\\n  <div id="footer_skills" onclick="scroll_skills()">\\r\\n    <div id="option_title">\\r\\n        skills\\r\\n    </div>\\r\\n  </div>\\r\\n  <div id="footer_projects" onclick="scroll_projects()">\\r\\n    <div id="option_title">\\r\\n        projects\\r\\n    </div>\\r\\n  </div>\\r\\n  <div id="footer_connect" onclick="scroll_connect()">\\r\\n    <div id="option_title">\\r\\n        connect\\r\\n    </div>\\r\\n  </div>\\r\\n </div>\\r\\n </div>\\r\\n  \\r\\n  \\r\\n  <!--[if lt IE 7 ]>\\r\\n    <script src="\', escape=False)\nresponse.write(URL(\'static\',\'js/dd_belatedpng.js\'))\nresponse.write(\'"></script>\\r\\n    <script> DD_belatedPNG.fix(\\\'img, .png_bg\\\'); //fix any <img> or .png_bg background-images </script>\\r\\n    <![endif]-->\\r\\n  \', escape=False)\nif response.google_analytics_id:\n    response.write(\'<script type="text/javascript"> var _gaq = _gaq || []; _gaq.push([\\\'_setAccount\\\', \\\'\', escape=False)\n    response.write(response.google_analytics_id)\n    response.write("\']); _gaq.push([\'_trackPageview\']); (function() { var ga = document.createElement(\'script\'); ga.type = \'text/javascript\'; ga.async = true; ga.src = (\'https:\' == document.location.protocol ? \'https://ssl\' : \'http://www\') + \'.google-analytics.com/ga.js\'; var s = document.getElementsByTagName(\'script\')[0]; s.parentNode.insertBefore(ga, s); })(); </script> ", escape=False)\n    pass\nresponse.write(\'\\r\\n</body>\\r\\n</html>\\r\\n\', escape=False)'
p7
sS'snapshot'
p8
(dp9
S'exception'
p10
(dp11
S'__getslice__'
p12
S"<method-wrapper '__getslice__' of exceptions.SyntaxError object>"
p13
sS'text'
p14
S'"{=URL(\'profile\',\'default\',\'index\')\\n"'
p15
sS'__str__'
p16
S"<method-wrapper '__str__' of exceptions.SyntaxError object>"
p17
sS'__reduce__'
p18
S'<built-in method __reduce__ of exceptions.SyntaxError object>'
p19
sS'__dict__'
p20
S'{}'
p21
sS'__sizeof__'
p22
S'<built-in method __sizeof__ of exceptions.SyntaxError object>'
p23
sS'__init__'
p24
S"<method-wrapper '__init__' of exceptions.SyntaxError object>"
p25
sS'__setattr__'
p26
S"<method-wrapper '__setattr__' of exceptions.SyntaxError object>"
p27
sS'__reduce_ex__'
p28
S'<built-in method __reduce_ex__ of exceptions.SyntaxError object>'
p29
sS'__new__'
p30
S'<built-in method __new__ of type object>'
p31
sS'__format__'
p32
S'<built-in method __format__ of exceptions.SyntaxError object>'
p33
sS'__class__'
p34
S"<type 'exceptions.SyntaxError'>"
p35
sS'filename'
p36
S"r'C:\\webapps\\ben\\project\\web2py\\applications\\profile\\views\\default/index.html'"
p37
sS'lineno'
p38
S'59'
p39
sS'msg'
p40
S"'invalid syntax'"
p41
sS'__doc__'
p42
S"'Invalid syntax.'"
p43
sS'__getitem__'
p44
S"<method-wrapper '__getitem__' of exceptions.SyntaxError object>"
p45
sS'__setstate__'
p46
S'<built-in method __setstate__ of exceptions.SyntaxError object>'
p47
sS'__getattribute__'
p48
S"<method-wrapper '__getattribute__' of exceptions.SyntaxError object>"
p49
sS'print_file_and_line'
p50
S'None'
p51
sS'args'
p52
S'(\'invalid syntax\', (r\'C:\\webapps\\ben\\project\\web2py\\applications\\profile\\views\\default/index.html\', 59, 2, "{=URL(\'profile\',\'default\',\'index\')\\n"))'
p53
sS'__subclasshook__'
p54
S'<built-in method __subclasshook__ of type object>'
p55
sS'offset'
p56
S'2'
sS'__unicode__'
p57
S'<built-in method __unicode__ of exceptions.SyntaxError object>'
p58
sS'__delattr__'
p59
S"<method-wrapper '__delattr__' of exceptions.SyntaxError object>"
p60
sS'__repr__'
p61
S"<method-wrapper '__repr__' of exceptions.SyntaxError object>"
p62
sS'__hash__'
p63
S"<method-wrapper '__hash__' of exceptions.SyntaxError object>"
p64
ssS'evalue'
p65
S'invalid syntax (default/index.html, line 59)'
p66
sS'request'
p67
ccopy_reg
_reconstructor
p68
(cgluon.html
BEAUTIFY
p69
c__builtin__
object
p70
NtRp71
(dp72
S'attributes'
p73
(dp74
sS'components'
p75
(lp76
g68
(cgluon.html
TABLE
p77
g70
NtRp78
(dp79
g73
(dp80
S'level'
p81
I5
ssS'parent'
p82
Nsg75
(lp83
g68
(cgluon.html
TR
p84
g70
NtRp85
(dp86
g73
(dp87
sg82
g78
sg75
(lp88
g68
(cgluon.html
TD
p89
g70
NtRp90
(dp91
g73
(dp92
S'_style'
p93
S'font-weight:bold;vertical-align:top'
p94
ssg82
g85
sg75
(lp95
S'ajax'
p96
asbag68
(g89
g70
NtRp97
(dp98
g73
(dp99
S'_valign'
p100
S'top'
p101
ssg82
g85
sg75
(lp102
S':'
asbag68
(g89
g70
NtRp103
(dp104
g73
(dp105
sg82
g85
sg75
(lp106
g68
(g69
g70
NtRp107
(dp108
g73
(dp109
g81
I5
ssg82
g103
sg75
(lp110
S'False'
p111
asbasbasbag68
(g84
g70
NtRp112
(dp113
g73
(dp114
sg82
g78
sg75
(lp115
g68
(g89
g70
NtRp116
(dp117
g73
(dp118
g93
g94
ssg82
g112
sg75
(lp119
S'application'
p120
asbag68
(g89
g70
NtRp121
(dp122
g73
(dp123
g100
g101
ssg82
g112
sg75
(lp124
S':'
asbag68
(g89
g70
NtRp125
(dp126
g73
(dp127
sg82
g112
sg75
(lp128
g68
(g69
g70
NtRp129
(dp130
g73
(dp131
g81
I5
ssg82
g125
sg75
(lp132
S'profile'
p133
asbasbasbag68
(g84
g70
NtRp134
(dp135
g73
(dp136
sg82
g78
sg75
(lp137
g68
(g89
g70
NtRp138
(dp139
g73
(dp140
g93
g94
ssg82
g134
sg75
(lp141
g52
asbag68
(g89
g70
NtRp142
(dp143
g73
(dp144
g100
g101
ssg82
g134
sg75
(lp145
S':'
asbag68
(g89
g70
NtRp146
(dp147
g73
(dp148
sg82
g134
sg75
(lp149
g68
(g69
g70
NtRp150
(dp151
g73
(dp152
g81
I5
ssg82
g146
sg75
(lp153
g68
(g77
g70
NtRp154
(dp155
g73
(dp156
g81
I4
ssg82
Nsg75
(lp157
sbasbasbasbag68
(g84
g70
NtRp158
(dp159
g73
(dp160
sg82
g78
sg75
(lp161
g68
(g89
g70
NtRp162
(dp163
g73
(dp164
g93
g94
ssg82
g158
sg75
(lp165
S'body'
p166
asbag68
(g89
g70
NtRp167
(dp168
g73
(dp169
g100
g101
ssg82
g158
sg75
(lp170
S':'
asbag68
(g89
g70
NtRp171
(dp172
g73
(dp173
sg82
g158
sg75
(lp174
g68
(g69
g70
NtRp175
(dp176
g73
(dp177
g81
I5
ssg82
g171
sg75
(lp178
S'<cStringIO.StringO object at 0x00000000072AA8F0>'
p179
asbasbasbag68
(g84
g70
NtRp180
(dp181
g73
(dp182
sg82
g78
sg75
(lp183
g68
(g89
g70
NtRp184
(dp185
g73
(dp186
g93
g94
ssg82
g180
sg75
(lp187
S'client'
p188
asbag68
(g89
g70
NtRp189
(dp190
g73
(dp191
g100
g101
ssg82
g180
sg75
(lp192
S':'
asbag68
(g89
g70
NtRp193
(dp194
g73
(dp195
sg82
g180
sg75
(lp196
g68
(g69
g70
NtRp197
(dp198
g73
(dp199
g81
I5
ssg82
g193
sg75
(lp200
S'127.0.0.1'
p201
asbasbasbag68
(g84
g70
NtRp202
(dp203
g73
(dp204
sg82
g78
sg75
(lp205
g68
(g89
g70
NtRp206
(dp207
g73
(dp208
g93
g94
ssg82
g202
sg75
(lp209
S'controller'
p210
asbag68
(g89
g70
NtRp211
(dp212
g73
(dp213
g100
g101
ssg82
g202
sg75
(lp214
S':'
asbag68
(g89
g70
NtRp215
(dp216
g73
(dp217
sg82
g202
sg75
(lp218
g68
(g69
g70
NtRp219
(dp220
g73
(dp221
g81
I5
ssg82
g215
sg75
(lp222
S'default'
p223
asbasbasbag68
(g84
g70
NtRp224
(dp225
g73
(dp226
sg82
g78
sg75
(lp227
g68
(g89
g70
NtRp228
(dp229
g73
(dp230
g93
g94
ssg82
g224
sg75
(lp231
S'cookies'
p232
asbag68
(g89
g70
NtRp233
(dp234
g73
(dp235
g100
g101
ssg82
g224
sg75
(lp236
S':'
asbag68
(g89
g70
NtRp237
(dp238
g73
(dp239
sg82
g224
sg75
(lp240
g68
(g69
g70
NtRp241
(dp242
g73
(dp243
g81
I5
ssg82
g237
sg75
(lp244
g68
(g77
g70
NtRp245
(dp246
g73
(dp247
g81
I4
ssg82
Nsg75
(lp248
g68
(g84
g70
NtRp249
(dp250
g73
(dp251
sg82
g245
sg75
(lp252
g68
(g89
g70
NtRp253
(dp254
g73
(dp255
g93
g94
ssg82
g249
sg75
(lp256
S'session_id_admin'
p257
asbag68
(g89
g70
NtRp258
(dp259
g73
(dp260
g100
g101
ssg82
g249
sg75
(lp261
S':'
asbag68
(g89
g70
NtRp262
(dp263
g73
(dp264
sg82
g249
sg75
(lp265
g68
(g69
g70
NtRp266
(dp267
g73
(dp268
g81
I4
ssg82
g262
sg75
(lp269
g68
(g77
g70
NtRp270
(dp271
g73
(dp272
g81
I3
ssg82
Nsg75
(lp273
g68
(g84
g70
NtRp274
(dp275
g73
(dp276
sg82
g270
sg75
(lp277
g68
(g89
g70
NtRp278
(dp279
g73
(dp280
g93
g94
ssg82
g274
sg75
(lp281
S'comment'
p282
asbag68
(g89
g70
NtRp283
(dp284
g73
(dp285
g100
g101
ssg82
g274
sg75
(lp286
S':'
asbag68
(g89
g70
NtRp287
(dp288
g73
(dp289
sg82
g274
sg75
(lp290
g68
(g69
g70
NtRp291
(dp292
g73
(dp293
g81
I3
ssg82
g287
sg75
(lp294
S''
asbasbasbag68
(g84
g70
NtRp295
(dp296
g73
(dp297
sg82
g270
sg75
(lp298
g68
(g89
g70
NtRp299
(dp300
g73
(dp301
g93
g94
ssg82
g295
sg75
(lp302
S'domain'
p303
asbag68
(g89
g70
NtRp304
(dp305
g73
(dp306
g100
g101
ssg82
g295
sg75
(lp307
S':'
asbag68
(g89
g70
NtRp308
(dp309
g73
(dp310
sg82
g295
sg75
(lp311
g68
(g69
g70
NtRp312
(dp313
g73
(dp314
g81
I3
ssg82
g308
sg75
(lp315
S''
asbasbasbag68
(g84
g70
NtRp316
(dp317
g73
(dp318
sg82
g270
sg75
(lp319
g68
(g89
g70
NtRp320
(dp321
g73
(dp322
g93
g94
ssg82
g316
sg75
(lp323
S'expires'
p324
asbag68
(g89
g70
NtRp325
(dp326
g73
(dp327
g100
g101
ssg82
g316
sg75
(lp328
S':'
asbag68
(g89
g70
NtRp329
(dp330
g73
(dp331
sg82
g316
sg75
(lp332
g68
(g69
g70
NtRp333
(dp334
g73
(dp335
g81
I3
ssg82
g329
sg75
(lp336
S''
asbasbasbag68
(g84
g70
NtRp337
(dp338
g73
(dp339
sg82
g270
sg75
(lp340
g68
(g89
g70
NtRp341
(dp342
g73
(dp343
g93
g94
ssg82
g337
sg75
(lp344
S'httponly'
p345
asbag68
(g89
g70
NtRp346
(dp347
g73
(dp348
g100
g101
ssg82
g337
sg75
(lp349
S':'
asbag68
(g89
g70
NtRp350
(dp351
g73
(dp352
sg82
g337
sg75
(lp353
g68
(g69
g70
NtRp354
(dp355
g73
(dp356
g81
I3
ssg82
g350
sg75
(lp357
S''
asbasbasbag68
(g84
g70
NtRp358
(dp359
g73
(dp360
sg82
g270
sg75
(lp361
g68
(g89
g70
NtRp362
(dp363
g73
(dp364
g93
g94
ssg82
g358
sg75
(lp365
S'max-age'
p366
asbag68
(g89
g70
NtRp367
(dp368
g73
(dp369
g100
g101
ssg82
g358
sg75
(lp370
S':'
asbag68
(g89
g70
NtRp371
(dp372
g73
(dp373
sg82
g358
sg75
(lp374
g68
(g69
g70
NtRp375
(dp376
g73
(dp377
g81
I3
ssg82
g371
sg75
(lp378
S''
asbasbasbag68
(g84
g70
NtRp379
(dp380
g73
(dp381
sg82
g270
sg75
(lp382
g68
(g89
g70
NtRp383
(dp384
g73
(dp385
g93
g94
ssg82
g379
sg75
(lp386
S'path'
p387
asbag68
(g89
g70
NtRp388
(dp389
g73
(dp390
g100
g101
ssg82
g379
sg75
(lp391
S':'
asbag68
(g89
g70
NtRp392
(dp393
g73
(dp394
sg82
g379
sg75
(lp395
g68
(g69
g70
NtRp396
(dp397
g73
(dp398
g81
I3
ssg82
g392
sg75
(lp399
S''
asbasbasbag68
(g84
g70
NtRp400
(dp401
g73
(dp402
sg82
g270
sg75
(lp403
g68
(g89
g70
NtRp404
(dp405
g73
(dp406
g93
g94
ssg82
g400
sg75
(lp407
S'secure'
p408
asbag68
(g89
g70
NtRp409
(dp410
g73
(dp411
g100
g101
ssg82
g400
sg75
(lp412
S':'
asbag68
(g89
g70
NtRp413
(dp414
g73
(dp415
sg82
g400
sg75
(lp416
g68
(g69
g70
NtRp417
(dp418
g73
(dp419
g81
I3
ssg82
g413
sg75
(lp420
S''
asbasbasbag68
(g84
g70
NtRp421
(dp422
g73
(dp423
sg82
g270
sg75
(lp424
g68
(g89
g70
NtRp425
(dp426
g73
(dp427
g93
g94
ssg82
g421
sg75
(lp428
S'version'
p429
asbag68
(g89
g70
NtRp430
(dp431
g73
(dp432
g100
g101
ssg82
g421
sg75
(lp433
S':'
asbag68
(g89
g70
NtRp434
(dp435
g73
(dp436
sg82
g421
sg75
(lp437
g68
(g69
g70
NtRp438
(dp439
g73
(dp440
g81
I3
ssg82
g434
sg75
(lp441
S''
asbasbasbasbasbasbasbag68
(g84
g70
NtRp442
(dp443
g73
(dp444
sg82
g245
sg75
(lp445
g68
(g89
g70
NtRp446
(dp447
g73
(dp448
g93
g94
ssg82
g442
sg75
(lp449
S'session_id_humotiv'
p450
asbag68
(g89
g70
NtRp451
(dp452
g73
(dp453
g100
g101
ssg82
g442
sg75
(lp454
S':'
asbag68
(g89
g70
NtRp455
(dp456
g73
(dp457
sg82
g442
sg75
(lp458
g68
(g69
g70
NtRp459
(dp460
g73
(dp461
g81
I4
ssg82
g455
sg75
(lp462
g68
(g77
g70
NtRp463
(dp464
g73
(dp465
g81
I3
ssg82
Nsg75
(lp466
g68
(g84
g70
NtRp467
(dp468
g73
(dp469
sg82
g463
sg75
(lp470
g68
(g89
g70
NtRp471
(dp472
g73
(dp473
g93
g94
ssg82
g467
sg75
(lp474
g282
asbag68
(g89
g70
NtRp475
(dp476
g73
(dp477
g100
g101
ssg82
g467
sg75
(lp478
S':'
asbag68
(g89
g70
NtRp479
(dp480
g73
(dp481
sg82
g467
sg75
(lp482
g68
(g69
g70
NtRp483
(dp484
g73
(dp485
g81
I3
ssg82
g479
sg75
(lp486
S''
asbasbasbag68
(g84
g70
NtRp487
(dp488
g73
(dp489
sg82
g463
sg75
(lp490
g68
(g89
g70
NtRp491
(dp492
g73
(dp493
g93
g94
ssg82
g487
sg75
(lp494
g303
asbag68
(g89
g70
NtRp495
(dp496
g73
(dp497
g100
g101
ssg82
g487
sg75
(lp498
S':'
asbag68
(g89
g70
NtRp499
(dp500
g73
(dp501
sg82
g487
sg75
(lp502
g68
(g69
g70
NtRp503
(dp504
g73
(dp505
g81
I3
ssg82
g499
sg75
(lp506
S''
asbasbasbag68
(g84
g70
NtRp507
(dp508
g73
(dp509
sg82
g463
sg75
(lp510
g68
(g89
g70
NtRp511
(dp512
g73
(dp513
g93
g94
ssg82
g507
sg75
(lp514
g324
asbag68
(g89
g70
NtRp515
(dp516
g73
(dp517
g100
g101
ssg82
g507
sg75
(lp518
S':'
asbag68
(g89
g70
NtRp519
(dp520
g73
(dp521
sg82
g507
sg75
(lp522
g68
(g69
g70
NtRp523
(dp524
g73
(dp525
g81
I3
ssg82
g519
sg75
(lp526
S''
asbasbasbag68
(g84
g70
NtRp527
(dp528
g73
(dp529
sg82
g463
sg75
(lp530
g68
(g89
g70
NtRp531
(dp532
g73
(dp533
g93
g94
ssg82
g527
sg75
(lp534
g345
asbag68
(g89
g70
NtRp535
(dp536
g73
(dp537
g100
g101
ssg82
g527
sg75
(lp538
S':'
asbag68
(g89
g70
NtRp539
(dp540
g73
(dp541
sg82
g527
sg75
(lp542
g68
(g69
g70
NtRp543
(dp544
g73
(dp545
g81
I3
ssg82
g539
sg75
(lp546
S''
asbasbasbag68
(g84
g70
NtRp547
(dp548
g73
(dp549
sg82
g463
sg75
(lp550
g68
(g89
g70
NtRp551
(dp552
g73
(dp553
g93
g94
ssg82
g547
sg75
(lp554
g366
asbag68
(g89
g70
NtRp555
(dp556
g73
(dp557
g100
g101
ssg82
g547
sg75
(lp558
S':'
asbag68
(g89
g70
NtRp559
(dp560
g73
(dp561
sg82
g547
sg75
(lp562
g68
(g69
g70
NtRp563
(dp564
g73
(dp565
g81
I3
ssg82
g559
sg75
(lp566
S''
asbasbasbag68
(g84
g70
NtRp567
(dp568
g73
(dp569
sg82
g463
sg75
(lp570
g68
(g89
g70
NtRp571
(dp572
g73
(dp573
g93
g94
ssg82
g567
sg75
(lp574
g387
asbag68
(g89
g70
NtRp575
(dp576
g73
(dp577
g100
g101
ssg82
g567
sg75
(lp578
S':'
asbag68
(g89
g70
NtRp579
(dp580
g73
(dp581
sg82
g567
sg75
(lp582
g68
(g69
g70
NtRp583
(dp584
g73
(dp585
g81
I3
ssg82
g579
sg75
(lp586
S''
asbasbasbag68
(g84
g70
NtRp587
(dp588
g73
(dp589
sg82
g463
sg75
(lp590
g68
(g89
g70
NtRp591
(dp592
g73
(dp593
g93
g94
ssg82
g587
sg75
(lp594
g408
asbag68
(g89
g70
NtRp595
(dp596
g73
(dp597
g100
g101
ssg82
g587
sg75
(lp598
S':'
asbag68
(g89
g70
NtRp599
(dp600
g73
(dp601
sg82
g587
sg75
(lp602
g68
(g69
g70
NtRp603
(dp604
g73
(dp605
g81
I3
ssg82
g599
sg75
(lp606
S''
asbasbasbag68
(g84
g70
NtRp607
(dp608
g73
(dp609
sg82
g463
sg75
(lp610
g68
(g89
g70
NtRp611
(dp612
g73
(dp613
g93
g94
ssg82
g607
sg75
(lp614
g429
asbag68
(g89
g70
NtRp615
(dp616
g73
(dp617
g100
g101
ssg82
g607
sg75
(lp618
S':'
asbag68
(g89
g70
NtRp619
(dp620
g73
(dp621
sg82
g607
sg75
(lp622
g68
(g69
g70
NtRp623
(dp624
g73
(dp625
g81
I3
ssg82
g619
sg75
(lp626
S''
asbasbasbasbasbasbasbag68
(g84
g70
NtRp627
(dp628
g73
(dp629
sg82
g245
sg75
(lp630
g68
(g89
g70
NtRp631
(dp632
g73
(dp633
g93
g94
ssg82
g627
sg75
(lp634
S'session_id_profile'
p635
asbag68
(g89
g70
NtRp636
(dp637
g73
(dp638
g100
g101
ssg82
g627
sg75
(lp639
S':'
asbag68
(g89
g70
NtRp640
(dp641
g73
(dp642
sg82
g627
sg75
(lp643
g68
(g69
g70
NtRp644
(dp645
g73
(dp646
g81
I4
ssg82
g640
sg75
(lp647
g68
(g77
g70
NtRp648
(dp649
g73
(dp650
g81
I3
ssg82
Nsg75
(lp651
g68
(g84
g70
NtRp652
(dp653
g73
(dp654
sg82
g648
sg75
(lp655
g68
(g89
g70
NtRp656
(dp657
g73
(dp658
g93
g94
ssg82
g652
sg75
(lp659
g282
asbag68
(g89
g70
NtRp660
(dp661
g73
(dp662
g100
g101
ssg82
g652
sg75
(lp663
S':'
asbag68
(g89
g70
NtRp664
(dp665
g73
(dp666
sg82
g652
sg75
(lp667
g68
(g69
g70
NtRp668
(dp669
g73
(dp670
g81
I3
ssg82
g664
sg75
(lp671
S''
asbasbasbag68
(g84
g70
NtRp672
(dp673
g73
(dp674
sg82
g648
sg75
(lp675
g68
(g89
g70
NtRp676
(dp677
g73
(dp678
g93
g94
ssg82
g672
sg75
(lp679
g303
asbag68
(g89
g70
NtRp680
(dp681
g73
(dp682
g100
g101
ssg82
g672
sg75
(lp683
S':'
asbag68
(g89
g70
NtRp684
(dp685
g73
(dp686
sg82
g672
sg75
(lp687
g68
(g69
g70
NtRp688
(dp689
g73
(dp690
g81
I3
ssg82
g684
sg75
(lp691
S''
asbasbasbag68
(g84
g70
NtRp692
(dp693
g73
(dp694
sg82
g648
sg75
(lp695
g68
(g89
g70
NtRp696
(dp697
g73
(dp698
g93
g94
ssg82
g692
sg75
(lp699
g324
asbag68
(g89
g70
NtRp700
(dp701
g73
(dp702
g100
g101
ssg82
g692
sg75
(lp703
S':'
asbag68
(g89
g70
NtRp704
(dp705
g73
(dp706
sg82
g692
sg75
(lp707
g68
(g69
g70
NtRp708
(dp709
g73
(dp710
g81
I3
ssg82
g704
sg75
(lp711
S''
asbasbasbag68
(g84
g70
NtRp712
(dp713
g73
(dp714
sg82
g648
sg75
(lp715
g68
(g89
g70
NtRp716
(dp717
g73
(dp718
g93
g94
ssg82
g712
sg75
(lp719
g345
asbag68
(g89
g70
NtRp720
(dp721
g73
(dp722
g100
g101
ssg82
g712
sg75
(lp723
S':'
asbag68
(g89
g70
NtRp724
(dp725
g73
(dp726
sg82
g712
sg75
(lp727
g68
(g69
g70
NtRp728
(dp729
g73
(dp730
g81
I3
ssg82
g724
sg75
(lp731
S''
asbasbasbag68
(g84
g70
NtRp732
(dp733
g73
(dp734
sg82
g648
sg75
(lp735
g68
(g89
g70
NtRp736
(dp737
g73
(dp738
g93
g94
ssg82
g732
sg75
(lp739
g366
asbag68
(g89
g70
NtRp740
(dp741
g73
(dp742
g100
g101
ssg82
g732
sg75
(lp743
S':'
asbag68
(g89
g70
NtRp744
(dp745
g73
(dp746
sg82
g732
sg75
(lp747
g68
(g69
g70
NtRp748
(dp749
g73
(dp750
g81
I3
ssg82
g744
sg75
(lp751
S''
asbasbasbag68
(g84
g70
NtRp752
(dp753
g73
(dp754
sg82
g648
sg75
(lp755
g68
(g89
g70
NtRp756
(dp757
g73
(dp758
g93
g94
ssg82
g752
sg75
(lp759
g387
asbag68
(g89
g70
NtRp760
(dp761
g73
(dp762
g100
g101
ssg82
g752
sg75
(lp763
S':'
asbag68
(g89
g70
NtRp764
(dp765
g73
(dp766
sg82
g752
sg75
(lp767
g68
(g69
g70
NtRp768
(dp769
g73
(dp770
g81
I3
ssg82
g764
sg75
(lp771
S''
asbasbasbag68
(g84
g70
NtRp772
(dp773
g73
(dp774
sg82
g648
sg75
(lp775
g68
(g89
g70
NtRp776
(dp777
g73
(dp778
g93
g94
ssg82
g772
sg75
(lp779
g408
asbag68
(g89
g70
NtRp780
(dp781
g73
(dp782
g100
g101
ssg82
g772
sg75
(lp783
S':'
asbag68
(g89
g70
NtRp784
(dp785
g73
(dp786
sg82
g772
sg75
(lp787
g68
(g69
g70
NtRp788
(dp789
g73
(dp790
g81
I3
ssg82
g784
sg75
(lp791
S''
asbasbasbag68
(g84
g70
NtRp792
(dp793
g73
(dp794
sg82
g648
sg75
(lp795
g68
(g89
g70
NtRp796
(dp797
g73
(dp798
g93
g94
ssg82
g792
sg75
(lp799
g429
asbag68
(g89
g70
NtRp800
(dp801
g73
(dp802
g100
g101
ssg82
g792
sg75
(lp803
S':'
asbag68
(g89
g70
NtRp804
(dp805
g73
(dp806
sg82
g792
sg75
(lp807
g68
(g69
g70
NtRp808
(dp809
g73
(dp810
g81
I3
ssg82
g804
sg75
(lp811
S''
asbasbasbasbasbasbasbasbasbasbasbag68
(g84
g70
NtRp812
(dp813
g73
(dp814
sg82
g78
sg75
(lp815
g68
(g89
g70
NtRp816
(dp817
g73
(dp818
g93
g94
ssg82
g812
sg75
(lp819
S'env'
p820
asbag68
(g89
g70
NtRp821
(dp822
g73
(dp823
g100
g101
ssg82
g812
sg75
(lp824
S':'
asbag68
(g89
g70
NtRp825
(dp826
g73
(dp827
sg82
g812
sg75
(lp828
g68
(g69
g70
NtRp829
(dp830
g73
(dp831
g81
I5
ssg82
g825
sg75
(lp832
g68
(g77
g70
NtRp833
(dp834
g73
(dp835
g81
I4
ssg82
Nsg75
(lp836
g68
(g84
g70
NtRp837
(dp838
g73
(dp839
sg82
g833
sg75
(lp840
g68
(g89
g70
NtRp841
(dp842
g73
(dp843
g93
g94
ssg82
g837
sg75
(lp844
S'app_folders'
p845
asbag68
(g89
g70
NtRp846
(dp847
g73
(dp848
g100
g101
ssg82
g837
sg75
(lp849
S':'
asbag68
(g89
g70
NtRp850
(dp851
g73
(dp852
sg82
g837
sg75
(lp853
g68
(g69
g70
NtRp854
(dp855
g73
(dp856
g81
I4
ssg82
g850
sg75
(lp857
S"set(['C:\\\\webapps\\\\ben\\\\project\\\\web2py\\\\applications\\\\humotiv\\\\', 'C:\\\\webapps\\\\ben\\\\project\\\\web2py\\\\applications\\\\profile\\\\', 'C:\\\\webapps\\\\ben\\\\project\\\\web2py\\\\applications\\\\admin\\\\'])"
p858
asbasbasbag68
(g84
g70
NtRp859
(dp860
g73
(dp861
sg82
g833
sg75
(lp862
g68
(g89
g70
NtRp863
(dp864
g73
(dp865
g93
g94
ssg82
g859
sg75
(lp866
S'applications_parent'
p867
asbag68
(g89
g70
NtRp868
(dp869
g73
(dp870
g100
g101
ssg82
g859
sg75
(lp871
S':'
asbag68
(g89
g70
NtRp872
(dp873
g73
(dp874
sg82
g859
sg75
(lp875
g68
(g69
g70
NtRp876
(dp877
g73
(dp878
g81
I4
ssg82
g872
sg75
(lp879
S'C:\\webapps\\ben\\project\\web2py'
p880
asbasbasbag68
(g84
g70
NtRp881
(dp882
g73
(dp883
sg82
g833
sg75
(lp884
g68
(g89
g70
NtRp885
(dp886
g73
(dp887
g93
g94
ssg82
g881
sg75
(lp888
S'cmd_args'
p889
asbag68
(g89
g70
NtRp890
(dp891
g73
(dp892
g100
g101
ssg82
g881
sg75
(lp893
S':'
asbag68
(g89
g70
NtRp894
(dp895
g73
(dp896
sg82
g881
sg75
(lp897
g68
(g69
g70
NtRp898
(dp899
g73
(dp900
g81
I4
ssg82
g894
sg75
(lp901
g68
(g77
g70
NtRp902
(dp903
g73
(dp904
g81
I3
ssg82
Nsg75
(lp905
sbasbasbasbag68
(g84
g70
NtRp906
(dp907
g73
(dp908
sg82
g833
sg75
(lp909
g68
(g89
g70
NtRp910
(dp911
g73
(dp912
g93
g94
ssg82
g906
sg75
(lp913
S'cmd_options'
p914
asbag68
(g89
g70
NtRp915
(dp916
g73
(dp917
g100
g101
ssg82
g906
sg75
(lp918
S':'
asbag68
(g89
g70
NtRp919
(dp920
g73
(dp921
sg82
g906
sg75
(lp922
g68
(g69
g70
NtRp923
(dp924
g73
(dp925
g81
I4
ssg82
g919
sg75
(lp926
S"<Values at 0x384b8c8: {'verbose': False, 'ip': '127.0.0.1', 'shutdown_timeout': 5, 'taskbar': False, 'nocron': False, 'pid_filename': 'httpserver.pid', 'maxthreads': None, 'softcron': False, 'server_name': 'Sablasticus-hp', 'bpython': False, 'nogui': False, 'port': 8000, 'extcron': False, 'debuglevel': 30, 'test': None, 'folder': 'C:\\\\webapps\\\\ben\\\\project\\\\web2py', 'config': '', 'import_models': False, 'winservice': '', 'shell': None, 'run': '', 'log_filename': 'httpserver.log', 'args': [''], 'socket_timeout': 1, 'ssl_ca_certificate': None, 'scheduler': None, 'profiler_filename': None, 'ssl_private_key': '', 'password': '<ask>', 'request_queue_size': 5, 'ssl_certificate': '', 'cronjob': False, 'numthreads': None, 'quiet': False, 'interfaces': None, 'minthreads': None, 'timeout': 10, 'plain': False, 'nobanner': False}>"
p927
asbasbasbag68
(g84
g70
NtRp928
(dp929
g73
(dp930
sg82
g833
sg75
(lp931
g68
(g89
g70
NtRp932
(dp933
g73
(dp934
g93
g94
ssg82
g928
sg75
(lp935
S'db_sessions'
p936
asbag68
(g89
g70
NtRp937
(dp938
g73
(dp939
g100
g101
ssg82
g928
sg75
(lp940
S':'
asbag68
(g89
g70
NtRp941
(dp942
g73
(dp943
sg82
g928
sg75
(lp944
g68
(g69
g70
NtRp945
(dp946
g73
(dp947
g81
I4
ssg82
g941
sg75
(lp948
S'set([])'
p949
asbasbasbag68
(g84
g70
NtRp950
(dp951
g73
(dp952
sg82
g833
sg75
(lp953
g68
(g89
g70
NtRp954
(dp955
g73
(dp956
g93
g94
ssg82
g950
sg75
(lp957
S'debugging'
p958
asbag68
(g89
g70
NtRp959
(dp960
g73
(dp961
g100
g101
ssg82
g950
sg75
(lp962
S':'
asbag68
(g89
g70
NtRp963
(dp964
g73
(dp965
sg82
g950
sg75
(lp966
g68
(g69
g70
NtRp967
(dp968
g73
(dp969
g81
I4
ssg82
g963
sg75
(lp970
g111
asbasbasbag68
(g84
g70
NtRp971
(dp972
g73
(dp973
sg82
g833
sg75
(lp974
g68
(g89
g70
NtRp975
(dp976
g73
(dp977
g93
g94
ssg82
g971
sg75
(lp978
S'gluon_parent'
p979
asbag68
(g89
g70
NtRp980
(dp981
g73
(dp982
g100
g101
ssg82
g971
sg75
(lp983
S':'
asbag68
(g89
g70
NtRp984
(dp985
g73
(dp986
sg82
g971
sg75
(lp987
g68
(g69
g70
NtRp988
(dp989
g73
(dp990
g81
I4
ssg82
g984
sg75
(lp991
S'C:\\webapps\\ben\\project\\web2py'
p992
asbasbasbag68
(g84
g70
NtRp993
(dp994
g73
(dp995
sg82
g833
sg75
(lp996
g68
(g89
g70
NtRp997
(dp998
g73
(dp999
g93
g94
ssg82
g993
sg75
(lp1000
S'http_accept'
p1001
asbag68
(g89
g70
NtRp1002
(dp1003
g73
(dp1004
g100
g101
ssg82
g993
sg75
(lp1005
S':'
asbag68
(g89
g70
NtRp1006
(dp1007
g73
(dp1008
sg82
g993
sg75
(lp1009
g68
(g69
g70
NtRp1010
(dp1011
g73
(dp1012
g81
I4
ssg82
g1006
sg75
(lp1013
S'text/html,application/xhtml+xml,application/xml;q=0.9,*/*;q=0.8'
p1014
asbasbasbag68
(g84
g70
NtRp1015
(dp1016
g73
(dp1017
sg82
g833
sg75
(lp1018
g68
(g89
g70
NtRp1019
(dp1020
g73
(dp1021
g93
g94
ssg82
g1015
sg75
(lp1022
S'http_accept_charset'
p1023
asbag68
(g89
g70
NtRp1024
(dp1025
g73
(dp1026
g100
g101
ssg82
g1015
sg75
(lp1027
S':'
asbag68
(g89
g70
NtRp1028
(dp1029
g73
(dp1030
sg82
g1015
sg75
(lp1031
g68
(g69
g70
NtRp1032
(dp1033
g73
(dp1034
g81
I4
ssg82
g1028
sg75
(lp1035
S'ISO-8859-1,utf-8;q=0.7,*;q=0.3'
p1036
asbasbasbag68
(g84
g70
NtRp1037
(dp1038
g73
(dp1039
sg82
g833
sg75
(lp1040
g68
(g89
g70
NtRp1041
(dp1042
g73
(dp1043
g93
g94
ssg82
g1037
sg75
(lp1044
S'http_accept_encoding'
p1045
asbag68
(g89
g70
NtRp1046
(dp1047
g73
(dp1048
g100
g101
ssg82
g1037
sg75
(lp1049
S':'
asbag68
(g89
g70
NtRp1050
(dp1051
g73
(dp1052
sg82
g1037
sg75
(lp1053
g68
(g69
g70
NtRp1054
(dp1055
g73
(dp1056
g81
I4
ssg82
g1050
sg75
(lp1057
S'gzip,deflate,sdch'
p1058
asbasbasbag68
(g84
g70
NtRp1059
(dp1060
g73
(dp1061
sg82
g833
sg75
(lp1062
g68
(g89
g70
NtRp1063
(dp1064
g73
(dp1065
g93
g94
ssg82
g1059
sg75
(lp1066
S'http_accept_language'
p1067
asbag68
(g89
g70
NtRp1068
(dp1069
g73
(dp1070
g100
g101
ssg82
g1059
sg75
(lp1071
S':'
asbag68
(g89
g70
NtRp1072
(dp1073
g73
(dp1074
sg82
g1059
sg75
(lp1075
g68
(g69
g70
NtRp1076
(dp1077
g73
(dp1078
g81
I4
ssg82
g1072
sg75
(lp1079
S'en-GB,en-US;q=0.8,en;q=0.6'
p1080
asbasbasbag68
(g84
g70
NtRp1081
(dp1082
g73
(dp1083
sg82
g833
sg75
(lp1084
g68
(g89
g70
NtRp1085
(dp1086
g73
(dp1087
g93
g94
ssg82
g1081
sg75
(lp1088
S'http_connection'
p1089
asbag68
(g89
g70
NtRp1090
(dp1091
g73
(dp1092
g100
g101
ssg82
g1081
sg75
(lp1093
S':'
asbag68
(g89
g70
NtRp1094
(dp1095
g73
(dp1096
sg82
g1081
sg75
(lp1097
g68
(g69
g70
NtRp1098
(dp1099
g73
(dp1100
g81
I4
ssg82
g1094
sg75
(lp1101
S'keep-alive'
p1102
asbasbasbag68
(g84
g70
NtRp1103
(dp1104
g73
(dp1105
sg82
g833
sg75
(lp1106
g68
(g89
g70
NtRp1107
(dp1108
g73
(dp1109
g93
g94
ssg82
g1103
sg75
(lp1110
S'http_cookie'
p1111
asbag68
(g89
g70
NtRp1112
(dp1113
g73
(dp1114
g100
g101
ssg82
g1103
sg75
(lp1115
S':'
asbag68
(g89
g70
NtRp1116
(dp1117
g73
(dp1118
sg82
g1103
sg75
(lp1119
g68
(g69
g70
NtRp1120
(dp1121
g73
(dp1122
g81
I4
ssg82
g1116
sg75
(lp1123
S'session_id_humotiv=127.0.0.1-8e6314b0-ba42-4984-ba63-b04dec404941; session_id_profile=127.0.0.1-2df8df87-ce83-4e2f-ba9f-52f4f1f1e8bc; session_id_admin=127.0.0.1-8aed43d6-6f1b-443e-8333-5f0907838a23'
p1124
asbasbasbag68
(g84
g70
NtRp1125
(dp1126
g73
(dp1127
sg82
g833
sg75
(lp1128
g68
(g89
g70
NtRp1129
(dp1130
g73
(dp1131
g93
g94
ssg82
g1125
sg75
(lp1132
S'http_host'
p1133
asbag68
(g89
g70
NtRp1134
(dp1135
g73
(dp1136
g100
g101
ssg82
g1125
sg75
(lp1137
S':'
asbag68
(g89
g70
NtRp1138
(dp1139
g73
(dp1140
sg82
g1125
sg75
(lp1141
g68
(g69
g70
NtRp1142
(dp1143
g73
(dp1144
g81
I4
ssg82
g1138
sg75
(lp1145
S'127.0.0.1:8001'
p1146
asbasbasbag68
(g84
g70
NtRp1147
(dp1148
g73
(dp1149
sg82
g833
sg75
(lp1150
g68
(g89
g70
NtRp1151
(dp1152
g73
(dp1153
g93
g94
ssg82
g1147
sg75
(lp1154
S'http_user_agent'
p1155
asbag68
(g89
g70
NtRp1156
(dp1157
g73
(dp1158
g100
g101
ssg82
g1147
sg75
(lp1159
S':'
asbag68
(g89
g70
NtRp1160
(dp1161
g73
(dp1162
sg82
g1147
sg75
(lp1163
g68
(g69
g70
NtRp1164
(dp1165
g73
(dp1166
g81
I4
ssg82
g1160
sg75
(lp1167
S'Mozilla/5.0 (Windows NT 6.1; WOW64) AppleWebKit/535.19 (KHTML, like Gecko) Chrome/18.0.1025.168 Safari/535.19'
p1168
asbasbasbag68
(g84
g70
NtRp1169
(dp1170
g73
(dp1171
sg82
g833
sg75
(lp1172
g68
(g89
g70
NtRp1173
(dp1174
g73
(dp1175
g93
g94
ssg82
g1169
sg75
(lp1176
S'is_jython'
p1177
asbag68
(g89
g70
NtRp1178
(dp1179
g73
(dp1180
g100
g101
ssg82
g1169
sg75
(lp1181
S':'
asbag68
(g89
g70
NtRp1182
(dp1183
g73
(dp1184
sg82
g1169
sg75
(lp1185
g68
(g69
g70
NtRp1186
(dp1187
g73
(dp1188
g81
I4
ssg82
g1182
sg75
(lp1189
g111
asbasbasbag68
(g84
g70
NtRp1190
(dp1191
g73
(dp1192
sg82
g833
sg75
(lp1193
g68
(g89
g70
NtRp1194
(dp1195
g73
(dp1196
g93
g94
ssg82
g1190
sg75
(lp1197
S'is_pypy'
p1198
asbag68
(g89
g70
NtRp1199
(dp1200
g73
(dp1201
g100
g101
ssg82
g1190
sg75
(lp1202
S':'
asbag68
(g89
g70
NtRp1203
(dp1204
g73
(dp1205
sg82
g1190
sg75
(lp1206
g68
(g69
g70
NtRp1207
(dp1208
g73
(dp1209
g81
I4
ssg82
g1203
sg75
(lp1210
g111
asbasbasbag68
(g84
g70
NtRp1211
(dp1212
g73
(dp1213
sg82
g833
sg75
(lp1214
g68
(g89
g70
NtRp1215
(dp1216
g73
(dp1217
g93
g94
ssg82
g1211
sg75
(lp1218
S'path_info'
p1219
asbag68
(g89
g70
NtRp1220
(dp1221
g73
(dp1222
g100
g101
ssg82
g1211
sg75
(lp1223
S':'
asbag68
(g89
g70
NtRp1224
(dp1225
g73
(dp1226
sg82
g1211
sg75
(lp1227
g68
(g69
g70
NtRp1228
(dp1229
g73
(dp1230
g81
I4
ssg82
g1224
sg75
(lp1231
S'/profile/default/index'
p1232
asbasbasbag68
(g84
g70
NtRp1233
(dp1234
g73
(dp1235
sg82
g833
sg75
(lp1236
g68
(g89
g70
NtRp1237
(dp1238
g73
(dp1239
g93
g94
ssg82
g1233
sg75
(lp1240
S'query_string'
p1241
asbag68
(g89
g70
NtRp1242
(dp1243
g73
(dp1244
g100
g101
ssg82
g1233
sg75
(lp1245
S':'
asbag68
(g89
g70
NtRp1246
(dp1247
g73
(dp1248
sg82
g1233
sg75
(lp1249
g68
(g69
g70
NtRp1250
(dp1251
g73
(dp1252
g81
I4
ssg82
g1246
sg75
(lp1253
S''
asbasbasbag68
(g84
g70
NtRp1254
(dp1255
g73
(dp1256
sg82
g833
sg75
(lp1257
g68
(g89
g70
NtRp1258
(dp1259
g73
(dp1260
g93
g94
ssg82
g1254
sg75
(lp1261
S'remote_addr'
p1262
asbag68
(g89
g70
NtRp1263
(dp1264
g73
(dp1265
g100
g101
ssg82
g1254
sg75
(lp1266
S':'
asbag68
(g89
g70
NtRp1267
(dp1268
g73
(dp1269
sg82
g1254
sg75
(lp1270
g68
(g69
g70
NtRp1271
(dp1272
g73
(dp1273
g81
I4
ssg82
g1267
sg75
(lp1274
g201
asbasbasbag68
(g84
g70
NtRp1275
(dp1276
g73
(dp1277
sg82
g833
sg75
(lp1278
g68
(g89
g70
NtRp1279
(dp1280
g73
(dp1281
g93
g94
ssg82
g1275
sg75
(lp1282
S'remote_port'
p1283
asbag68
(g89
g70
NtRp1284
(dp1285
g73
(dp1286
g100
g101
ssg82
g1275
sg75
(lp1287
S':'
asbag68
(g89
g70
NtRp1288
(dp1289
g73
(dp1290
sg82
g1275
sg75
(lp1291
g68
(g69
g70
NtRp1292
(dp1293
g73
(dp1294
g81
I4
ssg82
g1288
sg75
(lp1295
S'62877'
p1296
asbasbasbag68
(g84
g70
NtRp1297
(dp1298
g73
(dp1299
sg82
g833
sg75
(lp1300
g68
(g89
g70
NtRp1301
(dp1302
g73
(dp1303
g93
g94
ssg82
g1297
sg75
(lp1304
S'request_method'
p1305
asbag68
(g89
g70
NtRp1306
(dp1307
g73
(dp1308
g100
g101
ssg82
g1297
sg75
(lp1309
S':'
asbag68
(g89
g70
NtRp1310
(dp1311
g73
(dp1312
sg82
g1297
sg75
(lp1313
g68
(g69
g70
NtRp1314
(dp1315
g73
(dp1316
g81
I4
ssg82
g1310
sg75
(lp1317
S'GET'
p1318
asbasbasbag68
(g84
g70
NtRp1319
(dp1320
g73
(dp1321
sg82
g833
sg75
(lp1322
g68
(g89
g70
NtRp1323
(dp1324
g73
(dp1325
g93
g94
ssg82
g1319
sg75
(lp1326
S'request_uri'
p1327
asbag68
(g89
g70
NtRp1328
(dp1329
g73
(dp1330
g100
g101
ssg82
g1319
sg75
(lp1331
S':'
asbag68
(g89
g70
NtRp1332
(dp1333
g73
(dp1334
sg82
g1319
sg75
(lp1335
g68
(g69
g70
NtRp1336
(dp1337
g73
(dp1338
g81
I4
ssg82
g1332
sg75
(lp1339
g1232
asbasbasbag68
(g84
g70
NtRp1340
(dp1341
g73
(dp1342
sg82
g833
sg75
(lp1343
g68
(g89
g70
NtRp1344
(dp1345
g73
(dp1346
g93
g94
ssg82
g1340
sg75
(lp1347
S'script_name'
p1348
asbag68
(g89
g70
NtRp1349
(dp1350
g73
(dp1351
g100
g101
ssg82
g1340
sg75
(lp1352
S':'
asbag68
(g89
g70
NtRp1353
(dp1354
g73
(dp1355
sg82
g1340
sg75
(lp1356
g68
(g69
g70
NtRp1357
(dp1358
g73
(dp1359
g81
I4
ssg82
g1353
sg75
(lp1360
S''
asbasbasbag68
(g84
g70
NtRp1361
(dp1362
g73
(dp1363
sg82
g833
sg75
(lp1364
g68
(g89
g70
NtRp1365
(dp1366
g73
(dp1367
g93
g94
ssg82
g1361
sg75
(lp1368
S'server_name'
p1369
asbag68
(g89
g70
NtRp1370
(dp1371
g73
(dp1372
g100
g101
ssg82
g1361
sg75
(lp1373
S':'
asbag68
(g89
g70
NtRp1374
(dp1375
g73
(dp1376
sg82
g1361
sg75
(lp1377
g68
(g69
g70
NtRp1378
(dp1379
g73
(dp1380
g81
I4
ssg82
g1374
sg75
(lp1381
S'Sablasticus-hp'
p1382
asbasbasbag68
(g84
g70
NtRp1383
(dp1384
g73
(dp1385
sg82
g833
sg75
(lp1386
g68
(g89
g70
NtRp1387
(dp1388
g73
(dp1389
g93
g94
ssg82
g1383
sg75
(lp1390
S'server_port'
p1391
asbag68
(g89
g70
NtRp1392
(dp1393
g73
(dp1394
g100
g101
ssg82
g1383
sg75
(lp1395
S':'
asbag68
(g89
g70
NtRp1396
(dp1397
g73
(dp1398
sg82
g1383
sg75
(lp1399
g68
(g69
g70
NtRp1400
(dp1401
g73
(dp1402
g81
I4
ssg82
g1396
sg75
(lp1403
S'8001'
p1404
asbasbasbag68
(g84
g70
NtRp1405
(dp1406
g73
(dp1407
sg82
g833
sg75
(lp1408
g68
(g89
g70
NtRp1409
(dp1410
g73
(dp1411
g93
g94
ssg82
g1405
sg75
(lp1412
S'server_protocol'
p1413
asbag68
(g89
g70
NtRp1414
(dp1415
g73
(dp1416
g100
g101
ssg82
g1405
sg75
(lp1417
S':'
asbag68
(g89
g70
NtRp1418
(dp1419
g73
(dp1420
sg82
g1405
sg75
(lp1421
g68
(g69
g70
NtRp1422
(dp1423
g73
(dp1424
g81
I4
ssg82
g1418
sg75
(lp1425
S'HTTP/1.1'
p1426
asbasbasbag68
(g84
g70
NtRp1427
(dp1428
g73
(dp1429
sg82
g833
sg75
(lp1430
g68
(g89
g70
NtRp1431
(dp1432
g73
(dp1433
g93
g94
ssg82
g1427
sg75
(lp1434
S'server_software'
p1435
asbag68
(g89
g70
NtRp1436
(dp1437
g73
(dp1438
g100
g101
ssg82
g1427
sg75
(lp1439
S':'
asbag68
(g89
g70
NtRp1440
(dp1441
g73
(dp1442
sg82
g1427
sg75
(lp1443
g68
(g69
g70
NtRp1444
(dp1445
g73
(dp1446
g81
I4
ssg82
g1440
sg75
(lp1447
S'Rocket 1.2.4'
p1448
asbasbasbag68
(g84
g70
NtRp1449
(dp1450
g73
(dp1451
sg82
g833
sg75
(lp1452
g68
(g89
g70
NtRp1453
(dp1454
g73
(dp1455
g93
g94
ssg82
g1449
sg75
(lp1456
S'web2py_crontype'
p1457
asbag68
(g89
g70
NtRp1458
(dp1459
g73
(dp1460
g100
g101
ssg82
g1449
sg75
(lp1461
S':'
asbag68
(g89
g70
NtRp1462
(dp1463
g73
(dp1464
sg82
g1449
sg75
(lp1465
g68
(g69
g70
NtRp1466
(dp1467
g73
(dp1468
g81
I4
ssg82
g1462
sg75
(lp1469
S'hard'
p1470
asbasbasbag68
(g84
g70
NtRp1471
(dp1472
g73
(dp1473
sg82
g833
sg75
(lp1474
g68
(g89
g70
NtRp1475
(dp1476
g73
(dp1477
g93
g94
ssg82
g1471
sg75
(lp1478
S'web2py_original_uri'
p1479
asbag68
(g89
g70
NtRp1480
(dp1481
g73
(dp1482
g100
g101
ssg82
g1471
sg75
(lp1483
S':'
asbag68
(g89
g70
NtRp1484
(dp1485
g73
(dp1486
sg82
g1471
sg75
(lp1487
g68
(g69
g70
NtRp1488
(dp1489
g73
(dp1490
g81
I4
ssg82
g1484
sg75
(lp1491
g1232
asbasbasbag68
(g84
g70
NtRp1492
(dp1493
g73
(dp1494
sg82
g833
sg75
(lp1495
g68
(g89
g70
NtRp1496
(dp1497
g73
(dp1498
g93
g94
ssg82
g1492
sg75
(lp1499
S'web2py_path'
p1500
asbag68
(g89
g70
NtRp1501
(dp1502
g73
(dp1503
g100
g101
ssg82
g1492
sg75
(lp1504
S':'
asbag68
(g89
g70
NtRp1505
(dp1506
g73
(dp1507
sg82
g1492
sg75
(lp1508
g68
(g69
g70
NtRp1509
(dp1510
g73
(dp1511
g81
I4
ssg82
g1505
sg75
(lp1512
g880
asbasbasbag68
(g84
g70
NtRp1513
(dp1514
g73
(dp1515
sg82
g833
sg75
(lp1516
g68
(g89
g70
NtRp1517
(dp1518
g73
(dp1519
g93
g94
ssg82
g1513
sg75
(lp1520
S'web2py_version'
p1521
asbag68
(g89
g70
NtRp1522
(dp1523
g73
(dp1524
g100
g101
ssg82
g1513
sg75
(lp1525
S':'
asbag68
(g89
g70
NtRp1526
(dp1527
g73
(dp1528
sg82
g1513
sg75
(lp1529
g68
(g69
g70
NtRp1530
(dp1531
g73
(dp1532
g81
I4
ssg82
g1526
sg75
(lp1533
g68
(g77
g70
NtRp1534
(dp1535
g73
(dp1536
g81
I3
ssg82
Nsg75
(lp1537
g68
(g84
g70
NtRp1538
(dp1539
g73
(dp1540
sg82
g1534
sg75
(lp1541
g68
(g89
g70
NtRp1542
(dp1543
g73
(dp1544
sg82
g1538
sg75
(lp1545
g68
(g69
g70
NtRp1546
(dp1547
g73
(dp1548
g81
I3
ssg82
g1542
sg75
(lp1549
S'1'
asbasbasbag68
(g84
g70
NtRp1550
(dp1551
g73
(dp1552
sg82
g1534
sg75
(lp1553
g68
(g89
g70
NtRp1554
(dp1555
g73
(dp1556
sg82
g1550
sg75
(lp1557
g68
(g69
g70
NtRp1558
(dp1559
g73
(dp1560
g81
I3
ssg82
g1554
sg75
(lp1561
S'99'
p1562
asbasbasbag68
(g84
g70
NtRp1563
(dp1564
g73
(dp1565
sg82
g1534
sg75
(lp1566
g68
(g89
g70
NtRp1567
(dp1568
g73
(dp1569
sg82
g1563
sg75
(lp1570
g68
(g69
g70
NtRp1571
(dp1572
g73
(dp1573
g81
I3
ssg82
g1567
sg75
(lp1574
S'4'
asbasbasbag68
(g84
g70
NtRp1575
(dp1576
g73
(dp1577
sg82
g1534
sg75
(lp1578
g68
(g89
g70
NtRp1579
(dp1580
g73
(dp1581
sg82
g1575
sg75
(lp1582
g68
(g69
g70
NtRp1583
(dp1584
g73
(dp1585
g81
I3
ssg82
g1579
sg75
(lp1586
S'datetime.datetime(2011, 12, 14, 14, 46, 14)'
p1587
asbasbasbag68
(g84
g70
NtRp1588
(dp1589
g73
(dp1590
sg82
g1534
sg75
(lp1591
g68
(g89
g70
NtRp1592
(dp1593
g73
(dp1594
sg82
g1588
sg75
(lp1595
g68
(g69
g70
NtRp1596
(dp1597
g73
(dp1598
g81
I3
ssg82
g1592
sg75
(lp1599
S'stable'
p1600
asbasbasbasbasbasbasbag68
(g84
g70
NtRp1601
(dp1602
g73
(dp1603
sg82
g833
sg75
(lp1604
g68
(g89
g70
NtRp1605
(dp1606
g73
(dp1607
g93
g94
ssg82
g1601
sg75
(lp1608
S'wsgi_errors'
p1609
asbag68
(g89
g70
NtRp1610
(dp1611
g73
(dp1612
g100
g101
ssg82
g1601
sg75
(lp1613
S':'
asbag68
(g89
g70
NtRp1614
(dp1615
g73
(dp1616
sg82
g1601
sg75
(lp1617
g68
(g69
g70
NtRp1618
(dp1619
g73
(dp1620
g81
I4
ssg82
g1614
sg75
(lp1621
S"<open file '<stderr>', mode 'w' at 0x0000000001D2E1E0>"
p1622
asbasbasbag68
(g84
g70
NtRp1623
(dp1624
g73
(dp1625
sg82
g833
sg75
(lp1626
g68
(g89
g70
NtRp1627
(dp1628
g73
(dp1629
g93
g94
ssg82
g1623
sg75
(lp1630
S'wsgi_file_wrapper'
p1631
asbag68
(g89
g70
NtRp1632
(dp1633
g73
(dp1634
g100
g101
ssg82
g1623
sg75
(lp1635
S':'
asbag68
(g89
g70
NtRp1636
(dp1637
g73
(dp1638
sg82
g1623
sg75
(lp1639
g68
(g69
g70
NtRp1640
(dp1641
g73
(dp1642
g81
I4
ssg82
g1636
sg75
(lp1643
S'<class wsgiref.util.FileWrapper at 0x0000000003714DC8>'
p1644
asbasbasbag68
(g84
g70
NtRp1645
(dp1646
g73
(dp1647
sg82
g833
sg75
(lp1648
g68
(g89
g70
NtRp1649
(dp1650
g73
(dp1651
g93
g94
ssg82
g1645
sg75
(lp1652
S'wsgi_input'
p1653
asbag68
(g89
g70
NtRp1654
(dp1655
g73
(dp1656
g100
g101
ssg82
g1645
sg75
(lp1657
S':'
asbag68
(g89
g70
NtRp1658
(dp1659
g73
(dp1660
sg82
g1645
sg75
(lp1661
g68
(g69
g70
NtRp1662
(dp1663
g73
(dp1664
g81
I4
ssg82
g1658
sg75
(lp1665
S'<socket._fileobject object at 0x000000000729EED0>'
p1666
asbasbasbag68
(g84
g70
NtRp1667
(dp1668
g73
(dp1669
sg82
g833
sg75
(lp1670
g68
(g89
g70
NtRp1671
(dp1672
g73
(dp1673
g93
g94
ssg82
g1667
sg75
(lp1674
S'wsgi_multiprocess'
p1675
asbag68
(g89
g70
NtRp1676
(dp1677
g73
(dp1678
g100
g101
ssg82
g1667
sg75
(lp1679
S':'
asbag68
(g89
g70
NtRp1680
(dp1681
g73
(dp1682
sg82
g1667
sg75
(lp1683
g68
(g69
g70
NtRp1684
(dp1685
g73
(dp1686
g81
I4
ssg82
g1680
sg75
(lp1687
g111
asbasbasbag68
(g84
g70
NtRp1688
(dp1689
g73
(dp1690
sg82
g833
sg75
(lp1691
g68
(g89
g70
NtRp1692
(dp1693
g73
(dp1694
g93
g94
ssg82
g1688
sg75
(lp1695
S'wsgi_multithread'
p1696
asbag68
(g89
g70
NtRp1697
(dp1698
g73
(dp1699
g100
g101
ssg82
g1688
sg75
(lp1700
S':'
asbag68
(g89
g70
NtRp1701
(dp1702
g73
(dp1703
sg82
g1688
sg75
(lp1704
g68
(g69
g70
NtRp1705
(dp1706
g73
(dp1707
g81
I4
ssg82
g1701
sg75
(lp1708
S'True'
p1709
asbasbasbag68
(g84
g70
NtRp1710
(dp1711
g73
(dp1712
sg82
g833
sg75
(lp1713
g68
(g89
g70
NtRp1714
(dp1715
g73
(dp1716
g93
g94
ssg82
g1710
sg75
(lp1717
S'wsgi_run_once'
p1718
asbag68
(g89
g70
NtRp1719
(dp1720
g73
(dp1721
g100
g101
ssg82
g1710
sg75
(lp1722
S':'
asbag68
(g89
g70
NtRp1723
(dp1724
g73
(dp1725
sg82
g1710
sg75
(lp1726
g68
(g69
g70
NtRp1727
(dp1728
g73
(dp1729
g81
I4
ssg82
g1723
sg75
(lp1730
g111
asbasbasbag68
(g84
g70
NtRp1731
(dp1732
g73
(dp1733
sg82
g833
sg75
(lp1734
g68
(g89
g70
NtRp1735
(dp1736
g73
(dp1737
g93
g94
ssg82
g1731
sg75
(lp1738
S'wsgi_url_scheme'
p1739
asbag68
(g89
g70
NtRp1740
(dp1741
g73
(dp1742
g100
g101
ssg82
g1731
sg75
(lp1743
S':'
asbag68
(g89
g70
NtRp1744
(dp1745
g73
(dp1746
sg82
g1731
sg75
(lp1747
g68
(g69
g70
NtRp1748
(dp1749
g73
(dp1750
g81
I4
ssg82
g1744
sg75
(lp1751
S'http'
p1752
asbasbasbag68
(g84
g70
NtRp1753
(dp1754
g73
(dp1755
sg82
g833
sg75
(lp1756
g68
(g89
g70
NtRp1757
(dp1758
g73
(dp1759
g93
g94
ssg82
g1753
sg75
(lp1760
S'wsgi_version'
p1761
asbag68
(g89
g70
NtRp1762
(dp1763
g73
(dp1764
g100
g101
ssg82
g1753
sg75
(lp1765
S':'
asbag68
(g89
g70
NtRp1766
(dp1767
g73
(dp1768
sg82
g1753
sg75
(lp1769
g68
(g69
g70
NtRp1770
(dp1771
g73
(dp1772
g81
I4
ssg82
g1766
sg75
(lp1773
g68
(g77
g70
NtRp1774
(dp1775
g73
(dp1776
g81
I3
ssg82
Nsg75
(lp1777
g68
(g84
g70
NtRp1778
(dp1779
g73
(dp1780
sg82
g1774
sg75
(lp1781
g68
(g89
g70
NtRp1782
(dp1783
g73
(dp1784
sg82
g1778
sg75
(lp1785
g68
(g69
g70
NtRp1786
(dp1787
g73
(dp1788
g81
I3
ssg82
g1782
sg75
(lp1789
S'1'
asbasbasbag68
(g84
g70
NtRp1790
(dp1791
g73
(dp1792
sg82
g1774
sg75
(lp1793
g68
(g89
g70
NtRp1794
(dp1795
g73
(dp1796
sg82
g1790
sg75
(lp1797
g68
(g69
g70
NtRp1798
(dp1799
g73
(dp1800
g81
I3
ssg82
g1794
sg75
(lp1801
S'0'
asbasbasbasbasbasbasbasbasbasbasbag68
(g84
g70
NtRp1802
(dp1803
g73
(dp1804
sg82
g78
sg75
(lp1805
g68
(g89
g70
NtRp1806
(dp1807
g73
(dp1808
g93
g94
ssg82
g1802
sg75
(lp1809
S'extension'
p1810
asbag68
(g89
g70
NtRp1811
(dp1812
g73
(dp1813
g100
g101
ssg82
g1802
sg75
(lp1814
S':'
asbag68
(g89
g70
NtRp1815
(dp1816
g73
(dp1817
sg82
g1802
sg75
(lp1818
g68
(g69
g70
NtRp1819
(dp1820
g73
(dp1821
g81
I5
ssg82
g1815
sg75
(lp1822
S'html'
p1823
asbasbasbag68
(g84
g70
NtRp1824
(dp1825
g73
(dp1826
sg82
g78
sg75
(lp1827
g68
(g89
g70
NtRp1828
(dp1829
g73
(dp1830
g93
g94
ssg82
g1824
sg75
(lp1831
S'folder'
p1832
asbag68
(g89
g70
NtRp1833
(dp1834
g73
(dp1835
g100
g101
ssg82
g1824
sg75
(lp1836
S':'
asbag68
(g89
g70
NtRp1837
(dp1838
g73
(dp1839
sg82
g1824
sg75
(lp1840
g68
(g69
g70
NtRp1841
(dp1842
g73
(dp1843
g81
I5
ssg82
g1837
sg75
(lp1844
S'C:\\webapps\\ben\\project\\web2py\\applications\\profile\\'
p1845
asbasbasbag68
(g84
g70
NtRp1846
(dp1847
g73
(dp1848
sg82
g78
sg75
(lp1849
g68
(g89
g70
NtRp1850
(dp1851
g73
(dp1852
g93
g94
ssg82
g1846
sg75
(lp1853
S'function'
p1854
asbag68
(g89
g70
NtRp1855
(dp1856
g73
(dp1857
g100
g101
ssg82
g1846
sg75
(lp1858
S':'
asbag68
(g89
g70
NtRp1859
(dp1860
g73
(dp1861
sg82
g1846
sg75
(lp1862
g68
(g69
g70
NtRp1863
(dp1864
g73
(dp1865
g81
I5
ssg82
g1859
sg75
(lp1866
S'index'
p1867
asbasbasbag68
(g84
g70
NtRp1868
(dp1869
g73
(dp1870
sg82
g78
sg75
(lp1871
g68
(g89
g70
NtRp1872
(dp1873
g73
(dp1874
g93
g94
ssg82
g1868
sg75
(lp1875
S'get_vars'
p1876
asbag68
(g89
g70
NtRp1877
(dp1878
g73
(dp1879
g100
g101
ssg82
g1868
sg75
(lp1880
S':'
asbag68
(g89
g70
NtRp1881
(dp1882
g73
(dp1883
sg82
g1868
sg75
(lp1884
g68
(g69
g70
NtRp1885
(dp1886
g73
(dp1887
g81
I5
ssg82
g1881
sg75
(lp1888
g68
(g77
g70
NtRp1889
(dp1890
g73
(dp1891
g81
I4
ssg82
Nsg75
(lp1892
sbasbasbasbag68
(g84
g70
NtRp1893
(dp1894
g73
(dp1895
sg82
g78
sg75
(lp1896
g68
(g89
g70
NtRp1897
(dp1898
g73
(dp1899
g93
g94
ssg82
g1893
sg75
(lp1900
S'global_settings'
p1901
asbag68
(g89
g70
NtRp1902
(dp1903
g73
(dp1904
g100
g101
ssg82
g1893
sg75
(lp1905
S':'
asbag68
(g89
g70
NtRp1906
(dp1907
g73
(dp1908
sg82
g1893
sg75
(lp1909
g68
(g69
g70
NtRp1910
(dp1911
g73
(dp1912
g81
I5
ssg82
g1906
sg75
(lp1913
g68
(g77
g70
NtRp1914
(dp1915
g73
(dp1916
g81
I4
ssg82
Nsg75
(lp1917
g68
(g84
g70
NtRp1918
(dp1919
g73
(dp1920
sg82
g1914
sg75
(lp1921
g68
(g89
g70
NtRp1922
(dp1923
g73
(dp1924
g93
g94
ssg82
g1918
sg75
(lp1925
g845
asbag68
(g89
g70
NtRp1926
(dp1927
g73
(dp1928
g100
g101
ssg82
g1918
sg75
(lp1929
S':'
asbag68
(g89
g70
NtRp1930
(dp1931
g73
(dp1932
sg82
g1918
sg75
(lp1933
g68
(g69
g70
NtRp1934
(dp1935
g73
(dp1936
g81
I4
ssg82
g1930
sg75
(lp1937
S"set(['C:\\\\webapps\\\\ben\\\\project\\\\web2py\\\\applications\\\\humotiv\\\\', 'C:\\\\webapps\\\\ben\\\\project\\\\web2py\\\\applications\\\\profile\\\\', 'C:\\\\webapps\\\\ben\\\\project\\\\web2py\\\\applications\\\\admin\\\\'])"
p1938
asbasbasbag68
(g84
g70
NtRp1939
(dp1940
g73
(dp1941
sg82
g1914
sg75
(lp1942
g68
(g89
g70
NtRp1943
(dp1944
g73
(dp1945
g93
g94
ssg82
g1939
sg75
(lp1946
g867
asbag68
(g89
g70
NtRp1947
(dp1948
g73
(dp1949
g100
g101
ssg82
g1939
sg75
(lp1950
S':'
asbag68
(g89
g70
NtRp1951
(dp1952
g73
(dp1953
sg82
g1939
sg75
(lp1954
g68
(g69
g70
NtRp1955
(dp1956
g73
(dp1957
g81
I4
ssg82
g1951
sg75
(lp1958
g880
asbasbasbag68
(g84
g70
NtRp1959
(dp1960
g73
(dp1961
sg82
g1914
sg75
(lp1962
g68
(g89
g70
NtRp1963
(dp1964
g73
(dp1965
g93
g94
ssg82
g1959
sg75
(lp1966
g889
asbag68
(g89
g70
NtRp1967
(dp1968
g73
(dp1969
g100
g101
ssg82
g1959
sg75
(lp1970
S':'
asbag68
(g89
g70
NtRp1971
(dp1972
g73
(dp1973
sg82
g1959
sg75
(lp1974
g68
(g69
g70
NtRp1975
(dp1976
g73
(dp1977
g81
I4
ssg82
g1971
sg75
(lp1978
g68
(g77
g70
NtRp1979
(dp1980
g73
(dp1981
g81
I3
ssg82
Nsg75
(lp1982
sbasbasbasbag68
(g84
g70
NtRp1983
(dp1984
g73
(dp1985
sg82
g1914
sg75
(lp1986
g68
(g89
g70
NtRp1987
(dp1988
g73
(dp1989
g93
g94
ssg82
g1983
sg75
(lp1990
g914
asbag68
(g89
g70
NtRp1991
(dp1992
g73
(dp1993
g100
g101
ssg82
g1983
sg75
(lp1994
S':'
asbag68
(g89
g70
NtRp1995
(dp1996
g73
(dp1997
sg82
g1983
sg75
(lp1998
g68
(g69
g70
NtRp1999
(dp2000
g73
(dp2001
g81
I4
ssg82
g1995
sg75
(lp2002
S"<Values at 0x384b8c8: {'verbose': False, 'ip': '127.0.0.1', 'shutdown_timeout': 5, 'taskbar': False, 'nocron': False, 'pid_filename': 'httpserver.pid', 'maxthreads': None, 'softcron': False, 'server_name': 'Sablasticus-hp', 'bpython': False, 'nogui': False, 'port': 8000, 'extcron': False, 'debuglevel': 30, 'test': None, 'folder': 'C:\\\\webapps\\\\ben\\\\project\\\\web2py', 'config': '', 'import_models': False, 'winservice': '', 'shell': None, 'run': '', 'log_filename': 'httpserver.log', 'args': [''], 'socket_timeout': 1, 'ssl_ca_certificate': None, 'scheduler': None, 'profiler_filename': None, 'ssl_private_key': '', 'password': '<ask>', 'request_queue_size': 5, 'ssl_certificate': '', 'cronjob': False, 'numthreads': None, 'quiet': False, 'interfaces': None, 'minthreads': None, 'timeout': 10, 'plain': False, 'nobanner': False}>"
p2003
asbasbasbag68
(g84
g70
NtRp2004
(dp2005
g73
(dp2006
sg82
g1914
sg75
(lp2007
g68
(g89
g70
NtRp2008
(dp2009
g73
(dp2010
g93
g94
ssg82
g2004
sg75
(lp2011
g936
asbag68
(g89
g70
NtRp2012
(dp2013
g73
(dp2014
g100
g101
ssg82
g2004
sg75
(lp2015
S':'
asbag68
(g89
g70
NtRp2016
(dp2017
g73
(dp2018
sg82
g2004
sg75
(lp2019
g68
(g69
g70
NtRp2020
(dp2021
g73
(dp2022
g81
I4
ssg82
g2016
sg75
(lp2023
S'set([])'
p2024
asbasbasbag68
(g84
g70
NtRp2025
(dp2026
g73
(dp2027
sg82
g1914
sg75
(lp2028
g68
(g89
g70
NtRp2029
(dp2030
g73
(dp2031
g93
g94
ssg82
g2025
sg75
(lp2032
g958
asbag68
(g89
g70
NtRp2033
(dp2034
g73
(dp2035
g100
g101
ssg82
g2025
sg75
(lp2036
S':'
asbag68
(g89
g70
NtRp2037
(dp2038
g73
(dp2039
sg82
g2025
sg75
(lp2040
g68
(g69
g70
NtRp2041
(dp2042
g73
(dp2043
g81
I4
ssg82
g2037
sg75
(lp2044
g111
asbasbasbag68
(g84
g70
NtRp2045
(dp2046
g73
(dp2047
sg82
g1914
sg75
(lp2048
g68
(g89
g70
NtRp2049
(dp2050
g73
(dp2051
g93
g94
ssg82
g2045
sg75
(lp2052
g979
asbag68
(g89
g70
NtRp2053
(dp2054
g73
(dp2055
g100
g101
ssg82
g2045
sg75
(lp2056
S':'
asbag68
(g89
g70
NtRp2057
(dp2058
g73
(dp2059
sg82
g2045
sg75
(lp2060
g68
(g69
g70
NtRp2061
(dp2062
g73
(dp2063
g81
I4
ssg82
g2057
sg75
(lp2064
g992
asbasbasbag68
(g84
g70
NtRp2065
(dp2066
g73
(dp2067
sg82
g1914
sg75
(lp2068
g68
(g89
g70
NtRp2069
(dp2070
g73
(dp2071
g93
g94
ssg82
g2065
sg75
(lp2072
g1177
asbag68
(g89
g70
NtRp2073
(dp2074
g73
(dp2075
g100
g101
ssg82
g2065
sg75
(lp2076
S':'
asbag68
(g89
g70
NtRp2077
(dp2078
g73
(dp2079
sg82
g2065
sg75
(lp2080
g68
(g69
g70
NtRp2081
(dp2082
g73
(dp2083
g81
I4
ssg82
g2077
sg75
(lp2084
g111
asbasbasbag68
(g84
g70
NtRp2085
(dp2086
g73
(dp2087
sg82
g1914
sg75
(lp2088
g68
(g89
g70
NtRp2089
(dp2090
g73
(dp2091
g93
g94
ssg82
g2085
sg75
(lp2092
g1198
asbag68
(g89
g70
NtRp2093
(dp2094
g73
(dp2095
g100
g101
ssg82
g2085
sg75
(lp2096
S':'
asbag68
(g89
g70
NtRp2097
(dp2098
g73
(dp2099
sg82
g2085
sg75
(lp2100
g68
(g69
g70
NtRp2101
(dp2102
g73
(dp2103
g81
I4
ssg82
g2097
sg75
(lp2104
g111
asbasbasbag68
(g84
g70
NtRp2105
(dp2106
g73
(dp2107
sg82
g1914
sg75
(lp2108
g68
(g89
g70
NtRp2109
(dp2110
g73
(dp2111
g93
g94
ssg82
g2105
sg75
(lp2112
g1457
asbag68
(g89
g70
NtRp2113
(dp2114
g73
(dp2115
g100
g101
ssg82
g2105
sg75
(lp2116
S':'
asbag68
(g89
g70
NtRp2117
(dp2118
g73
(dp2119
sg82
g2105
sg75
(lp2120
g68
(g69
g70
NtRp2121
(dp2122
g73
(dp2123
g81
I4
ssg82
g2117
sg75
(lp2124
g1470
asbasbasbag68
(g84
g70
NtRp2125
(dp2126
g73
(dp2127
sg82
g1914
sg75
(lp2128
g68
(g89
g70
NtRp2129
(dp2130
g73
(dp2131
g93
g94
ssg82
g2125
sg75
(lp2132
g1521
asbag68
(g89
g70
NtRp2133
(dp2134
g73
(dp2135
g100
g101
ssg82
g2125
sg75
(lp2136
S':'
asbag68
(g89
g70
NtRp2137
(dp2138
g73
(dp2139
sg82
g2125
sg75
(lp2140
g68
(g69
g70
NtRp2141
(dp2142
g73
(dp2143
g81
I4
ssg82
g2137
sg75
(lp2144
g68
(g77
g70
NtRp2145
(dp2146
g73
(dp2147
g81
I3
ssg82
Nsg75
(lp2148
g68
(g84
g70
NtRp2149
(dp2150
g73
(dp2151
sg82
g2145
sg75
(lp2152
g68
(g89
g70
NtRp2153
(dp2154
g73
(dp2155
sg82
g2149
sg75
(lp2156
g68
(g69
g70
NtRp2157
(dp2158
g73
(dp2159
g81
I3
ssg82
g2153
sg75
(lp2160
S'1'
asbasbasbag68
(g84
g70
NtRp2161
(dp2162
g73
(dp2163
sg82
g2145
sg75
(lp2164
g68
(g89
g70
NtRp2165
(dp2166
g73
(dp2167
sg82
g2161
sg75
(lp2168
g68
(g69
g70
NtRp2169
(dp2170
g73
(dp2171
g81
I3
ssg82
g2165
sg75
(lp2172
S'99'
p2173
asbasbasbag68
(g84
g70
NtRp2174
(dp2175
g73
(dp2176
sg82
g2145
sg75
(lp2177
g68
(g89
g70
NtRp2178
(dp2179
g73
(dp2180
sg82
g2174
sg75
(lp2181
g68
(g69
g70
NtRp2182
(dp2183
g73
(dp2184
g81
I3
ssg82
g2178
sg75
(lp2185
S'4'
asbasbasbag68
(g84
g70
NtRp2186
(dp2187
g73
(dp2188
sg82
g2145
sg75
(lp2189
g68
(g89
g70
NtRp2190
(dp2191
g73
(dp2192
sg82
g2186
sg75
(lp2193
g68
(g69
g70
NtRp2194
(dp2195
g73
(dp2196
g81
I3
ssg82
g2190
sg75
(lp2197
S'datetime.datetime(2011, 12, 14, 14, 46, 14)'
p2198
asbasbasbag68
(g84
g70
NtRp2199
(dp2200
g73
(dp2201
sg82
g2145
sg75
(lp2202
g68
(g89
g70
NtRp2203
(dp2204
g73
(dp2205
sg82
g2199
sg75
(lp2206
g68
(g69
g70
NtRp2207
(dp2208
g73
(dp2209
g81
I3
ssg82
g2203
sg75
(lp2210
g1600
asbasbasbasbasbasbasbasbasbasbasbag68
(g84
g70
NtRp2211
(dp2212
g73
(dp2213
sg82
g78
sg75
(lp2214
g68
(g89
g70
NtRp2215
(dp2216
g73
(dp2217
g93
g94
ssg82
g2211
sg75
(lp2218
S'is_https'
p2219
asbag68
(g89
g70
NtRp2220
(dp2221
g73
(dp2222
g100
g101
ssg82
g2211
sg75
(lp2223
S':'
asbag68
(g89
g70
NtRp2224
(dp2225
g73
(dp2226
sg82
g2211
sg75
(lp2227
g68
(g69
g70
NtRp2228
(dp2229
g73
(dp2230
g81
I5
ssg82
g2224
sg75
(lp2231
g111
asbasbasbag68
(g84
g70
NtRp2232
(dp2233
g73
(dp2234
sg82
g78
sg75
(lp2235
g68
(g89
g70
NtRp2236
(dp2237
g73
(dp2238
g93
g94
ssg82
g2232
sg75
(lp2239
S'is_local'
p2240
asbag68
(g89
g70
NtRp2241
(dp2242
g73
(dp2243
g100
g101
ssg82
g2232
sg75
(lp2244
S':'
asbag68
(g89
g70
NtRp2245
(dp2246
g73
(dp2247
sg82
g2232
sg75
(lp2248
g68
(g69
g70
NtRp2249
(dp2250
g73
(dp2251
g81
I5
ssg82
g2245
sg75
(lp2252
g1709
asbasbasbag68
(g84
g70
NtRp2253
(dp2254
g73
(dp2255
sg82
g78
sg75
(lp2256
g68
(g89
g70
NtRp2257
(dp2258
g73
(dp2259
g93
g94
ssg82
g2253
sg75
(lp2260
S'is_restful'
p2261
asbag68
(g89
g70
NtRp2262
(dp2263
g73
(dp2264
g100
g101
ssg82
g2253
sg75
(lp2265
S':'
asbag68
(g89
g70
NtRp2266
(dp2267
g73
(dp2268
sg82
g2253
sg75
(lp2269
g68
(g69
g70
NtRp2270
(dp2271
g73
(dp2272
g81
I5
ssg82
g2266
sg75
(lp2273
g111
asbasbasbag68
(g84
g70
NtRp2274
(dp2275
g73
(dp2276
sg82
g78
sg75
(lp2277
g68
(g89
g70
NtRp2278
(dp2279
g73
(dp2280
g93
g94
ssg82
g2274
sg75
(lp2281
S'now'
p2282
asbag68
(g89
g70
NtRp2283
(dp2284
g73
(dp2285
g100
g101
ssg82
g2274
sg75
(lp2286
S':'
asbag68
(g89
g70
NtRp2287
(dp2288
g73
(dp2289
sg82
g2274
sg75
(lp2290
g68
(g69
g70
NtRp2291
(dp2292
g73
(dp2293
g81
I5
ssg82
g2287
sg75
(lp2294
S'datetime.datetime(2012, 5, 16, 11, 25, 23, 776000)'
p2295
asbasbasbag68
(g84
g70
NtRp2296
(dp2297
g73
(dp2298
sg82
g78
sg75
(lp2299
g68
(g89
g70
NtRp2300
(dp2301
g73
(dp2302
g93
g94
ssg82
g2296
sg75
(lp2303
S'post_vars'
p2304
asbag68
(g89
g70
NtRp2305
(dp2306
g73
(dp2307
g100
g101
ssg82
g2296
sg75
(lp2308
S':'
asbag68
(g89
g70
NtRp2309
(dp2310
g73
(dp2311
sg82
g2296
sg75
(lp2312
g68
(g69
g70
NtRp2313
(dp2314
g73
(dp2315
g81
I5
ssg82
g2309
sg75
(lp2316
g68
(g77
g70
NtRp2317
(dp2318
g73
(dp2319
g81
I4
ssg82
Nsg75
(lp2320
sbasbasbasbag68
(g84
g70
NtRp2321
(dp2322
g73
(dp2323
sg82
g78
sg75
(lp2324
g68
(g89
g70
NtRp2325
(dp2326
g73
(dp2327
g93
g94
ssg82
g2321
sg75
(lp2328
S'url'
p2329
asbag68
(g89
g70
NtRp2330
(dp2331
g73
(dp2332
g100
g101
ssg82
g2321
sg75
(lp2333
S':'
asbag68
(g89
g70
NtRp2334
(dp2335
g73
(dp2336
sg82
g2321
sg75
(lp2337
g68
(g69
g70
NtRp2338
(dp2339
g73
(dp2340
g81
I5
ssg82
g2334
sg75
(lp2341
S'/profile/default/index'
p2342
asbasbasbag68
(g84
g70
NtRp2343
(dp2344
g73
(dp2345
sg82
g78
sg75
(lp2346
g68
(g89
g70
NtRp2347
(dp2348
g73
(dp2349
g93
g94
ssg82
g2343
sg75
(lp2350
S'utcnow'
p2351
asbag68
(g89
g70
NtRp2352
(dp2353
g73
(dp2354
g100
g101
ssg82
g2343
sg75
(lp2355
S':'
asbag68
(g89
g70
NtRp2356
(dp2357
g73
(dp2358
sg82
g2343
sg75
(lp2359
g68
(g69
g70
NtRp2360
(dp2361
g73
(dp2362
g81
I5
ssg82
g2356
sg75
(lp2363
S'datetime.datetime(2012, 5, 16, 1, 25, 23, 776000)'
p2364
asbasbasbag68
(g84
g70
NtRp2365
(dp2366
g73
(dp2367
sg82
g78
sg75
(lp2368
g68
(g89
g70
NtRp2369
(dp2370
g73
(dp2371
g93
g94
ssg82
g2365
sg75
(lp2372
S'uuid'
p2373
asbag68
(g89
g70
NtRp2374
(dp2375
g73
(dp2376
g100
g101
ssg82
g2365
sg75
(lp2377
S':'
asbag68
(g89
g70
NtRp2378
(dp2379
g73
(dp2380
sg82
g2365
sg75
(lp2381
g68
(g69
g70
NtRp2382
(dp2383
g73
(dp2384
g81
I5
ssg82
g2378
sg75
(lp2385
S'profile/127.0.0.1.2012-05-16.11-25-23.f73aadbf-6fc5-4484-bcf6-b93942361ee8'
p2386
asbasbasbag68
(g84
g70
NtRp2387
(dp2388
g73
(dp2389
sg82
g78
sg75
(lp2390
g68
(g89
g70
NtRp2391
(dp2392
g73
(dp2393
g93
g94
ssg82
g2387
sg75
(lp2394
S'vars'
p2395
asbag68
(g89
g70
NtRp2396
(dp2397
g73
(dp2398
g100
g101
ssg82
g2387
sg75
(lp2399
S':'
asbag68
(g89
g70
NtRp2400
(dp2401
g73
(dp2402
sg82
g2387
sg75
(lp2403
g68
(g69
g70
NtRp2404
(dp2405
g73
(dp2406
g81
I5
ssg82
g2400
sg75
(lp2407
g68
(g77
g70
NtRp2408
(dp2409
g73
(dp2410
g81
I4
ssg82
Nsg75
(lp2411
sbasbasbasbag68
(g84
g70
NtRp2412
(dp2413
g73
(dp2414
sg82
g78
sg75
(lp2415
g68
(g89
g70
NtRp2416
(dp2417
g73
(dp2418
g93
g94
ssg82
g2412
sg75
(lp2419
S'wsgi'
p2420
asbag68
(g89
g70
NtRp2421
(dp2422
g73
(dp2423
g100
g101
ssg82
g2412
sg75
(lp2424
S':'
asbag68
(g89
g70
NtRp2425
(dp2426
g73
(dp2427
sg82
g2412
sg75
(lp2428
g68
(g69
g70
NtRp2429
(dp2430
g73
(dp2431
g81
I5
ssg82
g2425
sg75
(lp2432
g68
(g77
g70
NtRp2433
(dp2434
g73
(dp2435
g81
I4
ssg82
Nsg75
(lp2436
g68
(g84
g70
NtRp2437
(dp2438
g73
(dp2439
sg82
g2433
sg75
(lp2440
g68
(g89
g70
NtRp2441
(dp2442
g73
(dp2443
g93
g94
ssg82
g2437
sg75
(lp2444
S'environ'
p2445
asbag68
(g89
g70
NtRp2446
(dp2447
g73
(dp2448
g100
g101
ssg82
g2437
sg75
(lp2449
S':'
asbag68
(g89
g70
NtRp2450
(dp2451
g73
(dp2452
sg82
g2437
sg75
(lp2453
g68
(g69
g70
NtRp2454
(dp2455
g73
(dp2456
g81
I4
ssg82
g2450
sg75
(lp2457
g68
(g77
g70
NtRp2458
(dp2459
g73
(dp2460
g81
I3
ssg82
Nsg75
(lp2461
g68
(g84
g70
NtRp2462
(dp2463
g73
(dp2464
sg82
g2458
sg75
(lp2465
g68
(g89
g70
NtRp2466
(dp2467
g73
(dp2468
g93
g94
ssg82
g2462
sg75
(lp2469
S'HTTP_ACCEPT'
p2470
asbag68
(g89
g70
NtRp2471
(dp2472
g73
(dp2473
g100
g101
ssg82
g2462
sg75
(lp2474
S':'
asbag68
(g89
g70
NtRp2475
(dp2476
g73
(dp2477
sg82
g2462
sg75
(lp2478
g68
(g69
g70
NtRp2479
(dp2480
g73
(dp2481
g81
I3
ssg82
g2475
sg75
(lp2482
g1014
asbasbasbag68
(g84
g70
NtRp2483
(dp2484
g73
(dp2485
sg82
g2458
sg75
(lp2486
g68
(g89
g70
NtRp2487
(dp2488
g73
(dp2489
g93
g94
ssg82
g2483
sg75
(lp2490
S'HTTP_ACCEPT_CHARSET'
p2491
asbag68
(g89
g70
NtRp2492
(dp2493
g73
(dp2494
g100
g101
ssg82
g2483
sg75
(lp2495
S':'
asbag68
(g89
g70
NtRp2496
(dp2497
g73
(dp2498
sg82
g2483
sg75
(lp2499
g68
(g69
g70
NtRp2500
(dp2501
g73
(dp2502
g81
I3
ssg82
g2496
sg75
(lp2503
g1036
asbasbasbag68
(g84
g70
NtRp2504
(dp2505
g73
(dp2506
sg82
g2458
sg75
(lp2507
g68
(g89
g70
NtRp2508
(dp2509
g73
(dp2510
g93
g94
ssg82
g2504
sg75
(lp2511
S'HTTP_ACCEPT_ENCODING'
p2512
asbag68
(g89
g70
NtRp2513
(dp2514
g73
(dp2515
g100
g101
ssg82
g2504
sg75
(lp2516
S':'
asbag68
(g89
g70
NtRp2517
(dp2518
g73
(dp2519
sg82
g2504
sg75
(lp2520
g68
(g69
g70
NtRp2521
(dp2522
g73
(dp2523
g81
I3
ssg82
g2517
sg75
(lp2524
g1058
asbasbasbag68
(g84
g70
NtRp2525
(dp2526
g73
(dp2527
sg82
g2458
sg75
(lp2528
g68
(g89
g70
NtRp2529
(dp2530
g73
(dp2531
g93
g94
ssg82
g2525
sg75
(lp2532
S'HTTP_ACCEPT_LANGUAGE'
p2533
asbag68
(g89
g70
NtRp2534
(dp2535
g73
(dp2536
g100
g101
ssg82
g2525
sg75
(lp2537
S':'
asbag68
(g89
g70
NtRp2538
(dp2539
g73
(dp2540
sg82
g2525
sg75
(lp2541
g68
(g69
g70
NtRp2542
(dp2543
g73
(dp2544
g81
I3
ssg82
g2538
sg75
(lp2545
g1080
asbasbasbag68
(g84
g70
NtRp2546
(dp2547
g73
(dp2548
sg82
g2458
sg75
(lp2549
g68
(g89
g70
NtRp2550
(dp2551
g73
(dp2552
g93
g94
ssg82
g2546
sg75
(lp2553
S'HTTP_CONNECTION'
p2554
asbag68
(g89
g70
NtRp2555
(dp2556
g73
(dp2557
g100
g101
ssg82
g2546
sg75
(lp2558
S':'
asbag68
(g89
g70
NtRp2559
(dp2560
g73
(dp2561
sg82
g2546
sg75
(lp2562
g68
(g69
g70
NtRp2563
(dp2564
g73
(dp2565
g81
I3
ssg82
g2559
sg75
(lp2566
g1102
asbasbasbag68
(g84
g70
NtRp2567
(dp2568
g73
(dp2569
sg82
g2458
sg75
(lp2570
g68
(g89
g70
NtRp2571
(dp2572
g73
(dp2573
g93
g94
ssg82
g2567
sg75
(lp2574
S'HTTP_COOKIE'
p2575
asbag68
(g89
g70
NtRp2576
(dp2577
g73
(dp2578
g100
g101
ssg82
g2567
sg75
(lp2579
S':'
asbag68
(g89
g70
NtRp2580
(dp2581
g73
(dp2582
sg82
g2567
sg75
(lp2583
g68
(g69
g70
NtRp2584
(dp2585
g73
(dp2586
g81
I3
ssg82
g2580
sg75
(lp2587
g1124
asbasbasbag68
(g84
g70
NtRp2588
(dp2589
g73
(dp2590
sg82
g2458
sg75
(lp2591
g68
(g89
g70
NtRp2592
(dp2593
g73
(dp2594
g93
g94
ssg82
g2588
sg75
(lp2595
S'HTTP_HOST'
p2596
asbag68
(g89
g70
NtRp2597
(dp2598
g73
(dp2599
g100
g101
ssg82
g2588
sg75
(lp2600
S':'
asbag68
(g89
g70
NtRp2601
(dp2602
g73
(dp2603
sg82
g2588
sg75
(lp2604
g68
(g69
g70
NtRp2605
(dp2606
g73
(dp2607
g81
I3
ssg82
g2601
sg75
(lp2608
g1146
asbasbasbag68
(g84
g70
NtRp2609
(dp2610
g73
(dp2611
sg82
g2458
sg75
(lp2612
g68
(g89
g70
NtRp2613
(dp2614
g73
(dp2615
g93
g94
ssg82
g2609
sg75
(lp2616
S'HTTP_USER_AGENT'
p2617
asbag68
(g89
g70
NtRp2618
(dp2619
g73
(dp2620
g100
g101
ssg82
g2609
sg75
(lp2621
S':'
asbag68
(g89
g70
NtRp2622
(dp2623
g73
(dp2624
sg82
g2609
sg75
(lp2625
g68
(g69
g70
NtRp2626
(dp2627
g73
(dp2628
g81
I3
ssg82
g2622
sg75
(lp2629
g1168
asbasbasbag68
(g84
g70
NtRp2630
(dp2631
g73
(dp2632
sg82
g2458
sg75
(lp2633
g68
(g89
g70
NtRp2634
(dp2635
g73
(dp2636
g93
g94
ssg82
g2630
sg75
(lp2637
S'PATH_INFO'
p2638
asbag68
(g89
g70
NtRp2639
(dp2640
g73
(dp2641
g100
g101
ssg82
g2630
sg75
(lp2642
S':'
asbag68
(g89
g70
NtRp2643
(dp2644
g73
(dp2645
sg82
g2630
sg75
(lp2646
g68
(g69
g70
NtRp2647
(dp2648
g73
(dp2649
g81
I3
ssg82
g2643
sg75
(lp2650
g1232
asbasbasbag68
(g84
g70
NtRp2651
(dp2652
g73
(dp2653
sg82
g2458
sg75
(lp2654
g68
(g89
g70
NtRp2655
(dp2656
g73
(dp2657
g93
g94
ssg82
g2651
sg75
(lp2658
S'QUERY_STRING'
p2659
asbag68
(g89
g70
NtRp2660
(dp2661
g73
(dp2662
g100
g101
ssg82
g2651
sg75
(lp2663
S':'
asbag68
(g89
g70
NtRp2664
(dp2665
g73
(dp2666
sg82
g2651
sg75
(lp2667
g68
(g69
g70
NtRp2668
(dp2669
g73
(dp2670
g81
I3
ssg82
g2664
sg75
(lp2671
S''
asbasbasbag68
(g84
g70
NtRp2672
(dp2673
g73
(dp2674
sg82
g2458
sg75
(lp2675
g68
(g89
g70
NtRp2676
(dp2677
g73
(dp2678
g93
g94
ssg82
g2672
sg75
(lp2679
S'REMOTE_ADDR'
p2680
asbag68
(g89
g70
NtRp2681
(dp2682
g73
(dp2683
g100
g101
ssg82
g2672
sg75
(lp2684
S':'
asbag68
(g89
g70
NtRp2685
(dp2686
g73
(dp2687
sg82
g2672
sg75
(lp2688
g68
(g69
g70
NtRp2689
(dp2690
g73
(dp2691
g81
I3
ssg82
g2685
sg75
(lp2692
g201
asbasbasbag68
(g84
g70
NtRp2693
(dp2694
g73
(dp2695
sg82
g2458
sg75
(lp2696
g68
(g89
g70
NtRp2697
(dp2698
g73
(dp2699
g93
g94
ssg82
g2693
sg75
(lp2700
S'REMOTE_PORT'
p2701
asbag68
(g89
g70
NtRp2702
(dp2703
g73
(dp2704
g100
g101
ssg82
g2693
sg75
(lp2705
S':'
asbag68
(g89
g70
NtRp2706
(dp2707
g73
(dp2708
sg82
g2693
sg75
(lp2709
g68
(g69
g70
NtRp2710
(dp2711
g73
(dp2712
g81
I3
ssg82
g2706
sg75
(lp2713
g1296
asbasbasbag68
(g84
g70
NtRp2714
(dp2715
g73
(dp2716
sg82
g2458
sg75
(lp2717
g68
(g89
g70
NtRp2718
(dp2719
g73
(dp2720
g93
g94
ssg82
g2714
sg75
(lp2721
S'REQUEST_METHOD'
p2722
asbag68
(g89
g70
NtRp2723
(dp2724
g73
(dp2725
g100
g101
ssg82
g2714
sg75
(lp2726
S':'
asbag68
(g89
g70
NtRp2727
(dp2728
g73
(dp2729
sg82
g2714
sg75
(lp2730
g68
(g69
g70
NtRp2731
(dp2732
g73
(dp2733
g81
I3
ssg82
g2727
sg75
(lp2734
g1318
asbasbasbag68
(g84
g70
NtRp2735
(dp2736
g73
(dp2737
sg82
g2458
sg75
(lp2738
g68
(g89
g70
NtRp2739
(dp2740
g73
(dp2741
g93
g94
ssg82
g2735
sg75
(lp2742
S'REQUEST_URI'
p2743
asbag68
(g89
g70
NtRp2744
(dp2745
g73
(dp2746
g100
g101
ssg82
g2735
sg75
(lp2747
S':'
asbag68
(g89
g70
NtRp2748
(dp2749
g73
(dp2750
sg82
g2735
sg75
(lp2751
g68
(g69
g70
NtRp2752
(dp2753
g73
(dp2754
g81
I3
ssg82
g2748
sg75
(lp2755
g1232
asbasbasbag68
(g84
g70
NtRp2756
(dp2757
g73
(dp2758
sg82
g2458
sg75
(lp2759
g68
(g89
g70
NtRp2760
(dp2761
g73
(dp2762
g93
g94
ssg82
g2756
sg75
(lp2763
S'SCRIPT_NAME'
p2764
asbag68
(g89
g70
NtRp2765
(dp2766
g73
(dp2767
g100
g101
ssg82
g2756
sg75
(lp2768
S':'
asbag68
(g89
g70
NtRp2769
(dp2770
g73
(dp2771
sg82
g2756
sg75
(lp2772
g68
(g69
g70
NtRp2773
(dp2774
g73
(dp2775
g81
I3
ssg82
g2769
sg75
(lp2776
S''
asbasbasbag68
(g84
g70
NtRp2777
(dp2778
g73
(dp2779
sg82
g2458
sg75
(lp2780
g68
(g89
g70
NtRp2781
(dp2782
g73
(dp2783
g93
g94
ssg82
g2777
sg75
(lp2784
S'SERVER_NAME'
p2785
asbag68
(g89
g70
NtRp2786
(dp2787
g73
(dp2788
g100
g101
ssg82
g2777
sg75
(lp2789
S':'
asbag68
(g89
g70
NtRp2790
(dp2791
g73
(dp2792
sg82
g2777
sg75
(lp2793
g68
(g69
g70
NtRp2794
(dp2795
g73
(dp2796
g81
I3
ssg82
g2790
sg75
(lp2797
g1382
asbasbasbag68
(g84
g70
NtRp2798
(dp2799
g73
(dp2800
sg82
g2458
sg75
(lp2801
g68
(g89
g70
NtRp2802
(dp2803
g73
(dp2804
g93
g94
ssg82
g2798
sg75
(lp2805
S'SERVER_PORT'
p2806
asbag68
(g89
g70
NtRp2807
(dp2808
g73
(dp2809
g100
g101
ssg82
g2798
sg75
(lp2810
S':'
asbag68
(g89
g70
NtRp2811
(dp2812
g73
(dp2813
sg82
g2798
sg75
(lp2814
g68
(g69
g70
NtRp2815
(dp2816
g73
(dp2817
g81
I3
ssg82
g2811
sg75
(lp2818
g1404
asbasbasbag68
(g84
g70
NtRp2819
(dp2820
g73
(dp2821
sg82
g2458
sg75
(lp2822
g68
(g89
g70
NtRp2823
(dp2824
g73
(dp2825
g93
g94
ssg82
g2819
sg75
(lp2826
S'SERVER_PROTOCOL'
p2827
asbag68
(g89
g70
NtRp2828
(dp2829
g73
(dp2830
g100
g101
ssg82
g2819
sg75
(lp2831
S':'
asbag68
(g89
g70
NtRp2832
(dp2833
g73
(dp2834
sg82
g2819
sg75
(lp2835
g68
(g69
g70
NtRp2836
(dp2837
g73
(dp2838
g81
I3
ssg82
g2832
sg75
(lp2839
g1426
asbasbasbag68
(g84
g70
NtRp2840
(dp2841
g73
(dp2842
sg82
g2458
sg75
(lp2843
g68
(g89
g70
NtRp2844
(dp2845
g73
(dp2846
g93
g94
ssg82
g2840
sg75
(lp2847
S'SERVER_SOFTWARE'
p2848
asbag68
(g89
g70
NtRp2849
(dp2850
g73
(dp2851
g100
g101
ssg82
g2840
sg75
(lp2852
S':'
asbag68
(g89
g70
NtRp2853
(dp2854
g73
(dp2855
sg82
g2840
sg75
(lp2856
g68
(g69
g70
NtRp2857
(dp2858
g73
(dp2859
g81
I3
ssg82
g2853
sg75
(lp2860
g1448
asbasbasbag68
(g84
g70
NtRp2861
(dp2862
g73
(dp2863
sg82
g2458
sg75
(lp2864
g68
(g89
g70
NtRp2865
(dp2866
g73
(dp2867
g93
g94
ssg82
g2861
sg75
(lp2868
S'WEB2PY_ORIGINAL_URI'
p2869
asbag68
(g89
g70
NtRp2870
(dp2871
g73
(dp2872
g100
g101
ssg82
g2861
sg75
(lp2873
S':'
asbag68
(g89
g70
NtRp2874
(dp2875
g73
(dp2876
sg82
g2861
sg75
(lp2877
g68
(g69
g70
NtRp2878
(dp2879
g73
(dp2880
g81
I3
ssg82
g2874
sg75
(lp2881
g1232
asbasbasbag68
(g84
g70
NtRp2882
(dp2883
g73
(dp2884
sg82
g2458
sg75
(lp2885
g68
(g89
g70
NtRp2886
(dp2887
g73
(dp2888
g93
g94
ssg82
g2882
sg75
(lp2889
S'wsgi.errors'
p2890
asbag68
(g89
g70
NtRp2891
(dp2892
g73
(dp2893
g100
g101
ssg82
g2882
sg75
(lp2894
S':'
asbag68
(g89
g70
NtRp2895
(dp2896
g73
(dp2897
sg82
g2882
sg75
(lp2898
g68
(g69
g70
NtRp2899
(dp2900
g73
(dp2901
g81
I3
ssg82
g2895
sg75
(lp2902
S"<open file '<stderr>', mode 'w' at 0x0000000001D2E1E0>"
p2903
asbasbasbag68
(g84
g70
NtRp2904
(dp2905
g73
(dp2906
sg82
g2458
sg75
(lp2907
g68
(g89
g70
NtRp2908
(dp2909
g73
(dp2910
g93
g94
ssg82
g2904
sg75
(lp2911
S'wsgi.file_wrapper'
p2912
asbag68
(g89
g70
NtRp2913
(dp2914
g73
(dp2915
g100
g101
ssg82
g2904
sg75
(lp2916
S':'
asbag68
(g89
g70
NtRp2917
(dp2918
g73
(dp2919
sg82
g2904
sg75
(lp2920
g68
(g69
g70
NtRp2921
(dp2922
g73
(dp2923
g81
I3
ssg82
g2917
sg75
(lp2924
S'<class wsgiref.util.FileWrapper at 0x0000000003714DC8>'
p2925
asbasbasbag68
(g84
g70
NtRp2926
(dp2927
g73
(dp2928
sg82
g2458
sg75
(lp2929
g68
(g89
g70
NtRp2930
(dp2931
g73
(dp2932
g93
g94
ssg82
g2926
sg75
(lp2933
S'wsgi.input'
p2934
asbag68
(g89
g70
NtRp2935
(dp2936
g73
(dp2937
g100
g101
ssg82
g2926
sg75
(lp2938
S':'
asbag68
(g89
g70
NtRp2939
(dp2940
g73
(dp2941
sg82
g2926
sg75
(lp2942
g68
(g69
g70
NtRp2943
(dp2944
g73
(dp2945
g81
I3
ssg82
g2939
sg75
(lp2946
S'<cStringIO.StringO object at 0x00000000072AA8F0>'
p2947
asbasbasbag68
(g84
g70
NtRp2948
(dp2949
g73
(dp2950
sg82
g2458
sg75
(lp2951
g68
(g89
g70
NtRp2952
(dp2953
g73
(dp2954
g93
g94
ssg82
g2948
sg75
(lp2955
S'wsgi.multiprocess'
p2956
asbag68
(g89
g70
NtRp2957
(dp2958
g73
(dp2959
g100
g101
ssg82
g2948
sg75
(lp2960
S':'
asbag68
(g89
g70
NtRp2961
(dp2962
g73
(dp2963
sg82
g2948
sg75
(lp2964
g68
(g69
g70
NtRp2965
(dp2966
g73
(dp2967
g81
I3
ssg82
g2961
sg75
(lp2968
g111
asbasbasbag68
(g84
g70
NtRp2969
(dp2970
g73
(dp2971
sg82
g2458
sg75
(lp2972
g68
(g89
g70
NtRp2973
(dp2974
g73
(dp2975
g93
g94
ssg82
g2969
sg75
(lp2976
S'wsgi.multithread'
p2977
asbag68
(g89
g70
NtRp2978
(dp2979
g73
(dp2980
g100
g101
ssg82
g2969
sg75
(lp2981
S':'
asbag68
(g89
g70
NtRp2982
(dp2983
g73
(dp2984
sg82
g2969
sg75
(lp2985
g68
(g69
g70
NtRp2986
(dp2987
g73
(dp2988
g81
I3
ssg82
g2982
sg75
(lp2989
g1709
asbasbasbag68
(g84
g70
NtRp2990
(dp2991
g73
(dp2992
sg82
g2458
sg75
(lp2993
g68
(g89
g70
NtRp2994
(dp2995
g73
(dp2996
g93
g94
ssg82
g2990
sg75
(lp2997
S'wsgi.run_once'
p2998
asbag68
(g89
g70
NtRp2999
(dp3000
g73
(dp3001
g100
g101
ssg82
g2990
sg75
(lp3002
S':'
asbag68
(g89
g70
NtRp3003
(dp3004
g73
(dp3005
sg82
g2990
sg75
(lp3006
g68
(g69
g70
NtRp3007
(dp3008
g73
(dp3009
g81
I3
ssg82
g3003
sg75
(lp3010
g111
asbasbasbag68
(g84
g70
NtRp3011
(dp3012
g73
(dp3013
sg82
g2458
sg75
(lp3014
g68
(g89
g70
NtRp3015
(dp3016
g73
(dp3017
g93
g94
ssg82
g3011
sg75
(lp3018
S'wsgi.url_scheme'
p3019
asbag68
(g89
g70
NtRp3020
(dp3021
g73
(dp3022
g100
g101
ssg82
g3011
sg75
(lp3023
S':'
asbag68
(g89
g70
NtRp3024
(dp3025
g73
(dp3026
sg82
g3011
sg75
(lp3027
g68
(g69
g70
NtRp3028
(dp3029
g73
(dp3030
g81
I3
ssg82
g3024
sg75
(lp3031
g1752
asbasbasbag68
(g84
g70
NtRp3032
(dp3033
g73
(dp3034
sg82
g2458
sg75
(lp3035
g68
(g89
g70
NtRp3036
(dp3037
g73
(dp3038
g93
g94
ssg82
g3032
sg75
(lp3039
S'wsgi.version'
p3040
asbag68
(g89
g70
NtRp3041
(dp3042
g73
(dp3043
g100
g101
ssg82
g3032
sg75
(lp3044
S':'
asbag68
(g89
g70
NtRp3045
(dp3046
g73
(dp3047
sg82
g3032
sg75
(lp3048
g68
(g69
g70
NtRp3049
(dp3050
g73
(dp3051
g81
I3
ssg82
g3045
sg75
(lp3052
S'1'
asbasbasbasbasbasbasbasbasbasbasbasbasbsS'frames'
p3053
(lp3054
(dp3055
S'file'
p3056
S'C:\\webapps\\ben\\project\\web2py\\gluon\\restricted.py'
p3057
sS'dump'
p3058
(dp3059
S'code'
p3060
S'r"response.write(\'<!DOCTYPE html>\\r\\n<!-- pauliris...write(\'\\r\\n</body>\\r\\n</html>\\r\\n\', escape=False)"'
p3061
sS'layer'
p3062
S"r'C:\\webapps\\ben\\project\\web2py\\applications\\profile\\views\\default/index.html'"
p3063
sS'global compile2'
p3064
S'<function compile2>'
p3065
sS'ccode'
p3066
S'undefined'
p3067
ssS'lnum'
p3068
I203
sS'lines'
p3069
(dp3070
I198
S"    environment['__file__'] = layer"
p3071
sI199
S'    try:'
p3072
sI200
S'        if type(code) == types.CodeType:'
p3073
sI201
S'            ccode = code'
p3074
sI202
S'        else:'
p3075
sI203
S'            ccode = compile2(code,layer)'
p3076
sI204
S'        exec ccode in environment'
p3077
sI205
S'    except HTTP:'
p3078
sI206
S'        raise'
p3079
sI207
S'    except RestrictedError:'
p3080
ssS'call'
p3081
S'(code=r"response.write(\'<!DOCTYPE html>\\r\\n<!-- pauliris...write(\'\\r\\n</body>\\r\\n</html>\\r\\n\', escape=False)", environment={\'A\': <class \'gluon.html.A\'>, \'Auth\': <class \'gluon.tools.Auth\'>, \'B\': <class \'gluon.html.B\'>, \'BEAUTIFY\': <class \'gluon.html.BEAUTIFY\'>, \'BODY\': <class \'gluon.html.BODY\'>, \'BR\': <class \'gluon.html.BR\'>, \'BUTTON\': <class \'gluon.html.BUTTON\'>, \'CAT\': <class \'gluon.html.CAT\'>, \'CENTER\': <class \'gluon.html.CENTER\'>, \'CLEANUP\': <class \'gluon.validators.CLEANUP\'>, ...}, layer=r\'C:\\webapps\\ben\\project\\web2py\\applications\\profile\\views\\default/index.html\')'
p3082
sS'func'
p3083
S'restricted'
p3084
sa(dp3085
g3056
S'C:\\webapps\\ben\\project\\web2py\\gluon\\restricted.py'
p3086
sg3058
(dp3087
S'builtincompile'
p3088
S'<built-in function compile>'
p3089
sS'code'
p3090
S'r"response.write(\'<!DOCTYPE html>\\r\\n<!-- pauliris...write(\'\\r\\n</body>\\r\\n</html>\\r\\n\', escape=False)"'
p3091
sS'code.rstrip'
p3092
S'<built-in method rstrip of str object>'
p3093
sS').replace'
p3094
g3067
sS'layer'
p3095
S"r'C:\\webapps\\ben\\project\\web2py\\applications\\profile\\views\\default/index.html'"
p3096
ssg3068
I189
sg3069
(dp3097
I192
S'    """'
p3098
sI193
S'    runs code in environment and returns the output. if an exception occurs'
p3099
sI184
S''
sI185
S'def compile2(code,layer):'
p3100
sI186
S'    """'
p3101
sI187
S"    The +'\\n' is necessary else compile fails when code ends in a comment."
p3102
sI188
S'    """'
p3103
sI189
S"    return compile(code.rstrip().replace('\\r\\n','\\n')+'\\n', layer, 'exec')"
p3104
sI190
S''
sI191
S"def restricted(code, environment=None, layer='Unknown'):"
p3105
ssg3081
S'(code=r"response.write(\'<!DOCTYPE html>\\r\\n<!-- pauliris...write(\'\\r\\n</body>\\r\\n</html>\\r\\n\', escape=False)", layer=r\'C:\\webapps\\ben\\project\\web2py\\applications\\profile\\views\\default/index.html\')'
p3106
sg3083
S'compile2'
p3107
sasS'pyver'
p3108
S'Python 2.7.2: C:\\Python27\\python.exe'
p3109
sS'session'
p3110
g68
(g69
g70
NtRp3111
(dp3112
g73
(dp3113
sg75
(lp3114
g68
(g77
g70
NtRp3115
(dp3116
g73
(dp3117
g81
I5
ssg82
Nsg75
(lp3118
sbasbsS'etype'
p3119
S"<type 'exceptions.SyntaxError'>"
p3120
sS'date'
p3121
S'Wed May 16 11:25:23 2012'
p3122
sS'response'
p3123
g68
(g69
g70
NtRp3124
(dp3125
g73
(dp3126
sg75
(lp3127
g68
(g77
g70
NtRp3128
(dp3129
g73
(dp3130
g81
I5
ssg82
Nsg75
(lp3131
g68
(g84
g70
NtRp3132
(dp3133
g73
(dp3134
sg82
g3128
sg75
(lp3135
g68
(g89
g70
NtRp3136
(dp3137
g73
(dp3138
g93
g94
ssg82
g3132
sg75
(lp3139
g166
asbag68
(g89
g70
NtRp3140
(dp3141
g73
(dp3142
g100
g101
ssg82
g3132
sg75
(lp3143
S':'
asbag68
(g89
g70
NtRp3144
(dp3145
g73
(dp3146
sg82
g3132
sg75
(lp3147
g68
(g69
g70
NtRp3148
(dp3149
g73
(dp3150
g81
I5
ssg82
g3144
sg75
(lp3151
S'<cStringIO.StringO object at 0x0000000008BEEBC8>'
p3152
asbasbasbag68
(g84
g70
NtRp3153
(dp3154
g73
(dp3155
sg82
g3128
sg75
(lp3156
g68
(g89
g70
NtRp3157
(dp3158
g73
(dp3159
g93
g94
ssg82
g3153
sg75
(lp3160
g232
asbag68
(g89
g70
NtRp3161
(dp3162
g73
(dp3163
g100
g101
ssg82
g3153
sg75
(lp3164
S':'
asbag68
(g89
g70
NtRp3165
(dp3166
g73
(dp3167
sg82
g3153
sg75
(lp3168
g68
(g69
g70
NtRp3169
(dp3170
g73
(dp3171
g81
I5
ssg82
g3165
sg75
(lp3172
g68
(g77
g70
NtRp3173
(dp3174
g73
(dp3175
g81
I4
ssg82
Nsg75
(lp3176
g68
(g84
g70
NtRp3177
(dp3178
g73
(dp3179
sg82
g3173
sg75
(lp3180
g68
(g89
g70
NtRp3181
(dp3182
g73
(dp3183
g93
g94
ssg82
g3177
sg75
(lp3184
S'session_id_profile'
p3185
asbag68
(g89
g70
NtRp3186
(dp3187
g73
(dp3188
g100
g101
ssg82
g3177
sg75
(lp3189
S':'
asbag68
(g89
g70
NtRp3190
(dp3191
g73
(dp3192
sg82
g3177
sg75
(lp3193
g68
(g69
g70
NtRp3194
(dp3195
g73
(dp3196
g81
I4
ssg82
g3190
sg75
(lp3197
g68
(g77
g70
NtRp3198
(dp3199
g73
(dp3200
g81
I3
ssg82
Nsg75
(lp3201
g68
(g84
g70
NtRp3202
(dp3203
g73
(dp3204
sg82
g3198
sg75
(lp3205
g68
(g89
g70
NtRp3206
(dp3207
g73
(dp3208
g93
g94
ssg82
g3202
sg75
(lp3209
g282
asbag68
(g89
g70
NtRp3210
(dp3211
g73
(dp3212
g100
g101
ssg82
g3202
sg75
(lp3213
S':'
asbag68
(g89
g70
NtRp3214
(dp3215
g73
(dp3216
sg82
g3202
sg75
(lp3217
g68
(g69
g70
NtRp3218
(dp3219
g73
(dp3220
g81
I3
ssg82
g3214
sg75
(lp3221
S''
asbasbasbag68
(g84
g70
NtRp3222
(dp3223
g73
(dp3224
sg82
g3198
sg75
(lp3225
g68
(g89
g70
NtRp3226
(dp3227
g73
(dp3228
g93
g94
ssg82
g3222
sg75
(lp3229
g303
asbag68
(g89
g70
NtRp3230
(dp3231
g73
(dp3232
g100
g101
ssg82
g3222
sg75
(lp3233
S':'
asbag68
(g89
g70
NtRp3234
(dp3235
g73
(dp3236
sg82
g3222
sg75
(lp3237
g68
(g69
g70
NtRp3238
(dp3239
g73
(dp3240
g81
I3
ssg82
g3234
sg75
(lp3241
S''
asbasbasbag68
(g84
g70
NtRp3242
(dp3243
g73
(dp3244
sg82
g3198
sg75
(lp3245
g68
(g89
g70
NtRp3246
(dp3247
g73
(dp3248
g93
g94
ssg82
g3242
sg75
(lp3249
g324
asbag68
(g89
g70
NtRp3250
(dp3251
g73
(dp3252
g100
g101
ssg82
g3242
sg75
(lp3253
S':'
asbag68
(g89
g70
NtRp3254
(dp3255
g73
(dp3256
sg82
g3242
sg75
(lp3257
g68
(g69
g70
NtRp3258
(dp3259
g73
(dp3260
g81
I3
ssg82
g3254
sg75
(lp3261
S''
asbasbasbag68
(g84
g70
NtRp3262
(dp3263
g73
(dp3264
sg82
g3198
sg75
(lp3265
g68
(g89
g70
NtRp3266
(dp3267
g73
(dp3268
g93
g94
ssg82
g3262
sg75
(lp3269
g345
asbag68
(g89
g70
NtRp3270
(dp3271
g73
(dp3272
g100
g101
ssg82
g3262
sg75
(lp3273
S':'
asbag68
(g89
g70
NtRp3274
(dp3275
g73
(dp3276
sg82
g3262
sg75
(lp3277
g68
(g69
g70
NtRp3278
(dp3279
g73
(dp3280
g81
I3
ssg82
g3274
sg75
(lp3281
S''
asbasbasbag68
(g84
g70
NtRp3282
(dp3283
g73
(dp3284
sg82
g3198
sg75
(lp3285
g68
(g89
g70
NtRp3286
(dp3287
g73
(dp3288
g93
g94
ssg82
g3282
sg75
(lp3289
g366
asbag68
(g89
g70
NtRp3290
(dp3291
g73
(dp3292
g100
g101
ssg82
g3282
sg75
(lp3293
S':'
asbag68
(g89
g70
NtRp3294
(dp3295
g73
(dp3296
sg82
g3282
sg75
(lp3297
g68
(g69
g70
NtRp3298
(dp3299
g73
(dp3300
g81
I3
ssg82
g3294
sg75
(lp3301
S''
asbasbasbag68
(g84
g70
NtRp3302
(dp3303
g73
(dp3304
sg82
g3198
sg75
(lp3305
g68
(g89
g70
NtRp3306
(dp3307
g73
(dp3308
g93
g94
ssg82
g3302
sg75
(lp3309
g387
asbag68
(g89
g70
NtRp3310
(dp3311
g73
(dp3312
g100
g101
ssg82
g3302
sg75
(lp3313
S':'
asbag68
(g89
g70
NtRp3314
(dp3315
g73
(dp3316
sg82
g3302
sg75
(lp3317
g68
(g69
g70
NtRp3318
(dp3319
g73
(dp3320
g81
I3
ssg82
g3314
sg75
(lp3321
S'/'
asbasbasbag68
(g84
g70
NtRp3322
(dp3323
g73
(dp3324
sg82
g3198
sg75
(lp3325
g68
(g89
g70
NtRp3326
(dp3327
g73
(dp3328
g93
g94
ssg82
g3322
sg75
(lp3329
g408
asbag68
(g89
g70
NtRp3330
(dp3331
g73
(dp3332
g100
g101
ssg82
g3322
sg75
(lp3333
S':'
asbag68
(g89
g70
NtRp3334
(dp3335
g73
(dp3336
sg82
g3322
sg75
(lp3337
g68
(g69
g70
NtRp3338
(dp3339
g73
(dp3340
g81
I3
ssg82
g3334
sg75
(lp3341
S''
asbasbasbag68
(g84
g70
NtRp3342
(dp3343
g73
(dp3344
sg82
g3198
sg75
(lp3345
g68
(g89
g70
NtRp3346
(dp3347
g73
(dp3348
g93
g94
ssg82
g3342
sg75
(lp3349
g429
asbag68
(g89
g70
NtRp3350
(dp3351
g73
(dp3352
g100
g101
ssg82
g3342
sg75
(lp3353
S':'
asbag68
(g89
g70
NtRp3354
(dp3355
g73
(dp3356
sg82
g3342
sg75
(lp3357
g68
(g69
g70
NtRp3358
(dp3359
g73
(dp3360
g81
I3
ssg82
g3354
sg75
(lp3361
S''
asbasbasbasbasbasbasbasbasbasbasbag68
(g84
g70
NtRp3362
(dp3363
g73
(dp3364
sg82
g3128
sg75
(lp3365
g68
(g89
g70
NtRp3366
(dp3367
g73
(dp3368
g93
g94
ssg82
g3362
sg75
(lp3369
S'files'
p3370
asbag68
(g89
g70
NtRp3371
(dp3372
g73
(dp3373
g100
g101
ssg82
g3362
sg75
(lp3374
S':'
asbag68
(g89
g70
NtRp3375
(dp3376
g73
(dp3377
sg82
g3362
sg75
(lp3378
g68
(g69
g70
NtRp3379
(dp3380
g73
(dp3381
g81
I5
ssg82
g3375
sg75
(lp3382
g68
(g77
g70
NtRp3383
(dp3384
g73
(dp3385
g81
I4
ssg82
Nsg75
(lp3386
sbasbasbasbag68
(g84
g70
NtRp3387
(dp3388
g73
(dp3389
sg82
g3128
sg75
(lp3390
g68
(g89
g70
NtRp3391
(dp3392
g73
(dp3393
g93
g94
ssg82
g3387
sg75
(lp3394
S'flash'
p3395
asbag68
(g89
g70
NtRp3396
(dp3397
g73
(dp3398
g100
g101
ssg82
g3387
sg75
(lp3399
S':'
asbag68
(g89
g70
NtRp3400
(dp3401
g73
(dp3402
sg82
g3387
sg75
(lp3403
g68
(g69
g70
NtRp3404
(dp3405
g73
(dp3406
g81
I5
ssg82
g3400
sg75
(lp3407
S'Welcome to web2py!'
p3408
asbasbasbag68
(g84
g70
NtRp3409
(dp3410
g73
(dp3411
sg82
g3128
sg75
(lp3412
g68
(g89
g70
NtRp3413
(dp3414
g73
(dp3415
g93
g94
ssg82
g3409
sg75
(lp3416
S'generic_patterns'
p3417
asbag68
(g89
g70
NtRp3418
(dp3419
g73
(dp3420
g100
g101
ssg82
g3409
sg75
(lp3421
S':'
asbag68
(g89
g70
NtRp3422
(dp3423
g73
(dp3424
sg82
g3409
sg75
(lp3425
g68
(g69
g70
NtRp3426
(dp3427
g73
(dp3428
g81
I5
ssg82
g3422
sg75
(lp3429
g68
(g77
g70
NtRp3430
(dp3431
g73
(dp3432
g81
I4
ssg82
Nsg75
(lp3433
g68
(g84
g70
NtRp3434
(dp3435
g73
(dp3436
sg82
g3430
sg75
(lp3437
g68
(g89
g70
NtRp3438
(dp3439
g73
(dp3440
sg82
g3434
sg75
(lp3441
g68
(g69
g70
NtRp3442
(dp3443
g73
(dp3444
g81
I4
ssg82
g3438
sg75
(lp3445
S'*'
asbasbasbasbasbasbasbag68
(g84
g70
NtRp3446
(dp3447
g73
(dp3448
sg82
g3128
sg75
(lp3449
g68
(g89
g70
NtRp3450
(dp3451
g73
(dp3452
g93
g94
ssg82
g3446
sg75
(lp3453
S'headers'
p3454
asbag68
(g89
g70
NtRp3455
(dp3456
g73
(dp3457
g100
g101
ssg82
g3446
sg75
(lp3458
S':'
asbag68
(g89
g70
NtRp3459
(dp3460
g73
(dp3461
sg82
g3446
sg75
(lp3462
g68
(g69
g70
NtRp3463
(dp3464
g73
(dp3465
g81
I5
ssg82
g3459
sg75
(lp3466
g68
(g77
g70
NtRp3467
(dp3468
g73
(dp3469
g81
I4
ssg82
Nsg75
(lp3470
g68
(g84
g70
NtRp3471
(dp3472
g73
(dp3473
sg82
g3467
sg75
(lp3474
g68
(g89
g70
NtRp3475
(dp3476
g73
(dp3477
g93
g94
ssg82
g3471
sg75
(lp3478
S'Cache-Control'
p3479
asbag68
(g89
g70
NtRp3480
(dp3481
g73
(dp3482
g100
g101
ssg82
g3471
sg75
(lp3483
S':'
asbag68
(g89
g70
NtRp3484
(dp3485
g73
(dp3486
sg82
g3471
sg75
(lp3487
g68
(g69
g70
NtRp3488
(dp3489
g73
(dp3490
g81
I4
ssg82
g3484
sg75
(lp3491
S'no-store, no-cache, must-revalidate, post-check=0, pre-check=0'
p3492
asbasbasbag68
(g84
g70
NtRp3493
(dp3494
g73
(dp3495
sg82
g3467
sg75
(lp3496
g68
(g89
g70
NtRp3497
(dp3498
g73
(dp3499
g93
g94
ssg82
g3493
sg75
(lp3500
S'Content-Type'
p3501
asbag68
(g89
g70
NtRp3502
(dp3503
g73
(dp3504
g100
g101
ssg82
g3493
sg75
(lp3505
S':'
asbag68
(g89
g70
NtRp3506
(dp3507
g73
(dp3508
sg82
g3493
sg75
(lp3509
g68
(g69
g70
NtRp3510
(dp3511
g73
(dp3512
g81
I4
ssg82
g3506
sg75
(lp3513
S'text/html; charset=utf-8'
p3514
asbasbasbag68
(g84
g70
NtRp3515
(dp3516
g73
(dp3517
sg82
g3467
sg75
(lp3518
g68
(g89
g70
NtRp3519
(dp3520
g73
(dp3521
g93
g94
ssg82
g3515
sg75
(lp3522
S'Expires'
p3523
asbag68
(g89
g70
NtRp3524
(dp3525
g73
(dp3526
g100
g101
ssg82
g3515
sg75
(lp3527
S':'
asbag68
(g89
g70
NtRp3528
(dp3529
g73
(dp3530
sg82
g3515
sg75
(lp3531
g68
(g69
g70
NtRp3532
(dp3533
g73
(dp3534
g81
I4
ssg82
g3528
sg75
(lp3535
S'Wed, 16 May 2012 01:25:23 GMT'
p3536
asbasbasbag68
(g84
g70
NtRp3537
(dp3538
g73
(dp3539
sg82
g3467
sg75
(lp3540
g68
(g89
g70
NtRp3541
(dp3542
g73
(dp3543
g93
g94
ssg82
g3537
sg75
(lp3544
S'Pragma'
p3545
asbag68
(g89
g70
NtRp3546
(dp3547
g73
(dp3548
g100
g101
ssg82
g3537
sg75
(lp3549
S':'
asbag68
(g89
g70
NtRp3550
(dp3551
g73
(dp3552
sg82
g3537
sg75
(lp3553
g68
(g69
g70
NtRp3554
(dp3555
g73
(dp3556
g81
I4
ssg82
g3550
sg75
(lp3557
S'no-cache'
p3558
asbasbasbag68
(g84
g70
NtRp3559
(dp3560
g73
(dp3561
sg82
g3467
sg75
(lp3562
g68
(g89
g70
NtRp3563
(dp3564
g73
(dp3565
g93
g94
ssg82
g3559
sg75
(lp3566
S'X-Powered-By'
p3567
asbag68
(g89
g70
NtRp3568
(dp3569
g73
(dp3570
g100
g101
ssg82
g3559
sg75
(lp3571
S':'
asbag68
(g89
g70
NtRp3572
(dp3573
g73
(dp3574
sg82
g3559
sg75
(lp3575
g68
(g69
g70
NtRp3576
(dp3577
g73
(dp3578
g81
I4
ssg82
g3572
sg75
(lp3579
S'web2py'
p3580
asbasbasbasbasbasbasbag68
(g84
g70
NtRp3581
(dp3582
g73
(dp3583
sg82
g3128
sg75
(lp3584
g68
(g89
g70
NtRp3585
(dp3586
g73
(dp3587
g93
g94
ssg82
g3581
sg75
(lp3588
S'menu'
p3589
asbag68
(g89
g70
NtRp3590
(dp3591
g73
(dp3592
g100
g101
ssg82
g3581
sg75
(lp3593
S':'
asbag68
(g89
g70
NtRp3594
(dp3595
g73
(dp3596
sg82
g3581
sg75
(lp3597
g68
(g69
g70
NtRp3598
(dp3599
g73
(dp3600
g81
I5
ssg82
g3594
sg75
(lp3601
g68
(g77
g70
NtRp3602
(dp3603
g73
(dp3604
g81
I4
ssg82
Nsg75
(lp3605
g68
(g84
g70
NtRp3606
(dp3607
g73
(dp3608
sg82
g3602
sg75
(lp3609
g68
(g89
g70
NtRp3610
(dp3611
g73
(dp3612
sg82
g3606
sg75
(lp3613
g68
(g69
g70
NtRp3614
(dp3615
g73
(dp3616
g81
I4
ssg82
g3610
sg75
(lp3617
g68
(g77
g70
NtRp3618
(dp3619
g73
(dp3620
g81
I3
ssg82
Nsg75
(lp3621
g68
(g84
g70
NtRp3622
(dp3623
g73
(dp3624
sg82
g3618
sg75
(lp3625
g68
(g89
g70
NtRp3626
(dp3627
g73
(dp3628
sg82
g3622
sg75
(lp3629
g68
(g69
g70
NtRp3630
(dp3631
g73
(dp3632
g81
I3
ssg82
g3626
sg75
(lp3633
cgluon.languages
lazyT_unpickle
p3634
(S't\x04\x00\x00\x00Home'
tRp3635
asbasbasbag68
(g84
g70
NtRp3636
(dp3637
g73
(dp3638
sg82
g3618
sg75
(lp3639
g68
(g89
g70
NtRp3640
(dp3641
g73
(dp3642
sg82
g3636
sg75
(lp3643
g68
(g69
g70
NtRp3644
(dp3645
g73
(dp3646
g81
I3
ssg82
g3640
sg75
(lp3647
g111
asbasbasbag68
(g84
g70
NtRp3648
(dp3649
g73
(dp3650
sg82
g3618
sg75
(lp3651
g68
(g89
g70
NtRp3652
(dp3653
g73
(dp3654
sg82
g3648
sg75
(lp3655
g68
(g69
g70
NtRp3656
(dp3657
g73
(dp3658
g81
I3
ssg82
g3652
sg75
(lp3659
S'/profile/default/index'
p3660
asbasbasbag68
(g84
g70
NtRp3661
(dp3662
g73
(dp3663
sg82
g3618
sg75
(lp3664
g68
(g89
g70
NtRp3665
(dp3666
g73
(dp3667
sg82
g3661
sg75
(lp3668
g68
(g69
g70
NtRp3669
(dp3670
g73
(dp3671
g81
I3
ssg82
g3665
sg75
(lp3672
g68
(g77
g70
NtRp3673
(dp3674
g73
(dp3675
g81
I2
ssg82
Nsg75
(lp3676
sbasbasbasbasbasbasbasbag68
(g84
g70
NtRp3677
(dp3678
g73
(dp3679
sg82
g3602
sg75
(lp3680
g68
(g89
g70
NtRp3681
(dp3682
g73
(dp3683
sg82
g3677
sg75
(lp3684
g68
(g69
g70
NtRp3685
(dp3686
g73
(dp3687
g81
I4
ssg82
g3681
sg75
(lp3688
g68
(g77
g70
NtRp3689
(dp3690
g73
(dp3691
g81
I3
ssg82
Nsg75
(lp3692
g68
(g84
g70
NtRp3693
(dp3694
g73
(dp3695
sg82
g3689
sg75
(lp3696
g68
(g89
g70
NtRp3697
(dp3698
g73
(dp3699
sg82
g3693
sg75
(lp3700
g68
(g69
g70
NtRp3701
(dp3702
g73
(dp3703
g81
I3
ssg82
g3697
sg75
(lp3704
g68
(cgluon.html
SPAN
p3705
g70
NtRp3706
(dp3707
g73
(dp3708
g93
S'color:yellow'
p3709
ssg82
Nsg75
(lp3710
g3580
asbasbasbasbag68
(g84
g70
NtRp3711
(dp3712
g73
(dp3713
sg82
g3689
sg75
(lp3714
g68
(g89
g70
NtRp3715
(dp3716
g73
(dp3717
sg82
g3711
sg75
(lp3718
g68
(g69
g70
NtRp3719
(dp3720
g73
(dp3721
g81
I3
ssg82
g3715
sg75
(lp3722
g111
asbasbasbag68
(g84
g70
NtRp3723
(dp3724
g73
(dp3725
sg82
g3689
sg75
(lp3726
g68
(g89
g70
NtRp3727
(dp3728
g73
(dp3729
sg82
g3723
sg75
(lp3730
g68
(g69
g70
NtRp3731
(dp3732
g73
(dp3733
g81
I3
ssg82
g3727
sg75
(lp3734
S'None'
p3735
asbasbasbag68
(g84
g70
NtRp3736
(dp3737
g73
(dp3738
sg82
g3689
sg75
(lp3739
g68
(g89
g70
NtRp3740
(dp3741
g73
(dp3742
sg82
g3736
sg75
(lp3743
g68
(g69
g70
NtRp3744
(dp3745
g73
(dp3746
g81
I3
ssg82
g3740
sg75
(lp3747
g68
(g77
g70
NtRp3748
(dp3749
g73
(dp3750
g81
I2
ssg82
Nsg75
(lp3751
g68
(g84
g70
NtRp3752
(dp3753
g73
(dp3754
sg82
g3748
sg75
(lp3755
g68
(g89
g70
NtRp3756
(dp3757
g73
(dp3758
sg82
g3752
sg75
(lp3759
g68
(g69
g70
NtRp3760
(dp3761
g73
(dp3762
g81
I2
ssg82
g3756
sg75
(lp3763
g68
(g77
g70
NtRp3764
(dp3765
g73
(dp3766
g81
I1
ssg82
Nsg75
(lp3767
g68
(g84
g70
NtRp3768
(dp3769
g73
(dp3770
sg82
g3764
sg75
(lp3771
g68
(g89
g70
NtRp3772
(dp3773
g73
(dp3774
sg82
g3768
sg75
(lp3775
g68
(g69
g70
NtRp3776
(dp3777
g73
(dp3778
g81
I1
ssg82
g3772
sg75
(lp3779
g3634
(S's\x08\x00\x00\x00My Sites'
tRp3780
asbasbasbag68
(g84
g70
NtRp3781
(dp3782
g73
(dp3783
sg82
g3764
sg75
(lp3784
g68
(g89
g70
NtRp3785
(dp3786
g73
(dp3787
sg82
g3781
sg75
(lp3788
g68
(g69
g70
NtRp3789
(dp3790
g73
(dp3791
g81
I1
ssg82
g3785
sg75
(lp3792
I00
asbasbasbag68
(g84
g70
NtRp3793
(dp3794
g73
(dp3795
sg82
g3764
sg75
(lp3796
g68
(g89
g70
NtRp3797
(dp3798
g73
(dp3799
sg82
g3793
sg75
(lp3800
g68
(g69
g70
NtRp3801
(dp3802
g73
(dp3803
g81
I1
ssg82
g3797
sg75
(lp3804
S'/admin/default/site'
p3805
asbasbasbasbasbasbasbag68
(g84
g70
NtRp3806
(dp3807
g73
(dp3808
sg82
g3748
sg75
(lp3809
g68
(g89
g70
NtRp3810
(dp3811
g73
(dp3812
sg82
g3806
sg75
(lp3813
g68
(g69
g70
NtRp3814
(dp3815
g73
(dp3816
g81
I2
ssg82
g3810
sg75
(lp3817
g68
(g77
g70
NtRp3818
(dp3819
g73
(dp3820
g81
I1
ssg82
Nsg75
(lp3821
g68
(g84
g70
NtRp3822
(dp3823
g73
(dp3824
sg82
g3818
sg75
(lp3825
g68
(g89
g70
NtRp3826
(dp3827
g73
(dp3828
sg82
g3822
sg75
(lp3829
g68
(g69
g70
NtRp3830
(dp3831
g73
(dp3832
g81
I1
ssg82
g3826
sg75
(lp3833
g3634
(S's\x08\x00\x00\x00This App'
tRp3834
asbasbasbag68
(g84
g70
NtRp3835
(dp3836
g73
(dp3837
sg82
g3818
sg75
(lp3838
g68
(g89
g70
NtRp3839
(dp3840
g73
(dp3841
sg82
g3835
sg75
(lp3842
g68
(g69
g70
NtRp3843
(dp3844
g73
(dp3845
g81
I1
ssg82
g3839
sg75
(lp3846
I00
asbasbasbag68
(g84
g70
NtRp3847
(dp3848
g73
(dp3849
sg82
g3818
sg75
(lp3850
g68
(g89
g70
NtRp3851
(dp3852
g73
(dp3853
sg82
g3847
sg75
(lp3854
g68
(g69
g70
NtRp3855
(dp3856
g73
(dp3857
g81
I1
ssg82
g3851
sg75
(lp3858
S'/admin/default/design/profile'
p3859
asbasbasbag68
(g84
g70
NtRp3860
(dp3861
g73
(dp3862
sg82
g3818
sg75
(lp3863
g68
(g89
g70
NtRp3864
(dp3865
g73
(dp3866
sg82
g3860
sg75
(lp3867
g68
(g69
g70
NtRp3868
(dp3869
g73
(dp3870
g81
I1
ssg82
g3864
sg75
(lp3871
(lp3872
(g3634
(S't\n\x00\x00\x00Controller'
tRp3873
I00
S'/admin/default/edit/profile/controllers/default.py'
tp3874
a(g3634
(S't\x04\x00\x00\x00View'
tRp3875
I00
S'/admin/default/edit/profile/views/default/index.html'
tp3876
a(g3634
(S't\x06\x00\x00\x00Layout'
tRp3877
I00
S'/admin/default/edit/profile/views/layout.html'
tp3878
a(g3634
(S't\n\x00\x00\x00Stylesheet'
tRp3879
I00
S'/admin/default/edit/profile/static/css/web2py.css'
tp3880
a(g3634
(S's\x08\x00\x00\x00DB Model'
tRp3881
I00
S'/admin/default/edit/profile/models/db.py'
tp3882
a(g3634
(S's\n\x00\x00\x00Menu Model'
tRp3883
I00
S'/admin/default/edit/profile/models/menu.py'
tp3884
a(g3634
(S't\x08\x00\x00\x00Database'
tRp3885
I00
S'/profile/appadmin/index'
tp3886
a(g3634
(S't\x06\x00\x00\x00Errors'
tRp3887
I00
S'/admin/default/errors/profile'
tp3888
a(g3634
(S't\x05\x00\x00\x00About'
tRp3889
I00
S'/admin/default/about/profile'
tp3890
aasbasbasbasbasbasbasbag68
(g84
g70
NtRp3891
(dp3892
g73
(dp3893
sg82
g3748
sg75
(lp3894
g68
(g89
g70
NtRp3895
(dp3896
g73
(dp3897
sg82
g3891
sg75
(lp3898
g68
(g69
g70
NtRp3899
(dp3900
g73
(dp3901
g81
I2
ssg82
g3895
sg75
(lp3902
g68
(g77
g70
NtRp3903
(dp3904
g73
(dp3905
g81
I1
ssg82
Nsg75
(lp3906
g68
(g84
g70
NtRp3907
(dp3908
g73
(dp3909
sg82
g3903
sg75
(lp3910
g68
(g89
g70
NtRp3911
(dp3912
g73
(dp3913
sg82
g3907
sg75
(lp3914
g68
(g69
g70
NtRp3915
(dp3916
g73
(dp3917
g81
I1
ssg82
g3911
sg75
(lp3918
S'web2py.com'
p3919
asbasbasbag68
(g84
g70
NtRp3920
(dp3921
g73
(dp3922
sg82
g3903
sg75
(lp3923
g68
(g89
g70
NtRp3924
(dp3925
g73
(dp3926
sg82
g3920
sg75
(lp3927
g68
(g69
g70
NtRp3928
(dp3929
g73
(dp3930
g81
I1
ssg82
g3924
sg75
(lp3931
I00
asbasbasbag68
(g84
g70
NtRp3932
(dp3933
g73
(dp3934
sg82
g3903
sg75
(lp3935
g68
(g89
g70
NtRp3936
(dp3937
g73
(dp3938
sg82
g3932
sg75
(lp3939
g68
(g69
g70
NtRp3940
(dp3941
g73
(dp3942
g81
I1
ssg82
g3936
sg75
(lp3943
S'http://www.web2py.com'
p3944
asbasbasbag68
(g84
g70
NtRp3945
(dp3946
g73
(dp3947
sg82
g3903
sg75
(lp3948
g68
(g89
g70
NtRp3949
(dp3950
g73
(dp3951
sg82
g3945
sg75
(lp3952
g68
(g69
g70
NtRp3953
(dp3954
g73
(dp3955
g81
I1
ssg82
g3949
sg75
(lp3956
(lp3957
(g3634
(S't\x08\x00\x00\x00Download'
tRp3958
I00
S'http://www.web2py.com/examples/default/download'
p3959
tp3960
a(g3634
(S't\x07\x00\x00\x00Support'
tRp3961
I00
S'http://www.web2py.com/examples/default/support'
p3962
tp3963
a(g3634
(S't\x04\x00\x00\x00Demo'
tRp3964
I00
S'http://web2py.com/demo_admin'
p3965
tp3966
a(g3634
(S's\x0e\x00\x00\x00Quick Examples'
tRp3967
I00
S'http://web2py.com/examples/default/examples'
p3968
tp3969
a(g3634
(S't\x03\x00\x00\x00FAQ'
tRp3970
I00
S'http://web2py.com/AlterEgo'
p3971
tp3972
a(g3634
(S't\x06\x00\x00\x00Videos'
tRp3973
I00
S'http://www.web2py.com/examples/default/videos/'
p3974
tp3975
a(g3634
(S's\x11\x00\x00\x00Free Applications'
tRp3976
I00
S'http://web2py.com/appliances'
p3977
tp3978
a(g3634
(S't\x07\x00\x00\x00Plugins'
tRp3979
I00
S'http://web2py.com/plugins'
p3980
tp3981
a(g3634
(S't\x07\x00\x00\x00Layouts'
tRp3982
I00
S'http://web2py.com/layouts'
p3983
tp3984
a(g3634
(S't\x07\x00\x00\x00Recipes'
tRp3985
I00
S'http://web2pyslices.com/'
p3986
tp3987
a(g3634
(S't\x08\x00\x00\x00Semantic'
tRp3988
I00
S'http://web2py.com/semantic'
p3989
tp3990
aasbasbasbasbasbasbasbag68
(g84
g70
NtRp3991
(dp3992
g73
(dp3993
sg82
g3748
sg75
(lp3994
g68
(g89
g70
NtRp3995
(dp3996
g73
(dp3997
sg82
g3991
sg75
(lp3998
g68
(g69
g70
NtRp3999
(dp4000
g73
(dp4001
g81
I2
ssg82
g3995
sg75
(lp4002
g68
(g77
g70
NtRp4003
(dp4004
g73
(dp4005
g81
I1
ssg82
Nsg75
(lp4006
g68
(g84
g70
NtRp4007
(dp4008
g73
(dp4009
sg82
g4003
sg75
(lp4010
g68
(g89
g70
NtRp4011
(dp4012
g73
(dp4013
sg82
g4007
sg75
(lp4014
g68
(g69
g70
NtRp4015
(dp4016
g73
(dp4017
g81
I1
ssg82
g4011
sg75
(lp4018
g3634
(S't\r\x00\x00\x00Documentation'
tRp4019
asbasbasbag68
(g84
g70
NtRp4020
(dp4021
g73
(dp4022
sg82
g4003
sg75
(lp4023
g68
(g89
g70
NtRp4024
(dp4025
g73
(dp4026
sg82
g4020
sg75
(lp4027
g68
(g69
g70
NtRp4028
(dp4029
g73
(dp4030
g81
I1
ssg82
g4024
sg75
(lp4031
I00
asbasbasbag68
(g84
g70
NtRp4032
(dp4033
g73
(dp4034
sg82
g4003
sg75
(lp4035
g68
(g89
g70
NtRp4036
(dp4037
g73
(dp4038
sg82
g4032
sg75
(lp4039
g68
(g69
g70
NtRp4040
(dp4041
g73
(dp4042
g81
I1
ssg82
g4036
sg75
(lp4043
S'http://www.web2py.com/book'
p4044
asbasbasbag68
(g84
g70
NtRp4045
(dp4046
g73
(dp4047
sg82
g4003
sg75
(lp4048
g68
(g89
g70
NtRp4049
(dp4050
g73
(dp4051
sg82
g4045
sg75
(lp4052
g68
(g69
g70
NtRp4053
(dp4054
g73
(dp4055
g81
I1
ssg82
g4049
sg75
(lp4056
(lp4057
(g3634
(S't\x07\x00\x00\x00Preface'
tRp4058
I00
S'http://www.web2py.com/book/default/chapter/00'
p4059
tp4060
a(g3634
(S't\x0c\x00\x00\x00Introduction'
tRp4061
I00
S'http://www.web2py.com/book/default/chapter/01'
p4062
tp4063
a(g3634
(S't\x06\x00\x00\x00Python'
tRp4064
I00
S'http://www.web2py.com/book/default/chapter/02'
p4065
tp4066
a(g3634
(S't\x08\x00\x00\x00Overview'
tRp4067
I00
S'http://www.web2py.com/book/default/chapter/03'
p4068
tp4069
a(g3634
(S's\x08\x00\x00\x00The Core'
tRp4070
I00
S'http://www.web2py.com/book/default/chapter/04'
p4071
tp4072
a(g3634
(S's\t\x00\x00\x00The Views'
tRp4073
I00
S'http://www.web2py.com/book/default/chapter/05'
p4074
tp4075
a(g3634
(S't\x08\x00\x00\x00Database'
tRp4076
I00
S'http://www.web2py.com/book/default/chapter/06'
p4077
tp4078
a(g3634
(S's\x14\x00\x00\x00Forms and Validators'
tRp4079
I00
S'http://www.web2py.com/book/default/chapter/07'
p4080
tp4081
a(g3634
(S's\r\x00\x00\x00Email and SMS'
tRp4082
I00
S'http://www.web2py.com/book/default/chapter/08'
p4083
tp4084
a(g3634
(S's\x0e\x00\x00\x00Access Control'
tRp4085
I00
S'http://www.web2py.com/book/default/chapter/09'
p4086
tp4087
a(g3634
(S't\x08\x00\x00\x00Services'
tRp4088
I00
S'http://www.web2py.com/book/default/chapter/10'
p4089
tp4090
a(g3634
(S's\x0c\x00\x00\x00Ajax Recipes'
tRp4091
I00
S'http://www.web2py.com/book/default/chapter/11'
p4092
tp4093
a(g3634
(S's\x16\x00\x00\x00Components and Plugins'
tRp4094
I00
S'http://www.web2py.com/book/default/chapter/12'
p4095
tp4096
a(g3634
(S's\x12\x00\x00\x00Deployment Recipes'
tRp4097
I00
S'http://www.web2py.com/book/default/chapter/13'
p4098
tp4099
a(g3634
(S's\r\x00\x00\x00Other Recipes'
tRp4100
I00
S'http://www.web2py.com/book/default/chapter/14'
p4101
tp4102
a(g3634
(S's\r\x00\x00\x00Buy this book'
tRp4103
I00
S'http://stores.lulu.com/web2py'
p4104
tp4105
aasbasbasbasbasbasbasbag68
(g84
g70
NtRp4106
(dp4107
g73
(dp4108
sg82
g3748
sg75
(lp4109
g68
(g89
g70
NtRp4110
(dp4111
g73
(dp4112
sg82
g4106
sg75
(lp4113
g68
(g69
g70
NtRp4114
(dp4115
g73
(dp4116
g81
I2
ssg82
g4110
sg75
(lp4117
g68
(g77
g70
NtRp4118
(dp4119
g73
(dp4120
g81
I1
ssg82
Nsg75
(lp4121
g68
(g84
g70
NtRp4122
(dp4123
g73
(dp4124
sg82
g4118
sg75
(lp4125
g68
(g89
g70
NtRp4126
(dp4127
g73
(dp4128
sg82
g4122
sg75
(lp4129
g68
(g69
g70
NtRp4130
(dp4131
g73
(dp4132
g81
I1
ssg82
g4126
sg75
(lp4133
g3634
(S't\t\x00\x00\x00Community'
tRp4134
asbasbasbag68
(g84
g70
NtRp4135
(dp4136
g73
(dp4137
sg82
g4118
sg75
(lp4138
g68
(g89
g70
NtRp4139
(dp4140
g73
(dp4141
sg82
g4135
sg75
(lp4142
g68
(g69
g70
NtRp4143
(dp4144
g73
(dp4145
g81
I1
ssg82
g4139
sg75
(lp4146
I00
asbasbasbag68
(g84
g70
NtRp4147
(dp4148
g73
(dp4149
sg82
g4118
sg75
(lp4150
g68
(g89
g70
NtRp4151
(dp4152
g73
(dp4153
sg82
g4147
sg75
(lp4154
g68
(g69
g70
NtRp4155
(dp4156
g73
(dp4157
g81
I1
ssg82
g4151
sg75
(lp4158
Nasbasbasbag68
(g84
g70
NtRp4159
(dp4160
g73
(dp4161
sg82
g4118
sg75
(lp4162
g68
(g89
g70
NtRp4163
(dp4164
g73
(dp4165
sg82
g4159
sg75
(lp4166
g68
(g69
g70
NtRp4167
(dp4168
g73
(dp4169
g81
I1
ssg82
g4163
sg75
(lp4170
(lp4171
(g3634
(S't\x06\x00\x00\x00Groups'
tRp4172
I00
S'http://www.web2py.com/examples/default/usergroups'
p4173
tp4174
a(g3634
(S't\x07\x00\x00\x00Twitter'
tRp4175
I00
S'http://twitter.com/web2py'
p4176
tp4177
a(g3634
(S's\t\x00\x00\x00Live Chat'
tRp4178
I00
S'http://webchat.freenode.net/?channels=web2py'
p4179
tp4180
aasbasbasbasbasbasbasbag68
(g84
g70
NtRp4181
(dp4182
g73
(dp4183
sg82
g3748
sg75
(lp4184
g68
(g89
g70
NtRp4185
(dp4186
g73
(dp4187
sg82
g4181
sg75
(lp4188
g68
(g69
g70
NtRp4189
(dp4190
g73
(dp4191
g81
I2
ssg82
g4185
sg75
(lp4192
g68
(g77
g70
NtRp4193
(dp4194
g73
(dp4195
g81
I1
ssg82
Nsg75
(lp4196
g68
(g84
g70
NtRp4197
(dp4198
g73
(dp4199
sg82
g4193
sg75
(lp4200
g68
(g89
g70
NtRp4201
(dp4202
g73
(dp4203
sg82
g4197
sg75
(lp4204
g68
(g69
g70
NtRp4205
(dp4206
g73
(dp4207
g81
I1
ssg82
g4201
sg75
(lp4208
g3634
(S't\x07\x00\x00\x00Plugins'
tRp4209
asbasbasbag68
(g84
g70
NtRp4210
(dp4211
g73
(dp4212
sg82
g4193
sg75
(lp4213
g68
(g89
g70
NtRp4214
(dp4215
g73
(dp4216
sg82
g4210
sg75
(lp4217
g68
(g69
g70
NtRp4218
(dp4219
g73
(dp4220
g81
I1
ssg82
g4214
sg75
(lp4221
I00
asbasbasbag68
(g84
g70
NtRp4222
(dp4223
g73
(dp4224
sg82
g4193
sg75
(lp4225
g68
(g89
g70
NtRp4226
(dp4227
g73
(dp4228
sg82
g4222
sg75
(lp4229
g68
(g69
g70
NtRp4230
(dp4231
g73
(dp4232
g81
I1
ssg82
g4226
sg75
(lp4233
Nasbasbasbag68
(g84
g70
NtRp4234
(dp4235
g73
(dp4236
sg82
g4193
sg75
(lp4237
g68
(g89
g70
NtRp4238
(dp4239
g73
(dp4240
sg82
g4234
sg75
(lp4241
g68
(g69
g70
NtRp4242
(dp4243
g73
(dp4244
g81
I1
ssg82
g4238
sg75
(lp4245
(lp4246
(S'plugin_wiki'
p4247
I00
S'http://web2py.com/examples/default/download'
p4248
tp4249
a(g3634
(S's\r\x00\x00\x00Other Plugins'
tRp4250
I00
g3980
tp4251
a(g3634
(S's\x0e\x00\x00\x00Layout Plugins'
tRp4252
I00
g3983
tp4253
aasbasbasbasbasbasbasbasbasbasbasbasbasbasbasbasbasbasbasbag68
(g84
g70
NtRp4254
(dp4255
g73
(dp4256
sg82
g3128
sg75
(lp4257
g68
(g89
g70
NtRp4258
(dp4259
g73
(dp4260
g93
g94
ssg82
g4254
sg75
(lp4261
S'meta'
p4262
asbag68
(g89
g70
NtRp4263
(dp4264
g73
(dp4265
g100
g101
ssg82
g4254
sg75
(lp4266
S':'
asbag68
(g89
g70
NtRp4267
(dp4268
g73
(dp4269
sg82
g4254
sg75
(lp4270
g68
(g69
g70
NtRp4271
(dp4272
g73
(dp4273
g81
I5
ssg82
g4267
sg75
(lp4274
g68
(g77
g70
NtRp4275
(dp4276
g73
(dp4277
g81
I4
ssg82
Nsg75
(lp4278
g68
(g84
g70
NtRp4279
(dp4280
g73
(dp4281
sg82
g4275
sg75
(lp4282
g68
(g89
g70
NtRp4283
(dp4284
g73
(dp4285
g93
g94
ssg82
g4279
sg75
(lp4286
S'author'
p4287
asbag68
(g89
g70
NtRp4288
(dp4289
g73
(dp4290
g100
g101
ssg82
g4279
sg75
(lp4291
S':'
asbag68
(g89
g70
NtRp4292
(dp4293
g73
(dp4294
sg82
g4279
sg75
(lp4295
g68
(g69
g70
NtRp4296
(dp4297
g73
(dp4298
g81
I4
ssg82
g4292
sg75
(lp4299
S'Your Name <you@example.com>'
p4300
asbasbasbag68
(g84
g70
NtRp4301
(dp4302
g73
(dp4303
sg82
g4275
sg75
(lp4304
g68
(g89
g70
NtRp4305
(dp4306
g73
(dp4307
g93
g94
ssg82
g4301
sg75
(lp4308
S'copyright'
p4309
asbag68
(g89
g70
NtRp4310
(dp4311
g73
(dp4312
g100
g101
ssg82
g4301
sg75
(lp4313
S':'
asbag68
(g89
g70
NtRp4314
(dp4315
g73
(dp4316
sg82
g4301
sg75
(lp4317
g68
(g69
g70
NtRp4318
(dp4319
g73
(dp4320
g81
I4
ssg82
g4314
sg75
(lp4321
S'Copyright 2011'
p4322
asbasbasbag68
(g84
g70
NtRp4323
(dp4324
g73
(dp4325
sg82
g4275
sg75
(lp4326
g68
(g89
g70
NtRp4327
(dp4328
g73
(dp4329
g93
g94
ssg82
g4323
sg75
(lp4330
S'description'
p4331
asbag68
(g89
g70
NtRp4332
(dp4333
g73
(dp4334
g100
g101
ssg82
g4323
sg75
(lp4335
S':'
asbag68
(g89
g70
NtRp4336
(dp4337
g73
(dp4338
sg82
g4323
sg75
(lp4339
g68
(g69
g70
NtRp4340
(dp4341
g73
(dp4342
g81
I4
ssg82
g4336
sg75
(lp4343
S'a cool new app'
p4344
asbasbasbag68
(g84
g70
NtRp4345
(dp4346
g73
(dp4347
sg82
g4275
sg75
(lp4348
g68
(g89
g70
NtRp4349
(dp4350
g73
(dp4351
g93
g94
ssg82
g4345
sg75
(lp4352
S'generator'
p4353
asbag68
(g89
g70
NtRp4354
(dp4355
g73
(dp4356
g100
g101
ssg82
g4345
sg75
(lp4357
S':'
asbag68
(g89
g70
NtRp4358
(dp4359
g73
(dp4360
sg82
g4345
sg75
(lp4361
g68
(g69
g70
NtRp4362
(dp4363
g73
(dp4364
g81
I4
ssg82
g4358
sg75
(lp4365
S'Web2py Web Framework'
p4366
asbasbasbag68
(g84
g70
NtRp4367
(dp4368
g73
(dp4369
sg82
g4275
sg75
(lp4370
g68
(g89
g70
NtRp4371
(dp4372
g73
(dp4373
g93
g94
ssg82
g4367
sg75
(lp4374
S'keywords'
p4375
asbag68
(g89
g70
NtRp4376
(dp4377
g73
(dp4378
g100
g101
ssg82
g4367
sg75
(lp4379
S':'
asbag68
(g89
g70
NtRp4380
(dp4381
g73
(dp4382
sg82
g4367
sg75
(lp4383
g68
(g69
g70
NtRp4384
(dp4385
g73
(dp4386
g81
I4
ssg82
g4380
sg75
(lp4387
S'web2py, python, framework'
p4388
asbasbasbasbasbasbasbag68
(g84
g70
NtRp4389
(dp4390
g73
(dp4391
sg82
g3128
sg75
(lp4392
g68
(g89
g70
NtRp4393
(dp4394
g73
(dp4395
g93
g94
ssg82
g4389
sg75
(lp4396
S'postprocessing'
p4397
asbag68
(g89
g70
NtRp4398
(dp4399
g73
(dp4400
g100
g101
ssg82
g4389
sg75
(lp4401
S':'
asbag68
(g89
g70
NtRp4402
(dp4403
g73
(dp4404
sg82
g4389
sg75
(lp4405
g68
(g69
g70
NtRp4406
(dp4407
g73
(dp4408
g81
I5
ssg82
g4402
sg75
(lp4409
g68
(g77
g70
NtRp4410
(dp4411
g73
(dp4412
g81
I4
ssg82
Nsg75
(lp4413
sbasbasbasbag68
(g84
g70
NtRp4414
(dp4415
g73
(dp4416
sg82
g3128
sg75
(lp4417
g68
(g89
g70
NtRp4418
(dp4419
g73
(dp4420
g93
g94
ssg82
g4414
sg75
(lp4421
S'session_filename'
p4422
asbag68
(g89
g70
NtRp4423
(dp4424
g73
(dp4425
g100
g101
ssg82
g4414
sg75
(lp4426
S':'
asbag68
(g89
g70
NtRp4427
(dp4428
g73
(dp4429
sg82
g4414
sg75
(lp4430
g68
(g69
g70
NtRp4431
(dp4432
g73
(dp4433
g81
I5
ssg82
g4427
sg75
(lp4434
S'C:\\webapps\\ben\\project\\web2py\\applications\\profile\\sessions\\127.0.0.1-40aa28af-781f-474b-abfb-b06d4709c0b5'
p4435
asbasbasbag68
(g84
g70
NtRp4436
(dp4437
g73
(dp4438
sg82
g3128
sg75
(lp4439
g68
(g89
g70
NtRp4440
(dp4441
g73
(dp4442
g93
g94
ssg82
g4436
sg75
(lp4443
S'session_id'
p4444
asbag68
(g89
g70
NtRp4445
(dp4446
g73
(dp4447
g100
g101
ssg82
g4436
sg75
(lp4448
S':'
asbag68
(g89
g70
NtRp4449
(dp4450
g73
(dp4451
sg82
g4436
sg75
(lp4452
g68
(g69
g70
NtRp4453
(dp4454
g73
(dp4455
g81
I5
ssg82
g4449
sg75
(lp4456
S'127.0.0.1-40aa28af-781f-474b-abfb-b06d4709c0b5'
p4457
asbasbasbag68
(g84
g70
NtRp4458
(dp4459
g73
(dp4460
sg82
g3128
sg75
(lp4461
g68
(g89
g70
NtRp4462
(dp4463
g73
(dp4464
g93
g94
ssg82
g4458
sg75
(lp4465
S'session_id_name'
p4466
asbag68
(g89
g70
NtRp4467
(dp4468
g73
(dp4469
g100
g101
ssg82
g4458
sg75
(lp4470
S':'
asbag68
(g89
g70
NtRp4471
(dp4472
g73
(dp4473
sg82
g4458
sg75
(lp4474
g68
(g69
g70
NtRp4475
(dp4476
g73
(dp4477
g81
I5
ssg82
g4471
sg75
(lp4478
g3185
asbasbasbag68
(g84
g70
NtRp4479
(dp4480
g73
(dp4481
sg82
g3128
sg75
(lp4482
g68
(g89
g70
NtRp4483
(dp4484
g73
(dp4485
g93
g94
ssg82
g4479
sg75
(lp4486
S'session_new'
p4487
asbag68
(g89
g70
NtRp4488
(dp4489
g73
(dp4490
g100
g101
ssg82
g4479
sg75
(lp4491
S':'
asbag68
(g89
g70
NtRp4492
(dp4493
g73
(dp4494
sg82
g4479
sg75
(lp4495
g68
(g69
g70
NtRp4496
(dp4497
g73
(dp4498
g81
I5
ssg82
g4492
sg75
(lp4499
g1709
asbasbasbag68
(g84
g70
NtRp4500
(dp4501
g73
(dp4502
sg82
g3128
sg75
(lp4503
g68
(g89
g70
NtRp4504
(dp4505
g73
(dp4506
g93
g94
ssg82
g4500
sg75
(lp4507
S'status'
p4508
asbag68
(g89
g70
NtRp4509
(dp4510
g73
(dp4511
g100
g101
ssg82
g4500
sg75
(lp4512
S':'
asbag68
(g89
g70
NtRp4513
(dp4514
g73
(dp4515
sg82
g4500
sg75
(lp4516
g68
(g69
g70
NtRp4517
(dp4518
g73
(dp4519
g81
I5
ssg82
g4513
sg75
(lp4520
S'200'
p4521
asbasbasbag68
(g84
g70
NtRp4522
(dp4523
g73
(dp4524
sg82
g3128
sg75
(lp4525
g68
(g89
g70
NtRp4526
(dp4527
g73
(dp4528
g93
g94
ssg82
g4522
sg75
(lp4529
S'subtitle'
p4530
asbag68
(g89
g70
NtRp4531
(dp4532
g73
(dp4533
g100
g101
ssg82
g4522
sg75
(lp4534
S':'
asbag68
(g89
g70
NtRp4535
(dp4536
g73
(dp4537
sg82
g4522
sg75
(lp4538
g68
(g69
g70
NtRp4539
(dp4540
g73
(dp4541
g81
I5
ssg82
g4535
sg75
(lp4542
g3634
(S's\r\x00\x00\x00customize me!'
tRp4543
asbasbasbag68
(g84
g70
NtRp4544
(dp4545
g73
(dp4546
sg82
g3128
sg75
(lp4547
g68
(g89
g70
NtRp4548
(dp4549
g73
(dp4550
g93
g94
ssg82
g4544
sg75
(lp4551
S'title'
p4552
asbag68
(g89
g70
NtRp4553
(dp4554
g73
(dp4555
g100
g101
ssg82
g4544
sg75
(lp4556
S':'
asbag68
(g89
g70
NtRp4557
(dp4558
g73
(dp4559
sg82
g4544
sg75
(lp4560
g68
(g69
g70
NtRp4561
(dp4562
g73
(dp4563
g81
I5
ssg82
g4557
sg75
(lp4564
S'Profile'
p4565
asbasbasbag68
(g84
g70
NtRp4566
(dp4567
g73
(dp4568
sg82
g3128
sg75
(lp4569
g68
(g89
g70
NtRp4570
(dp4571
g73
(dp4572
g93
g94
ssg82
g4566
sg75
(lp4573
g2373
asbag68
(g89
g70
NtRp4574
(dp4575
g73
(dp4576
g100
g101
ssg82
g4566
sg75
(lp4577
S':'
asbag68
(g89
g70
NtRp4578
(dp4579
g73
(dp4580
sg82
g4566
sg75
(lp4581
g68
(g69
g70
NtRp4582
(dp4583
g73
(dp4584
g81
I5
ssg82
g4578
sg75
(lp4585
g2386
asbasbasbag68
(g84
g70
NtRp4586
(dp4587
g73
(dp4588
sg82
g3128
sg75
(lp4589
g68
(g89
g70
NtRp4590
(dp4591
g73
(dp4592
g93
g94
ssg82
g4586
sg75
(lp4593
S'view'
p4594
asbag68
(g89
g70
NtRp4595
(dp4596
g73
(dp4597
g100
g101
ssg82
g4586
sg75
(lp4598
S':'
asbag68
(g89
g70
NtRp4599
(dp4600
g73
(dp4601
sg82
g4586
sg75
(lp4602
g68
(g69
g70
NtRp4603
(dp4604
g73
(dp4605
g81
I5
ssg82
g4599
sg75
(lp4606
S'default/index.html'
p4607
asbasbasbasbasbsS'locals'
p4608
(dp4609
g4
S"r'C:\\webapps\\ben\\project\\web2py\\applications\\profile\\views\\default/index.html'"
p4610
sg6
S'r"response.write(\'<!DOCTYPE html>\\r\\n<!-- pauliris...write(\'\\r\\n</body>\\r\\n</html>\\r\\n\', escape=False)"'
p4611
sssS'traceback'
p4612
S'Traceback (most recent call last):\n  File "C:\\webapps\\ben\\project\\web2py\\gluon\\restricted.py", line 203, in restricted\n    ccode = compile2(code,layer)\n  File "C:\\webapps\\ben\\project\\web2py\\gluon\\restricted.py", line 189, in compile2\n    return compile(code.rstrip().replace(\'\\r\\n\',\'\\n\')+\'\\n\', layer, \'exec\')\n  File "C:\\webapps\\ben\\project\\web2py\\applications\\profile\\views\\default/index.html", line 59\n    {=URL(\'profile\',\'default\',\'index\')\n     ^\nSyntaxError: invalid syntax\n'
p4613
s.