(dp1
S'output'
p2
S"<type 'exceptions.SyntaxError'> invalid syntax (fun/index.html, line 48)"
p3
sS'layer'
p4
S'C:\\webapps\\ben\\project\\profile\\web2py\\applications\\profile\\views\\fun/index.html'
p5
sS'code'
p6
S'response.write(\'\\r\\n\', escape=False)\nresponse.write(\'<!DOCTYPE html>\\r\\n<!-- paulirish.com/2008/conditional-stylesheets-vs-css-hacks-answer-neither/ -->\\r\\n<!--[if lt IE 7]><html class="ie ie6 ie-lte9 ie-lte8 ie-lte7 no-js" lang="\', escape=False)\nresponse.write(T.accepted_language or \'en\')\nresponse.write(\'"> <![endif]-->\\r\\n<!--[if IE 7]><html class="ie ie7 ie-lte9 ie-lte8 ie-lte7 no-js" lang="\', escape=False)\nresponse.write(T.accepted_language or \'en\')\nresponse.write(\'"> <![endif]-->\\r\\n<!--[if IE 8]><html class="ie ie8 ie-lte9 ie-lte8 no-js" lang="\', escape=False)\nresponse.write(T.accepted_language or \'en\')\nresponse.write(\'"> <![endif]-->\\r\\n<!--[if IE 9]><html class="ie9 ie-lte9 no-js" lang="\', escape=False)\nresponse.write(T.accepted_language or \'en\')\nresponse.write(\'"> <![endif]-->\\r\\n<!--[if (gt IE 9)|!(IE)]><!--> <html class="no-js" lang="\', escape=False)\nresponse.write(T.accepted_language or \'en\')\nresponse.write(\'"> <!--<![endif]-->\\r\\n<head>\\r\\n  <meta charset="utf-8" />\\r\\n  <!-- www.phpied.com/conditional-comments-block-downloads/ -->\\r\\n  <!-- Always force latest IE rendering engine\\r\\n       (even in intranet) & Chrome Frame\\r\\n       Remove this if you use the .htaccess -->\\r\\n  <!--[if IE]>\\r\\n    <meta http-equiv="X-UA-Compatible" content="IE=edge\', escape=False)\nresponse.write(not request.is_local and \',chrome=1\' or \'\')\nresponse.write(\'">\\r\\n  <![endif]-->\\r\\n  \\r\\n  <title>ben mcphail</title>\\r\\n  \\r\\n  <!-- http://dev.w3.org/html5/markup/meta.name.html -->\\r\\n  <meta name="application-name" content="\', escape=False)\nresponse.write(request.application)\nresponse.write(\'" />\\r\\n  \\r\\n  <!-- Speaking of Google, don\\\'t forget to set your site up:\\r\\n       http://google.com/webmasters -->\\r\\n  <meta name="google-site-verification" content="" />\\r\\n\\r\\n  <!--  Mobile Viewport Fix\\r\\n      j.mp/mobileviewport & davidbcalhoun.com/2010/viewport-metatag\\r\\n      device-width: Occupy full width of the screen in its current orientation\\r\\n      initial-scale = 1.0 retains dimensions instead of zooming out if page height > device height\\r\\n      user-scalable = yes allows the user to zoom in -->\\r\\n  <meta name="viewport" content="width=device-width, initial-scale=1.0, user-scalable=yes">\\r\\n  \\r\\n  <!-- Place favicon.ico and apple-touch-icon.png in the root of your domain and delete these references -->\\r\\n  <link rel="shortcut icon" href="\', escape=False)\nresponse.write(URL(\'static\',\'favicon.ico\'))\nresponse.write(\'" type="image/x-icon">\\r\\n  <link rel="apple-touch-icon" href="\', escape=False)\nresponse.write(URL(\'static\',\'favicon.png\'))\nresponse.write(\'">\\r\\n\\r\\n  <!-- All JavaScript at the bottom, except for Modernizr which enables \\r\\n       HTML5 elements & feature detects -->\\r\\n  <script src="\', escape=False)\nresponse.write(URL(\'static\',\'js/modernizr.custom.js\'))\nresponse.write(\'"></script>  \\r\\n\\r\\n  <!-- include stylesheets -->\\r\\n  \', escape=False)\nresponse.files.append(URL(\'static\',\'css/skeleton.css\'))\nresponse.files.append(URL(\'static\',\'css/web2py.css\'))\nresponse.files.append(URL(\'static\',\'css/superfish.css\'))\nresponse.files.append(URL(\'static\',\'js/superfish.js\'))\nresponse.files.append(URL(\'static\',\'js/main.js\'))\nresponse.files.append(URL(\'static\',\'css/main.css\'))\nresponse.write(\'\\r\\n\\r\\n  \', escape=False)\nresponse.write(\'<script type="text/javascript"><!--\\n    // These variables are used by the web2py_ajax_init function in web2py_ajax.js (which is loaded below).\\n    var w2p_ajax_confirm_message = "\', escape=False)\nresponse.write(T(\'Are you sure you want to delete this object?\'))\nresponse.write(\'";\\n    var w2p_ajax_date_format = "\', escape=False)\nresponse.write(T(\'%Y-%m-%d\'))\nresponse.write(\'";\\n    var w2p_ajax_datetime_format = "\', escape=False)\nresponse.write(T(\'%Y-%m-%d %H:%M:%S\'))\nresponse.write(\'";\\n    //--></script>\\n\', escape=False)\nresponse.files.insert(0,URL(\'static\',\'js/jquery.js\'))\nresponse.files.insert(1,URL(\'static\',\'css/calendar.css\'))\nresponse.files.insert(2,URL(\'static\',\'js/calendar.js\'))\nresponse.files.insert(3,URL(\'static\',\'js/web2py.js\'))\nresponse.include_meta()\nresponse.include_files()\nresponse.write(\'\\n\', escape=False)\nresponse.write(\'\\r\\n\\r\\n  <script type="text/javascript">\\r\\n    jQuery(function(){ jQuery(\\\'ul.sf-menu\\\').supersubs({minWidth:12,maxWidth:30,extraWidth:3}).superfish(); });\\r\\n  </script>\\r\\n\\r\\n\\r\\n  <!-- uncomment here to load jquery-ui\\r\\n  <link rel="stylesheet" href="http://ajax.googleapis.com/ajax/libs/jqueryui/1.8.16/themes/base/jquery-ui.css" type="text/css" media="all" />\\r\\n  <script src="http://ajax.googleapis.com/ajax/libs/jqueryui/1.8.16/jquery-ui.min.js" type="text/javascript"></script>\\r\\n  uncomment to load jquery-ui //-->\\r\\n</head>\\r\\n<body>\\r\\n \\r\\n \\r\\n       <div style="clear: both;"></div><!-- Clear the divs -->\\r\\n   \', escape=False)\n#include \'statusbar.html\'\nresponse.write(\' <!-- Status bar is the menu -->\\r\\n    <div id="page"> <!-- Here my central body -->     \\r\\n      <!-- contsdsdent -->\\r\\n      <div id="content" >\\r\\n        \', escape=False)\nresponse.write(\'<dl>\\n<script type="text/javascript">\\r\\n\\r\\n\\r\\n$(document).ready(function(){\\r\\n\\t\\r\\n\\t\\r\\n$("#footer_options").css(\\\'display\\\',\\\'none\\\')\\r\\n});\\r\\n//alert(\\\'boom\\\')\\r\\n</script>\\r\\n   <head>\\r\\n   \\r\\n\\t\\t<!--=============================-->\\r\\n\\t\\t<!-- Copy this part to your app. -->\\r\\n\\t\\t<!-- START                       -->\\r\\n\\t\\t<!--=============================-->\\r\\n\\t\\t<!-- libs -->\\r\\n\\t\\t<!--[if IE]><script type="text/javascript" src="lib/excanvas.js"></script><![endif]-->\\r\\n    <script src=\\\'\', escape=False)\nresponse.write(URL("profile","static/{{=URL("profile","static/js","lib","prototype-1.6.0.2.js"))\nresponse.write("\'></script>\\r\\n\\r\\n\\t\\t<!-- box2djs -->\\r\\n    <script src=\'", escape=False)\nresponse.write(URL("profile","static/js","box2d/common/b2Settings.js"))\nresponse.write("\'></script>\\r\\n    <script src=\'", escape=False)\nresponse.write(URL("profile","static/js","box2d/common/math/b2Vec2.js"))\nresponse.write("\'></script>\\r\\n    <script src=\'", escape=False)\nresponse.write(URL("profile","static/js","box2d/common/math/b2Mat22.js"))\nresponse.write("\'></script>\\r\\n    <script src=\'", escape=False)\nresponse.write(URL("profile","static/js","box2d/common/math/b2Math.js"))\nresponse.write("\'></script>\\r\\n    <script src=\'", escape=False)\nresponse.write(URL("profile","static/js","box2d/collision/b2AABB.js"))\nresponse.write("\'></script>\\r\\n    <script src=\'", escape=False)\nresponse.write(URL("profile","static/js","box2d/collision/b2Bound.js"))\nresponse.write("\'></script>\\r\\n    <script src=\'", escape=False)\nresponse.write(URL("profile","static/js","box2d/collision/b2BoundValues.js"))\nresponse.write("\'></script>\\r\\n    <script src=\'", escape=False)\nresponse.write(URL("profile","static/js","box2d/collision/b2Pair.js"))\nresponse.write("\'></script>\\r\\n    <script src=\'", escape=False)\nresponse.write(URL("profile","static/js","box2d/collision/b2PairCallback.js"))\nresponse.write("\'></script>\\r\\n    <script src=\'", escape=False)\nresponse.write(URL("profile","static/js","box2d/collision/b2BufferedPair.js"))\nresponse.write("\'></script>\\r\\n    <script src=\'", escape=False)\nresponse.write(URL("profile","static/js","box2d/collision/b2PairManager.js"))\nresponse.write("\'></script>\\r\\n    <script src=\'", escape=False)\nresponse.write(URL("profile","static/js","box2d/collision/b2BroadPhase.js"))\nresponse.write("\'></script>\\r\\n    <script src=\'", escape=False)\nresponse.write(URL("profile","static/js","box2d/collision/b2Collision.js"))\nresponse.write("\'></script>\\r\\n    <script src=\'", escape=False)\nresponse.write(URL("profile","static/js","box2d/collision/Features.js"))\nresponse.write("\'></script>\\r\\n    <script src=\'", escape=False)\nresponse.write(URL("profile","static/js","box2d/collision/b2ContactID.js"))\nresponse.write("\'></script>\\r\\n    <script src=\'", escape=False)\nresponse.write(URL("profile","static/js","box2d/collision/b2ContactPoint.js"))\nresponse.write("\'></script>\\r\\n    <script src=\'", escape=False)\nresponse.write(URL("profile","static/js","box2d/collision/b2Distance.js"))\nresponse.write("\'></script>\\r\\n    <script src=\'", escape=False)\nresponse.write(URL("profile","static/js","box2d/collision/b2Manifold.js"))\nresponse.write("\'></script>\\r\\n    <script src=\'", escape=False)\nresponse.write(URL("profile","static/js","box2d/collision/b2OBB.js"))\nresponse.write("\'></script>\\r\\n    <script src=\'", escape=False)\nresponse.write(URL("profile","static/js","box2d/collision/b2Proxy.js"))\nresponse.write("\'></script>\\r\\n    <script src=\'", escape=False)\nresponse.write(URL("profile","static/js","box2d/collision/ClipVertex.js"))\nresponse.write("\'></script>\\r\\n    <script src=\'", escape=False)\nresponse.write(URL("profile","static/js","box2d/collision/shapes/b2Shape.js"))\nresponse.write("\'></script>\\r\\n    <script src=\'", escape=False)\nresponse.write(URL("profile","static/js","box2d/collision/shapes/b2ShapeDef.js"))\nresponse.write("\'></script>\\r\\n    <script src=\'", escape=False)\nresponse.write(URL("profile","static/js","box2d/collision/shapes/b2BoxDef.js"))\nresponse.write("\'></script>\\r\\n    <script src=\'", escape=False)\nresponse.write(URL("profile","static/js","box2d/collision/shapes/b2CircleDef.js"))\nresponse.write("\'></script>\\r\\n    <script src=\'", escape=False)\nresponse.write(URL("profile","static/js","box2d/collision/shapes/b2CircleShape.js"))\nresponse.write("\'></script>\\r\\n    <script src=\'", escape=False)\nresponse.write(URL("profile","static/js","box2d/collision/shapes/b2MassData.js"))\nresponse.write("\'></script>\\r\\n    <script src=\'", escape=False)\nresponse.write(URL("profile","static/js","box2d/collision/shapes/b2PolyDef.js"))\nresponse.write("\'></script>\\r\\n    <script src=\'", escape=False)\nresponse.write(URL("profile","static/js","box2d/collision/shapes/b2PolyShape.js"))\nresponse.write("\'></script>\\r\\n    <script src=\'", escape=False)\nresponse.write(URL("profile","static/js","box2d/dynamics/b2Body.js"))\nresponse.write("\'></script>\\r\\n    <script src=\'", escape=False)\nresponse.write(URL("profile","static/js","box2d/dynamics/b2BodyDef.js"))\nresponse.write("\'></script>\\r\\n    <script src=\'", escape=False)\nresponse.write(URL("profile","static/js","box2d/dynamics/b2CollisionFilter.js"))\nresponse.write("\'></script>\\r\\n    <script src=\'", escape=False)\nresponse.write(URL("profile","static/js","box2d/dynamics/b2Island.js"))\nresponse.write("\'></script>\\r\\n    <script src=\'", escape=False)\nresponse.write(URL("profile","static/js","box2d/dynamics/b2TimeStep.js"))\nresponse.write("\'></script>\\r\\n    <script src=\'", escape=False)\nresponse.write(URL("profile","static/js","box2d/dynamics/contacts/b2ContactNode.js"))\nresponse.write("\'></script>\\r\\n    <script src=\'", escape=False)\nresponse.write(URL("profile","static/js","box2d/dynamics/contacts/b2Contact.js"))\nresponse.write("\'></script>\\r\\n    <script src=\'", escape=False)\nresponse.write(URL("profile","static/js","box2d/dynamics/contacts/b2ContactConstraint.js"))\nresponse.write("\'></script>\\r\\n    <script src=\'", escape=False)\nresponse.write(URL("profile","static/js","box2d/dynamics/contacts/b2ContactConstraintPoint.js"))\nresponse.write("\'></script>\\r\\n    <script src=\'", escape=False)\nresponse.write(URL("profile","static/js","box2d/dynamics/contacts/b2ContactRegister.js"))\nresponse.write("\'></script>\\r\\n    <script src=\'", escape=False)\nresponse.write(URL("profile","static/js","box2d/dynamics/contacts/b2ContactSolver.js"))\nresponse.write("\'></script>\\r\\n    <script src=\'", escape=False)\nresponse.write(URL("profile","static/js","box2d/dynamics/contacts/b2CircleContact.js"))\nresponse.write("\'></script>\\r\\n    <script src=\'", escape=False)\nresponse.write(URL("profile","static/js","box2d/dynamics/contacts/b2Conservative.js"))\nresponse.write("\'></script>\\r\\n    <script src=\'", escape=False)\nresponse.write(URL("profile","static/js","box2d/dynamics/contacts/b2NullContact.js"))\nresponse.write("\'></script>\\r\\n    <script src=\'", escape=False)\nresponse.write(URL("profile","static/js","box2d/dynamics/contacts/b2PolyAndCircleContact.js"))\nresponse.write("\'></script>\\r\\n    <script src=\'", escape=False)\nresponse.write(URL("profile","static/js","box2d/dynamics/contacts/b2PolyContact.js"))\nresponse.write("\'></script>\\r\\n    <script src=\'", escape=False)\nresponse.write(URL("profile","static/js","box2d/dynamics/b2ContactManager.js"))\nresponse.write("\'></script>\\r\\n    <script src=\'", escape=False)\nresponse.write(URL("profile","static/js","box2d/dynamics/b2World.js"))\nresponse.write("\'></script>\\r\\n    <script src=\'", escape=False)\nresponse.write(URL("profile","static/js","box2d/dynamics/b2WorldListener.js"))\nresponse.write("\'></script>\\r\\n    <script src=\'", escape=False)\nresponse.write(URL("profile","static/js","box2d/dynamics/joints/b2JointNode.js"))\nresponse.write("\'></script>\\r\\n    <script src=\'", escape=False)\nresponse.write(URL("profile","static/js","box2d/dynamics/joints/b2Joint.js"))\nresponse.write("\'></script>\\r\\n    <script src=\'", escape=False)\nresponse.write(URL("profile","static/js","box2d/dynamics/joints/b2JointDef.js"))\nresponse.write("\'></script>\\r\\n    <script src=\'", escape=False)\nresponse.write(URL("profile","static/js","box2d/dynamics/joints/b2DistanceJoint.js"))\nresponse.write("\'></script>\\r\\n    <script src=\'", escape=False)\nresponse.write(URL("profile","static/js","box2d/dynamics/joints/b2DistanceJointDef.js"))\nresponse.write("\'></script>\\r\\n    <script src=\'", escape=False)\nresponse.write(URL("profile","static/js","box2d/dynamics/joints/b2Jacobian.js"))\nresponse.write("\'></script>\\r\\n    <script src=\'", escape=False)\nresponse.write(URL("profile","static/js","box2d/dynamics/joints/b2GearJoint.js"))\nresponse.write("\'></script>\\r\\n    <script src=\'", escape=False)\nresponse.write(URL("profile","static/js","box2d/dynamics/joints/b2GearJointDef.js"))\nresponse.write("\'></script>\\r\\n    <script src=\'", escape=False)\nresponse.write(URL("profile","static/js","box2d/dynamics/joints/b2MouseJoint.js"))\nresponse.write("\'></script>\\r\\n    <script src=\'", escape=False)\nresponse.write(URL("profile","static/js","box2d/dynamics/joints/b2MouseJointDef.js"))\nresponse.write("\'></script>\\r\\n    <script src=\'", escape=False)\nresponse.write(URL("profile","static/js","box2d/dynamics/joints/b2PrismaticJoint.js"))\nresponse.write("\'></script>\\r\\n    <script src=\'", escape=False)\nresponse.write(URL("profile","static/js","box2d/dynamics/joints/b2PrismaticJointDef.js"))\nresponse.write("\'></script>\\r\\n    <script src=\'", escape=False)\nresponse.write(URL("profile","static/js","box2d/dynamics/joints/b2PulleyJoint.js"))\nresponse.write("\'></script>\\r\\n    <script src=\'", escape=False)\nresponse.write(URL("profile","static/js","box2d/dynamics/joints/b2PulleyJointDef.js"))\nresponse.write("\'></script>\\r\\n    <script src=\'", escape=False)\nresponse.write(URL("profile","static/js","box2d/dynamics/joints/b2RevoluteJoint.js"))\nresponse.write("\'></script>\\r\\n    <script src=\'", escape=False)\nresponse.write(URL("profile","static/js","box2d/dynamics/joints/b2RevoluteJointDef.js"))\nresponse.write(\'\\\'></script>\\r\\n\\t\\t<!--=============================-->\\r\\n\\t\\t<!-- Copy this part to your app. -->\\r\\n\\t\\t<!-- END                         -->\\r\\n\\t\\t<!--=============================-->\\r\\n      <title>Box2dWeb example</title>\\r\\n   </head>\\r\\n   <body onload="init();">\\r\\n      <canvas id="canvas" width="600" height="400"></canvas>\\r\\n   </body>\\r\\n   <script type="text/javascript" src="Box2D.js"></script>\\r\\n   <script type="text/javascript">\\r\\n      var world;\\r\\n      \\r\\n      function init() {\\r\\n         var   b2Vec2 = Box2D.Common.Math.b2Vec2\\r\\n                ,       b2BodyDef = Box2D.Dynamics.b2BodyDef\\r\\n                ,       b2Body = Box2D.Dynamics.b2Body\\r\\n                ,       b2FixtureDef = Box2D.Dynamics.b2FixtureDef\\r\\n                ,       b2Fixture = Box2D.Dynamics.b2Fixture\\r\\n                ,       b2World = Box2D.Dynamics.b2World\\r\\n                ,       b2MassData = Box2D.Collision.Shapes.b2MassData\\r\\n                ,       b2PolygonShape = Box2D.Collision.Shapes.b2PolygonShape\\r\\n                ,       b2CircleShape = Box2D.Collision.Shapes.b2CircleShape\\r\\n                ,       b2DebugDraw = Box2D.Dynamics.b2DebugDraw\\r\\n            ;\\r\\n         \\r\\n         world = new b2World(\\r\\n               new b2Vec2(0, 10)    //gravity\\r\\n            ,  true                 //allow sleep\\r\\n         );\\r\\n         \\r\\n         var fixDef = new b2FixtureDef;\\r\\n         fixDef.density = 1.0;\\r\\n         fixDef.friction = 0.5;\\r\\n         fixDef.restitution = 0.2;\\r\\n         \\r\\n         var bodyDef = new b2BodyDef;\\r\\n         \\r\\n         //create ground\\r\\n         bodyDef.type = b2Body.b2_staticBody;\\r\\n         bodyDef.position.x = 9;\\r\\n         bodyDef.position.y = 13;\\r\\n         fixDef.shape = new b2PolygonShape;\\r\\n         fixDef.shape.SetAsBox(10, 0.5);\\r\\n         world.CreateBody(bodyDef).CreateFixture(fixDef);\\r\\n         \\r\\n         //create some objects\\r\\n         bodyDef.type = b2Body.b2_dynamicBody;\\r\\n         for(var i = 0; i < 10; ++i) {\\r\\n            if(Math.random() > 0.5) {\\r\\n               fixDef.shape = new b2PolygonShape;\\r\\n               fixDef.shape.SetAsBox(\\r\\n                     Math.random() + 0.1 //half width\\r\\n                  ,  Math.random() + 0.1 //half height\\r\\n               );\\r\\n            } else {\\r\\n               fixDef.shape = new b2CircleShape(\\r\\n                  Math.random() + 0.1 //radius\\r\\n               );\\r\\n            }\\r\\n            bodyDef.position.x = Math.random() * 10;\\r\\n            bodyDef.position.y = Math.random() * 10;\\r\\n            world.CreateBody(bodyDef).CreateFixture(fixDef);\\r\\n         }\\r\\n         \\r\\n         //setup debug draw\\r\\n         var debugDraw = new b2DebugDraw();\\r\\n                        debugDraw.SetSprite(document.getElementById("canvas").getContext("2d"));\\r\\n                        debugDraw.SetDrawScale(30.0);\\r\\n                        debugDraw.SetFillAlpha(0.3);\\r\\n                        debugDraw.SetLineThickness(1.0);\\r\\n                        debugDraw.SetFlags(b2DebugDraw.e_shapeBit | b2DebugDraw.e_jointBit);\\r\\n                        world.SetDebugDraw(debugDraw);\\r\\n         \\r\\n         window.setInterval(update, 1000 / 60);\\r\\n      };\\r\\n      \\r\\n      function update() {\\r\\n         world.Step(\\r\\n               1 / 60   //frame-rate\\r\\n            ,  10       //velocity iterations\\r\\n            ,  10       //position iterations\\r\\n         );\\r\\n         world.DrawDebugData();\\r\\n         world.ClearForces();\\r\\n      };\\r\\n   \\r\\n   </script>\\r\\n\\r\\n\\r\\n\\n\\r\\n<h1>This is the fun/index.html template</h1>\\r\\n\', escape=False)\nresponse.write(\' \\r\\n      </div>\\r\\n      <!-- content -->\\r\\n      <div style="clear: both;"></div><!-- Clear the divs -->\\r\\n    </div><!-- page -->\\r\\n\\r\\n  \\r\\n  <div id="footer_options">\\r\\n  <div id="bottom_img">\\r\\n  <div id="footer_top" onclick="scroll_top()">\\r\\n    <div id="option_title">\\r\\n        top\\r\\n    </div>\\r\\n  </div>\\r\\n  <div id="footer_skills" onclick="scroll_skills()">\\r\\n    <div id="option_title">\\r\\n        skills\\r\\n    </div>\\r\\n  </div>\\r\\n  <div id="footer_projects" onclick="scroll_projects()">\\r\\n    <div id="option_title">\\r\\n        projects\\r\\n    </div>\\r\\n  </div>\\r\\n  <div id="footer_connect" onclick="scroll_connect()">\\r\\n    <div id="option_title">\\r\\n        connect\\r\\n    </div>\\r\\n  </div>\\r\\n </div>\\r\\n </div>\\r\\n  \\r\\n  \\r\\n  <!--[if lt IE 7 ]>\\r\\n    <script src="\', escape=False)\nresponse.write(URL(\'static\',\'js/dd_belatedpng.js\'))\nresponse.write(\'"></script>\\r\\n    <script> DD_belatedPNG.fix(\\\'img, .png_bg\\\'); //fix any <img> or .png_bg background-images </script>\\r\\n    <![endif]-->\\r\\n  \', escape=False)\nif response.google_analytics_id:\n    response.write(\'<script type="text/javascript"> var _gaq = _gaq || []; _gaq.push([\\\'_setAccount\\\', \\\'\', escape=False)\n    response.write(response.google_analytics_id)\n    response.write("\']); _gaq.push([\'_trackPageview\']); (function() { var ga = document.createElement(\'script\'); ga.type = \'text/javascript\'; ga.async = true; ga.src = (\'https:\' == document.location.protocol ? \'https://ssl\' : \'http://www\') + \'.google-analytics.com/ga.js\'; var s = document.getElementsByTagName(\'script\')[0]; s.parentNode.insertBefore(ga, s); })(); </script> ", escape=False)\n    pass\nresponse.write(\'\\r\\n</body>\\r\\n</html>\\r\\n\', escape=False)'
p7
sS'snapshot'
p8
(dp9
S'exception'
p10
(dp11
S'__getslice__'
p12
S"<method-wrapper '__getslice__' of exceptions.SyntaxError object>"
p13
sS'text'
p14
S'\'response.write(URL("profile","static/{{=URL("profile","static/js","lib","prototype-1.6.0.2.js"))\\n\''
p15
sS'__str__'
p16
S"<method-wrapper '__str__' of exceptions.SyntaxError object>"
p17
sS'__reduce__'
p18
S'<built-in method __reduce__ of exceptions.SyntaxError object>'
p19
sS'__dict__'
p20
S'{}'
p21
sS'__sizeof__'
p22
S'<built-in method __sizeof__ of exceptions.SyntaxError object>'
p23
sS'__init__'
p24
S"<method-wrapper '__init__' of exceptions.SyntaxError object>"
p25
sS'__setattr__'
p26
S"<method-wrapper '__setattr__' of exceptions.SyntaxError object>"
p27
sS'__reduce_ex__'
p28
S'<built-in method __reduce_ex__ of exceptions.SyntaxError object>'
p29
sS'__new__'
p30
S'<built-in method __new__ of type object>'
p31
sS'__format__'
p32
S'<built-in method __format__ of exceptions.SyntaxError object>'
p33
sS'__class__'
p34
S"<type 'exceptions.SyntaxError'>"
p35
sS'filename'
p36
S"r'C:\\webapps\\ben\\project\\profile\\web2py\\applications\\profile\\views\\fun/index.html'"
p37
sS'lineno'
p38
S'48'
p39
sS'msg'
p40
S"'invalid syntax'"
p41
sS'__doc__'
p42
S"'Invalid syntax.'"
p43
sS'__getitem__'
p44
S"<method-wrapper '__getitem__' of exceptions.SyntaxError object>"
p45
sS'__setstate__'
p46
S'<built-in method __setstate__ of exceptions.SyntaxError object>'
p47
sS'__getattribute__'
p48
S"<method-wrapper '__getattribute__' of exceptions.SyntaxError object>"
p49
sS'print_file_and_line'
p50
S'None'
p51
sS'args'
p52
S'(\'invalid syntax\', (r\'C:\\webapps\\ben\\project\\profile\\web2py\\applications\\profile\\views\\fun/index.html\', 48, 52, \'response.write(URL("profile","static/{{=URL("profile","static/js","lib","prototype-1.6.0.2.js"))\\n\'))'
p53
sS'__subclasshook__'
p54
S'<built-in method __subclasshook__ of type object>'
p55
sS'offset'
p56
S'52'
p57
sS'__unicode__'
p58
S'<built-in method __unicode__ of exceptions.SyntaxError object>'
p59
sS'__delattr__'
p60
S"<method-wrapper '__delattr__' of exceptions.SyntaxError object>"
p61
sS'__repr__'
p62
S"<method-wrapper '__repr__' of exceptions.SyntaxError object>"
p63
sS'__hash__'
p64
S"<method-wrapper '__hash__' of exceptions.SyntaxError object>"
p65
ssS'evalue'
p66
S'invalid syntax (fun/index.html, line 48)'
p67
sS'request'
p68
ccopy_reg
_reconstructor
p69
(cgluon.html
BEAUTIFY
p70
c__builtin__
object
p71
NtRp72
(dp73
S'attributes'
p74
(dp75
sS'components'
p76
(lp77
g69
(cgluon.html
TABLE
p78
g71
NtRp79
(dp80
g74
(dp81
S'level'
p82
I5
ssS'parent'
p83
Nsg76
(lp84
g69
(cgluon.html
TR
p85
g71
NtRp86
(dp87
g74
(dp88
sg83
g79
sg76
(lp89
g69
(cgluon.html
TD
p90
g71
NtRp91
(dp92
g74
(dp93
S'_style'
p94
S'font-weight:bold;vertical-align:top'
p95
ssg83
g86
sg76
(lp96
S'ajax'
p97
asbag69
(g90
g71
NtRp98
(dp99
g74
(dp100
S'_valign'
p101
S'top'
p102
ssg83
g86
sg76
(lp103
S':'
asbag69
(g90
g71
NtRp104
(dp105
g74
(dp106
sg83
g86
sg76
(lp107
g69
(g70
g71
NtRp108
(dp109
g74
(dp110
g82
I5
ssg83
g104
sg76
(lp111
S'False'
p112
asbasbasbag69
(g85
g71
NtRp113
(dp114
g74
(dp115
sg83
g79
sg76
(lp116
g69
(g90
g71
NtRp117
(dp118
g74
(dp119
g94
g95
ssg83
g113
sg76
(lp120
S'application'
p121
asbag69
(g90
g71
NtRp122
(dp123
g74
(dp124
g101
g102
ssg83
g113
sg76
(lp125
S':'
asbag69
(g90
g71
NtRp126
(dp127
g74
(dp128
sg83
g113
sg76
(lp129
g69
(g70
g71
NtRp130
(dp131
g74
(dp132
g82
I5
ssg83
g126
sg76
(lp133
S'profile'
p134
asbasbasbag69
(g85
g71
NtRp135
(dp136
g74
(dp137
sg83
g79
sg76
(lp138
g69
(g90
g71
NtRp139
(dp140
g74
(dp141
g94
g95
ssg83
g135
sg76
(lp142
g52
asbag69
(g90
g71
NtRp143
(dp144
g74
(dp145
g101
g102
ssg83
g135
sg76
(lp146
S':'
asbag69
(g90
g71
NtRp147
(dp148
g74
(dp149
sg83
g135
sg76
(lp150
g69
(g70
g71
NtRp151
(dp152
g74
(dp153
g82
I5
ssg83
g147
sg76
(lp154
g69
(g78
g71
NtRp155
(dp156
g74
(dp157
g82
I4
ssg83
Nsg76
(lp158
sbasbasbasbag69
(g85
g71
NtRp159
(dp160
g74
(dp161
sg83
g79
sg76
(lp162
g69
(g90
g71
NtRp163
(dp164
g74
(dp165
g94
g95
ssg83
g159
sg76
(lp166
S'body'
p167
asbag69
(g90
g71
NtRp168
(dp169
g74
(dp170
g101
g102
ssg83
g159
sg76
(lp171
S':'
asbag69
(g90
g71
NtRp172
(dp173
g74
(dp174
sg83
g159
sg76
(lp175
g69
(g70
g71
NtRp176
(dp177
g74
(dp178
g82
I5
ssg83
g172
sg76
(lp179
S'<cStringIO.StringO object at 0x000000000624EA78>'
p180
asbasbasbag69
(g85
g71
NtRp181
(dp182
g74
(dp183
sg83
g79
sg76
(lp184
g69
(g90
g71
NtRp185
(dp186
g74
(dp187
g94
g95
ssg83
g181
sg76
(lp188
S'client'
p189
asbag69
(g90
g71
NtRp190
(dp191
g74
(dp192
g101
g102
ssg83
g181
sg76
(lp193
S':'
asbag69
(g90
g71
NtRp194
(dp195
g74
(dp196
sg83
g181
sg76
(lp197
g69
(g70
g71
NtRp198
(dp199
g74
(dp200
g82
I5
ssg83
g194
sg76
(lp201
S'127.0.0.1'
p202
asbasbasbag69
(g85
g71
NtRp203
(dp204
g74
(dp205
sg83
g79
sg76
(lp206
g69
(g90
g71
NtRp207
(dp208
g74
(dp209
g94
g95
ssg83
g203
sg76
(lp210
S'controller'
p211
asbag69
(g90
g71
NtRp212
(dp213
g74
(dp214
g101
g102
ssg83
g203
sg76
(lp215
S':'
asbag69
(g90
g71
NtRp216
(dp217
g74
(dp218
sg83
g203
sg76
(lp219
g69
(g70
g71
NtRp220
(dp221
g74
(dp222
g82
I5
ssg83
g216
sg76
(lp223
S'fun'
p224
asbasbasbag69
(g85
g71
NtRp225
(dp226
g74
(dp227
sg83
g79
sg76
(lp228
g69
(g90
g71
NtRp229
(dp230
g74
(dp231
g94
g95
ssg83
g225
sg76
(lp232
S'cookies'
p233
asbag69
(g90
g71
NtRp234
(dp235
g74
(dp236
g101
g102
ssg83
g225
sg76
(lp237
S':'
asbag69
(g90
g71
NtRp238
(dp239
g74
(dp240
sg83
g225
sg76
(lp241
g69
(g70
g71
NtRp242
(dp243
g74
(dp244
g82
I5
ssg83
g238
sg76
(lp245
g69
(g78
g71
NtRp246
(dp247
g74
(dp248
g82
I4
ssg83
Nsg76
(lp249
g69
(g85
g71
NtRp250
(dp251
g74
(dp252
sg83
g246
sg76
(lp253
g69
(g90
g71
NtRp254
(dp255
g74
(dp256
g94
g95
ssg83
g250
sg76
(lp257
S'session_id_admin'
p258
asbag69
(g90
g71
NtRp259
(dp260
g74
(dp261
g101
g102
ssg83
g250
sg76
(lp262
S':'
asbag69
(g90
g71
NtRp263
(dp264
g74
(dp265
sg83
g250
sg76
(lp266
g69
(g70
g71
NtRp267
(dp268
g74
(dp269
g82
I4
ssg83
g263
sg76
(lp270
g69
(g78
g71
NtRp271
(dp272
g74
(dp273
g82
I3
ssg83
Nsg76
(lp274
g69
(g85
g71
NtRp275
(dp276
g74
(dp277
sg83
g271
sg76
(lp278
g69
(g90
g71
NtRp279
(dp280
g74
(dp281
g94
g95
ssg83
g275
sg76
(lp282
S'comment'
p283
asbag69
(g90
g71
NtRp284
(dp285
g74
(dp286
g101
g102
ssg83
g275
sg76
(lp287
S':'
asbag69
(g90
g71
NtRp288
(dp289
g74
(dp290
sg83
g275
sg76
(lp291
g69
(g70
g71
NtRp292
(dp293
g74
(dp294
g82
I3
ssg83
g288
sg76
(lp295
S''
asbasbasbag69
(g85
g71
NtRp296
(dp297
g74
(dp298
sg83
g271
sg76
(lp299
g69
(g90
g71
NtRp300
(dp301
g74
(dp302
g94
g95
ssg83
g296
sg76
(lp303
S'domain'
p304
asbag69
(g90
g71
NtRp305
(dp306
g74
(dp307
g101
g102
ssg83
g296
sg76
(lp308
S':'
asbag69
(g90
g71
NtRp309
(dp310
g74
(dp311
sg83
g296
sg76
(lp312
g69
(g70
g71
NtRp313
(dp314
g74
(dp315
g82
I3
ssg83
g309
sg76
(lp316
S''
asbasbasbag69
(g85
g71
NtRp317
(dp318
g74
(dp319
sg83
g271
sg76
(lp320
g69
(g90
g71
NtRp321
(dp322
g74
(dp323
g94
g95
ssg83
g317
sg76
(lp324
S'expires'
p325
asbag69
(g90
g71
NtRp326
(dp327
g74
(dp328
g101
g102
ssg83
g317
sg76
(lp329
S':'
asbag69
(g90
g71
NtRp330
(dp331
g74
(dp332
sg83
g317
sg76
(lp333
g69
(g70
g71
NtRp334
(dp335
g74
(dp336
g82
I3
ssg83
g330
sg76
(lp337
S''
asbasbasbag69
(g85
g71
NtRp338
(dp339
g74
(dp340
sg83
g271
sg76
(lp341
g69
(g90
g71
NtRp342
(dp343
g74
(dp344
g94
g95
ssg83
g338
sg76
(lp345
S'httponly'
p346
asbag69
(g90
g71
NtRp347
(dp348
g74
(dp349
g101
g102
ssg83
g338
sg76
(lp350
S':'
asbag69
(g90
g71
NtRp351
(dp352
g74
(dp353
sg83
g338
sg76
(lp354
g69
(g70
g71
NtRp355
(dp356
g74
(dp357
g82
I3
ssg83
g351
sg76
(lp358
S''
asbasbasbag69
(g85
g71
NtRp359
(dp360
g74
(dp361
sg83
g271
sg76
(lp362
g69
(g90
g71
NtRp363
(dp364
g74
(dp365
g94
g95
ssg83
g359
sg76
(lp366
S'max-age'
p367
asbag69
(g90
g71
NtRp368
(dp369
g74
(dp370
g101
g102
ssg83
g359
sg76
(lp371
S':'
asbag69
(g90
g71
NtRp372
(dp373
g74
(dp374
sg83
g359
sg76
(lp375
g69
(g70
g71
NtRp376
(dp377
g74
(dp378
g82
I3
ssg83
g372
sg76
(lp379
S''
asbasbasbag69
(g85
g71
NtRp380
(dp381
g74
(dp382
sg83
g271
sg76
(lp383
g69
(g90
g71
NtRp384
(dp385
g74
(dp386
g94
g95
ssg83
g380
sg76
(lp387
S'path'
p388
asbag69
(g90
g71
NtRp389
(dp390
g74
(dp391
g101
g102
ssg83
g380
sg76
(lp392
S':'
asbag69
(g90
g71
NtRp393
(dp394
g74
(dp395
sg83
g380
sg76
(lp396
g69
(g70
g71
NtRp397
(dp398
g74
(dp399
g82
I3
ssg83
g393
sg76
(lp400
S''
asbasbasbag69
(g85
g71
NtRp401
(dp402
g74
(dp403
sg83
g271
sg76
(lp404
g69
(g90
g71
NtRp405
(dp406
g74
(dp407
g94
g95
ssg83
g401
sg76
(lp408
S'secure'
p409
asbag69
(g90
g71
NtRp410
(dp411
g74
(dp412
g101
g102
ssg83
g401
sg76
(lp413
S':'
asbag69
(g90
g71
NtRp414
(dp415
g74
(dp416
sg83
g401
sg76
(lp417
g69
(g70
g71
NtRp418
(dp419
g74
(dp420
g82
I3
ssg83
g414
sg76
(lp421
S''
asbasbasbag69
(g85
g71
NtRp422
(dp423
g74
(dp424
sg83
g271
sg76
(lp425
g69
(g90
g71
NtRp426
(dp427
g74
(dp428
g94
g95
ssg83
g422
sg76
(lp429
S'version'
p430
asbag69
(g90
g71
NtRp431
(dp432
g74
(dp433
g101
g102
ssg83
g422
sg76
(lp434
S':'
asbag69
(g90
g71
NtRp435
(dp436
g74
(dp437
sg83
g422
sg76
(lp438
g69
(g70
g71
NtRp439
(dp440
g74
(dp441
g82
I3
ssg83
g435
sg76
(lp442
S''
asbasbasbasbasbasbasbag69
(g85
g71
NtRp443
(dp444
g74
(dp445
sg83
g246
sg76
(lp446
g69
(g90
g71
NtRp447
(dp448
g74
(dp449
g94
g95
ssg83
g443
sg76
(lp450
S'session_id_profile'
p451
asbag69
(g90
g71
NtRp452
(dp453
g74
(dp454
g101
g102
ssg83
g443
sg76
(lp455
S':'
asbag69
(g90
g71
NtRp456
(dp457
g74
(dp458
sg83
g443
sg76
(lp459
g69
(g70
g71
NtRp460
(dp461
g74
(dp462
g82
I4
ssg83
g456
sg76
(lp463
g69
(g78
g71
NtRp464
(dp465
g74
(dp466
g82
I3
ssg83
Nsg76
(lp467
g69
(g85
g71
NtRp468
(dp469
g74
(dp470
sg83
g464
sg76
(lp471
g69
(g90
g71
NtRp472
(dp473
g74
(dp474
g94
g95
ssg83
g468
sg76
(lp475
g283
asbag69
(g90
g71
NtRp476
(dp477
g74
(dp478
g101
g102
ssg83
g468
sg76
(lp479
S':'
asbag69
(g90
g71
NtRp480
(dp481
g74
(dp482
sg83
g468
sg76
(lp483
g69
(g70
g71
NtRp484
(dp485
g74
(dp486
g82
I3
ssg83
g480
sg76
(lp487
S''
asbasbasbag69
(g85
g71
NtRp488
(dp489
g74
(dp490
sg83
g464
sg76
(lp491
g69
(g90
g71
NtRp492
(dp493
g74
(dp494
g94
g95
ssg83
g488
sg76
(lp495
g304
asbag69
(g90
g71
NtRp496
(dp497
g74
(dp498
g101
g102
ssg83
g488
sg76
(lp499
S':'
asbag69
(g90
g71
NtRp500
(dp501
g74
(dp502
sg83
g488
sg76
(lp503
g69
(g70
g71
NtRp504
(dp505
g74
(dp506
g82
I3
ssg83
g500
sg76
(lp507
S''
asbasbasbag69
(g85
g71
NtRp508
(dp509
g74
(dp510
sg83
g464
sg76
(lp511
g69
(g90
g71
NtRp512
(dp513
g74
(dp514
g94
g95
ssg83
g508
sg76
(lp515
g325
asbag69
(g90
g71
NtRp516
(dp517
g74
(dp518
g101
g102
ssg83
g508
sg76
(lp519
S':'
asbag69
(g90
g71
NtRp520
(dp521
g74
(dp522
sg83
g508
sg76
(lp523
g69
(g70
g71
NtRp524
(dp525
g74
(dp526
g82
I3
ssg83
g520
sg76
(lp527
S''
asbasbasbag69
(g85
g71
NtRp528
(dp529
g74
(dp530
sg83
g464
sg76
(lp531
g69
(g90
g71
NtRp532
(dp533
g74
(dp534
g94
g95
ssg83
g528
sg76
(lp535
g346
asbag69
(g90
g71
NtRp536
(dp537
g74
(dp538
g101
g102
ssg83
g528
sg76
(lp539
S':'
asbag69
(g90
g71
NtRp540
(dp541
g74
(dp542
sg83
g528
sg76
(lp543
g69
(g70
g71
NtRp544
(dp545
g74
(dp546
g82
I3
ssg83
g540
sg76
(lp547
S''
asbasbasbag69
(g85
g71
NtRp548
(dp549
g74
(dp550
sg83
g464
sg76
(lp551
g69
(g90
g71
NtRp552
(dp553
g74
(dp554
g94
g95
ssg83
g548
sg76
(lp555
g367
asbag69
(g90
g71
NtRp556
(dp557
g74
(dp558
g101
g102
ssg83
g548
sg76
(lp559
S':'
asbag69
(g90
g71
NtRp560
(dp561
g74
(dp562
sg83
g548
sg76
(lp563
g69
(g70
g71
NtRp564
(dp565
g74
(dp566
g82
I3
ssg83
g560
sg76
(lp567
S''
asbasbasbag69
(g85
g71
NtRp568
(dp569
g74
(dp570
sg83
g464
sg76
(lp571
g69
(g90
g71
NtRp572
(dp573
g74
(dp574
g94
g95
ssg83
g568
sg76
(lp575
g388
asbag69
(g90
g71
NtRp576
(dp577
g74
(dp578
g101
g102
ssg83
g568
sg76
(lp579
S':'
asbag69
(g90
g71
NtRp580
(dp581
g74
(dp582
sg83
g568
sg76
(lp583
g69
(g70
g71
NtRp584
(dp585
g74
(dp586
g82
I3
ssg83
g580
sg76
(lp587
S''
asbasbasbag69
(g85
g71
NtRp588
(dp589
g74
(dp590
sg83
g464
sg76
(lp591
g69
(g90
g71
NtRp592
(dp593
g74
(dp594
g94
g95
ssg83
g588
sg76
(lp595
g409
asbag69
(g90
g71
NtRp596
(dp597
g74
(dp598
g101
g102
ssg83
g588
sg76
(lp599
S':'
asbag69
(g90
g71
NtRp600
(dp601
g74
(dp602
sg83
g588
sg76
(lp603
g69
(g70
g71
NtRp604
(dp605
g74
(dp606
g82
I3
ssg83
g600
sg76
(lp607
S''
asbasbasbag69
(g85
g71
NtRp608
(dp609
g74
(dp610
sg83
g464
sg76
(lp611
g69
(g90
g71
NtRp612
(dp613
g74
(dp614
g94
g95
ssg83
g608
sg76
(lp615
g430
asbag69
(g90
g71
NtRp616
(dp617
g74
(dp618
g101
g102
ssg83
g608
sg76
(lp619
S':'
asbag69
(g90
g71
NtRp620
(dp621
g74
(dp622
sg83
g608
sg76
(lp623
g69
(g70
g71
NtRp624
(dp625
g74
(dp626
g82
I3
ssg83
g620
sg76
(lp627
S''
asbasbasbasbasbasbasbasbasbasbasbag69
(g85
g71
NtRp628
(dp629
g74
(dp630
sg83
g79
sg76
(lp631
g69
(g90
g71
NtRp632
(dp633
g74
(dp634
g94
g95
ssg83
g628
sg76
(lp635
S'env'
p636
asbag69
(g90
g71
NtRp637
(dp638
g74
(dp639
g101
g102
ssg83
g628
sg76
(lp640
S':'
asbag69
(g90
g71
NtRp641
(dp642
g74
(dp643
sg83
g628
sg76
(lp644
g69
(g70
g71
NtRp645
(dp646
g74
(dp647
g82
I5
ssg83
g641
sg76
(lp648
g69
(g78
g71
NtRp649
(dp650
g74
(dp651
g82
I4
ssg83
Nsg76
(lp652
g69
(g85
g71
NtRp653
(dp654
g74
(dp655
sg83
g649
sg76
(lp656
g69
(g90
g71
NtRp657
(dp658
g74
(dp659
g94
g95
ssg83
g653
sg76
(lp660
S'app_folders'
p661
asbag69
(g90
g71
NtRp662
(dp663
g74
(dp664
g101
g102
ssg83
g653
sg76
(lp665
S':'
asbag69
(g90
g71
NtRp666
(dp667
g74
(dp668
sg83
g653
sg76
(lp669
g69
(g70
g71
NtRp670
(dp671
g74
(dp672
g82
I4
ssg83
g666
sg76
(lp673
S"set(['C:\\\\webapps\\\\ben\\\\project\\\\profile\\\\web2py\\\\applications\\\\profile\\\\', 'C:\\\\webapps\\\\ben\\\\project\\\\profile\\\\web2py\\\\applications\\\\admin\\\\'])"
p674
asbasbasbag69
(g85
g71
NtRp675
(dp676
g74
(dp677
sg83
g649
sg76
(lp678
g69
(g90
g71
NtRp679
(dp680
g74
(dp681
g94
g95
ssg83
g675
sg76
(lp682
S'applications_parent'
p683
asbag69
(g90
g71
NtRp684
(dp685
g74
(dp686
g101
g102
ssg83
g675
sg76
(lp687
S':'
asbag69
(g90
g71
NtRp688
(dp689
g74
(dp690
sg83
g675
sg76
(lp691
g69
(g70
g71
NtRp692
(dp693
g74
(dp694
g82
I4
ssg83
g688
sg76
(lp695
S'C:\\webapps\\ben\\project\\profile\\web2py'
p696
asbasbasbag69
(g85
g71
NtRp697
(dp698
g74
(dp699
sg83
g649
sg76
(lp700
g69
(g90
g71
NtRp701
(dp702
g74
(dp703
g94
g95
ssg83
g697
sg76
(lp704
S'cmd_args'
p705
asbag69
(g90
g71
NtRp706
(dp707
g74
(dp708
g101
g102
ssg83
g697
sg76
(lp709
S':'
asbag69
(g90
g71
NtRp710
(dp711
g74
(dp712
sg83
g697
sg76
(lp713
g69
(g70
g71
NtRp714
(dp715
g74
(dp716
g82
I4
ssg83
g710
sg76
(lp717
g69
(g78
g71
NtRp718
(dp719
g74
(dp720
g82
I3
ssg83
Nsg76
(lp721
sbasbasbasbag69
(g85
g71
NtRp722
(dp723
g74
(dp724
sg83
g649
sg76
(lp725
g69
(g90
g71
NtRp726
(dp727
g74
(dp728
g94
g95
ssg83
g722
sg76
(lp729
S'cmd_options'
p730
asbag69
(g90
g71
NtRp731
(dp732
g74
(dp733
g101
g102
ssg83
g722
sg76
(lp734
S':'
asbag69
(g90
g71
NtRp735
(dp736
g74
(dp737
sg83
g722
sg76
(lp738
g69
(g70
g71
NtRp739
(dp740
g74
(dp741
g82
I4
ssg83
g735
sg76
(lp742
S"<Values at 0x3640588: {'verbose': False, 'ip': '127.0.0.1', 'shutdown_timeout': 5, 'taskbar': False, 'nocron': False, 'pid_filename': 'httpserver.pid', 'maxthreads': None, 'softcron': False, 'server_name': 'Sablasticus-hp', 'bpython': False, 'nogui': False, 'port': 8000, 'extcron': False, 'debuglevel': 30, 'test': None, 'folder': 'C:\\\\webapps\\\\ben\\\\project\\\\profile\\\\web2py', 'config': '', 'import_models': False, 'winservice': '', 'shell': None, 'run': '', 'log_filename': 'httpserver.log', 'args': [''], 'socket_timeout': 1, 'ssl_ca_certificate': None, 'scheduler': None, 'profiler_filename': None, 'ssl_private_key': '', 'password': '<ask>', 'request_queue_size': 5, 'ssl_certificate': '', 'cronjob': False, 'numthreads': None, 'quiet': False, 'interfaces': None, 'minthreads': None, 'timeout': 10, 'plain': False, 'nobanner': False}>"
p743
asbasbasbag69
(g85
g71
NtRp744
(dp745
g74
(dp746
sg83
g649
sg76
(lp747
g69
(g90
g71
NtRp748
(dp749
g74
(dp750
g94
g95
ssg83
g744
sg76
(lp751
S'db_sessions'
p752
asbag69
(g90
g71
NtRp753
(dp754
g74
(dp755
g101
g102
ssg83
g744
sg76
(lp756
S':'
asbag69
(g90
g71
NtRp757
(dp758
g74
(dp759
sg83
g744
sg76
(lp760
g69
(g70
g71
NtRp761
(dp762
g74
(dp763
g82
I4
ssg83
g757
sg76
(lp764
S'set([])'
p765
asbasbasbag69
(g85
g71
NtRp766
(dp767
g74
(dp768
sg83
g649
sg76
(lp769
g69
(g90
g71
NtRp770
(dp771
g74
(dp772
g94
g95
ssg83
g766
sg76
(lp773
S'debugging'
p774
asbag69
(g90
g71
NtRp775
(dp776
g74
(dp777
g101
g102
ssg83
g766
sg76
(lp778
S':'
asbag69
(g90
g71
NtRp779
(dp780
g74
(dp781
sg83
g766
sg76
(lp782
g69
(g70
g71
NtRp783
(dp784
g74
(dp785
g82
I4
ssg83
g779
sg76
(lp786
g112
asbasbasbag69
(g85
g71
NtRp787
(dp788
g74
(dp789
sg83
g649
sg76
(lp790
g69
(g90
g71
NtRp791
(dp792
g74
(dp793
g94
g95
ssg83
g787
sg76
(lp794
S'gluon_parent'
p795
asbag69
(g90
g71
NtRp796
(dp797
g74
(dp798
g101
g102
ssg83
g787
sg76
(lp799
S':'
asbag69
(g90
g71
NtRp800
(dp801
g74
(dp802
sg83
g787
sg76
(lp803
g69
(g70
g71
NtRp804
(dp805
g74
(dp806
g82
I4
ssg83
g800
sg76
(lp807
S'C:\\webapps\\ben\\project\\profile\\web2py'
p808
asbasbasbag69
(g85
g71
NtRp809
(dp810
g74
(dp811
sg83
g649
sg76
(lp812
g69
(g90
g71
NtRp813
(dp814
g74
(dp815
g94
g95
ssg83
g809
sg76
(lp816
S'http_accept'
p817
asbag69
(g90
g71
NtRp818
(dp819
g74
(dp820
g101
g102
ssg83
g809
sg76
(lp821
S':'
asbag69
(g90
g71
NtRp822
(dp823
g74
(dp824
sg83
g809
sg76
(lp825
g69
(g70
g71
NtRp826
(dp827
g74
(dp828
g82
I4
ssg83
g822
sg76
(lp829
S'text/html,application/xhtml+xml,application/xml;q=0.9,*/*;q=0.8'
p830
asbasbasbag69
(g85
g71
NtRp831
(dp832
g74
(dp833
sg83
g649
sg76
(lp834
g69
(g90
g71
NtRp835
(dp836
g74
(dp837
g94
g95
ssg83
g831
sg76
(lp838
S'http_accept_charset'
p839
asbag69
(g90
g71
NtRp840
(dp841
g74
(dp842
g101
g102
ssg83
g831
sg76
(lp843
S':'
asbag69
(g90
g71
NtRp844
(dp845
g74
(dp846
sg83
g831
sg76
(lp847
g69
(g70
g71
NtRp848
(dp849
g74
(dp850
g82
I4
ssg83
g844
sg76
(lp851
S'ISO-8859-1,utf-8;q=0.7,*;q=0.3'
p852
asbasbasbag69
(g85
g71
NtRp853
(dp854
g74
(dp855
sg83
g649
sg76
(lp856
g69
(g90
g71
NtRp857
(dp858
g74
(dp859
g94
g95
ssg83
g853
sg76
(lp860
S'http_accept_encoding'
p861
asbag69
(g90
g71
NtRp862
(dp863
g74
(dp864
g101
g102
ssg83
g853
sg76
(lp865
S':'
asbag69
(g90
g71
NtRp866
(dp867
g74
(dp868
sg83
g853
sg76
(lp869
g69
(g70
g71
NtRp870
(dp871
g74
(dp872
g82
I4
ssg83
g866
sg76
(lp873
S'gzip,deflate,sdch'
p874
asbasbasbag69
(g85
g71
NtRp875
(dp876
g74
(dp877
sg83
g649
sg76
(lp878
g69
(g90
g71
NtRp879
(dp880
g74
(dp881
g94
g95
ssg83
g875
sg76
(lp882
S'http_accept_language'
p883
asbag69
(g90
g71
NtRp884
(dp885
g74
(dp886
g101
g102
ssg83
g875
sg76
(lp887
S':'
asbag69
(g90
g71
NtRp888
(dp889
g74
(dp890
sg83
g875
sg76
(lp891
g69
(g70
g71
NtRp892
(dp893
g74
(dp894
g82
I4
ssg83
g888
sg76
(lp895
S'en-GB,en-US;q=0.8,en;q=0.6'
p896
asbasbasbag69
(g85
g71
NtRp897
(dp898
g74
(dp899
sg83
g649
sg76
(lp900
g69
(g90
g71
NtRp901
(dp902
g74
(dp903
g94
g95
ssg83
g897
sg76
(lp904
S'http_cache_control'
p905
asbag69
(g90
g71
NtRp906
(dp907
g74
(dp908
g101
g102
ssg83
g897
sg76
(lp909
S':'
asbag69
(g90
g71
NtRp910
(dp911
g74
(dp912
sg83
g897
sg76
(lp913
g69
(g70
g71
NtRp914
(dp915
g74
(dp916
g82
I4
ssg83
g910
sg76
(lp917
S'max-age=0'
p918
asbasbasbag69
(g85
g71
NtRp919
(dp920
g74
(dp921
sg83
g649
sg76
(lp922
g69
(g90
g71
NtRp923
(dp924
g74
(dp925
g94
g95
ssg83
g919
sg76
(lp926
S'http_connection'
p927
asbag69
(g90
g71
NtRp928
(dp929
g74
(dp930
g101
g102
ssg83
g919
sg76
(lp931
S':'
asbag69
(g90
g71
NtRp932
(dp933
g74
(dp934
sg83
g919
sg76
(lp935
g69
(g70
g71
NtRp936
(dp937
g74
(dp938
g82
I4
ssg83
g932
sg76
(lp939
S'keep-alive'
p940
asbasbasbag69
(g85
g71
NtRp941
(dp942
g74
(dp943
sg83
g649
sg76
(lp944
g69
(g90
g71
NtRp945
(dp946
g74
(dp947
g94
g95
ssg83
g941
sg76
(lp948
S'http_cookie'
p949
asbag69
(g90
g71
NtRp950
(dp951
g74
(dp952
g101
g102
ssg83
g941
sg76
(lp953
S':'
asbag69
(g90
g71
NtRp954
(dp955
g74
(dp956
sg83
g941
sg76
(lp957
g69
(g70
g71
NtRp958
(dp959
g74
(dp960
g82
I4
ssg83
g954
sg76
(lp961
S'__utma=96992031.1341095576.1342842403.1350749135.1350757383.77; __utmz=96992031.1342842403.1.1.utmcsr=(direct)|utmccn=(direct)|utmcmd=(none); session_id_admin=127.0.0.1-85446b07-0ecd-49b4-8a98-5742a10da9cd; session_id_profile=127.0.0.1-45f8cfea-1464-4be7-b33a-376d11f1fa04'
p962
asbasbasbag69
(g85
g71
NtRp963
(dp964
g74
(dp965
sg83
g649
sg76
(lp966
g69
(g90
g71
NtRp967
(dp968
g74
(dp969
g94
g95
ssg83
g963
sg76
(lp970
S'http_host'
p971
asbag69
(g90
g71
NtRp972
(dp973
g74
(dp974
g101
g102
ssg83
g963
sg76
(lp975
S':'
asbag69
(g90
g71
NtRp976
(dp977
g74
(dp978
sg83
g963
sg76
(lp979
g69
(g70
g71
NtRp980
(dp981
g74
(dp982
g82
I4
ssg83
g976
sg76
(lp983
S'127.0.0.1:8002'
p984
asbasbasbag69
(g85
g71
NtRp985
(dp986
g74
(dp987
sg83
g649
sg76
(lp988
g69
(g90
g71
NtRp989
(dp990
g74
(dp991
g94
g95
ssg83
g985
sg76
(lp992
S'http_user_agent'
p993
asbag69
(g90
g71
NtRp994
(dp995
g74
(dp996
g101
g102
ssg83
g985
sg76
(lp997
S':'
asbag69
(g90
g71
NtRp998
(dp999
g74
(dp1000
sg83
g985
sg76
(lp1001
g69
(g70
g71
NtRp1002
(dp1003
g74
(dp1004
g82
I4
ssg83
g998
sg76
(lp1005
S'Mozilla/5.0 (Windows NT 6.1; WOW64) AppleWebKit/537.4 (KHTML, like Gecko) Chrome/22.0.1229.94 Safari/537.4'
p1006
asbasbasbag69
(g85
g71
NtRp1007
(dp1008
g74
(dp1009
sg83
g649
sg76
(lp1010
g69
(g90
g71
NtRp1011
(dp1012
g74
(dp1013
g94
g95
ssg83
g1007
sg76
(lp1014
S'is_jython'
p1015
asbag69
(g90
g71
NtRp1016
(dp1017
g74
(dp1018
g101
g102
ssg83
g1007
sg76
(lp1019
S':'
asbag69
(g90
g71
NtRp1020
(dp1021
g74
(dp1022
sg83
g1007
sg76
(lp1023
g69
(g70
g71
NtRp1024
(dp1025
g74
(dp1026
g82
I4
ssg83
g1020
sg76
(lp1027
g112
asbasbasbag69
(g85
g71
NtRp1028
(dp1029
g74
(dp1030
sg83
g649
sg76
(lp1031
g69
(g90
g71
NtRp1032
(dp1033
g74
(dp1034
g94
g95
ssg83
g1028
sg76
(lp1035
S'is_pypy'
p1036
asbag69
(g90
g71
NtRp1037
(dp1038
g74
(dp1039
g101
g102
ssg83
g1028
sg76
(lp1040
S':'
asbag69
(g90
g71
NtRp1041
(dp1042
g74
(dp1043
sg83
g1028
sg76
(lp1044
g69
(g70
g71
NtRp1045
(dp1046
g74
(dp1047
g82
I4
ssg83
g1041
sg76
(lp1048
g112
asbasbasbag69
(g85
g71
NtRp1049
(dp1050
g74
(dp1051
sg83
g649
sg76
(lp1052
g69
(g90
g71
NtRp1053
(dp1054
g74
(dp1055
g94
g95
ssg83
g1049
sg76
(lp1056
S'path_info'
p1057
asbag69
(g90
g71
NtRp1058
(dp1059
g74
(dp1060
g101
g102
ssg83
g1049
sg76
(lp1061
S':'
asbag69
(g90
g71
NtRp1062
(dp1063
g74
(dp1064
sg83
g1049
sg76
(lp1065
g69
(g70
g71
NtRp1066
(dp1067
g74
(dp1068
g82
I4
ssg83
g1062
sg76
(lp1069
S'/profile/fun/index'
p1070
asbasbasbag69
(g85
g71
NtRp1071
(dp1072
g74
(dp1073
sg83
g649
sg76
(lp1074
g69
(g90
g71
NtRp1075
(dp1076
g74
(dp1077
g94
g95
ssg83
g1071
sg76
(lp1078
S'query_string'
p1079
asbag69
(g90
g71
NtRp1080
(dp1081
g74
(dp1082
g101
g102
ssg83
g1071
sg76
(lp1083
S':'
asbag69
(g90
g71
NtRp1084
(dp1085
g74
(dp1086
sg83
g1071
sg76
(lp1087
g69
(g70
g71
NtRp1088
(dp1089
g74
(dp1090
g82
I4
ssg83
g1084
sg76
(lp1091
S''
asbasbasbag69
(g85
g71
NtRp1092
(dp1093
g74
(dp1094
sg83
g649
sg76
(lp1095
g69
(g90
g71
NtRp1096
(dp1097
g74
(dp1098
g94
g95
ssg83
g1092
sg76
(lp1099
S'remote_addr'
p1100
asbag69
(g90
g71
NtRp1101
(dp1102
g74
(dp1103
g101
g102
ssg83
g1092
sg76
(lp1104
S':'
asbag69
(g90
g71
NtRp1105
(dp1106
g74
(dp1107
sg83
g1092
sg76
(lp1108
g69
(g70
g71
NtRp1109
(dp1110
g74
(dp1111
g82
I4
ssg83
g1105
sg76
(lp1112
g202
asbasbasbag69
(g85
g71
NtRp1113
(dp1114
g74
(dp1115
sg83
g649
sg76
(lp1116
g69
(g90
g71
NtRp1117
(dp1118
g74
(dp1119
g94
g95
ssg83
g1113
sg76
(lp1120
S'remote_port'
p1121
asbag69
(g90
g71
NtRp1122
(dp1123
g74
(dp1124
g101
g102
ssg83
g1113
sg76
(lp1125
S':'
asbag69
(g90
g71
NtRp1126
(dp1127
g74
(dp1128
sg83
g1113
sg76
(lp1129
g69
(g70
g71
NtRp1130
(dp1131
g74
(dp1132
g82
I4
ssg83
g1126
sg76
(lp1133
S'51274'
p1134
asbasbasbag69
(g85
g71
NtRp1135
(dp1136
g74
(dp1137
sg83
g649
sg76
(lp1138
g69
(g90
g71
NtRp1139
(dp1140
g74
(dp1141
g94
g95
ssg83
g1135
sg76
(lp1142
S'request_method'
p1143
asbag69
(g90
g71
NtRp1144
(dp1145
g74
(dp1146
g101
g102
ssg83
g1135
sg76
(lp1147
S':'
asbag69
(g90
g71
NtRp1148
(dp1149
g74
(dp1150
sg83
g1135
sg76
(lp1151
g69
(g70
g71
NtRp1152
(dp1153
g74
(dp1154
g82
I4
ssg83
g1148
sg76
(lp1155
S'GET'
p1156
asbasbasbag69
(g85
g71
NtRp1157
(dp1158
g74
(dp1159
sg83
g649
sg76
(lp1160
g69
(g90
g71
NtRp1161
(dp1162
g74
(dp1163
g94
g95
ssg83
g1157
sg76
(lp1164
S'request_uri'
p1165
asbag69
(g90
g71
NtRp1166
(dp1167
g74
(dp1168
g101
g102
ssg83
g1157
sg76
(lp1169
S':'
asbag69
(g90
g71
NtRp1170
(dp1171
g74
(dp1172
sg83
g1157
sg76
(lp1173
g69
(g70
g71
NtRp1174
(dp1175
g74
(dp1176
g82
I4
ssg83
g1170
sg76
(lp1177
g1070
asbasbasbag69
(g85
g71
NtRp1178
(dp1179
g74
(dp1180
sg83
g649
sg76
(lp1181
g69
(g90
g71
NtRp1182
(dp1183
g74
(dp1184
g94
g95
ssg83
g1178
sg76
(lp1185
S'script_name'
p1186
asbag69
(g90
g71
NtRp1187
(dp1188
g74
(dp1189
g101
g102
ssg83
g1178
sg76
(lp1190
S':'
asbag69
(g90
g71
NtRp1191
(dp1192
g74
(dp1193
sg83
g1178
sg76
(lp1194
g69
(g70
g71
NtRp1195
(dp1196
g74
(dp1197
g82
I4
ssg83
g1191
sg76
(lp1198
S''
asbasbasbag69
(g85
g71
NtRp1199
(dp1200
g74
(dp1201
sg83
g649
sg76
(lp1202
g69
(g90
g71
NtRp1203
(dp1204
g74
(dp1205
g94
g95
ssg83
g1199
sg76
(lp1206
S'server_name'
p1207
asbag69
(g90
g71
NtRp1208
(dp1209
g74
(dp1210
g101
g102
ssg83
g1199
sg76
(lp1211
S':'
asbag69
(g90
g71
NtRp1212
(dp1213
g74
(dp1214
sg83
g1199
sg76
(lp1215
g69
(g70
g71
NtRp1216
(dp1217
g74
(dp1218
g82
I4
ssg83
g1212
sg76
(lp1219
S'Sablasticus-hp'
p1220
asbasbasbag69
(g85
g71
NtRp1221
(dp1222
g74
(dp1223
sg83
g649
sg76
(lp1224
g69
(g90
g71
NtRp1225
(dp1226
g74
(dp1227
g94
g95
ssg83
g1221
sg76
(lp1228
S'server_port'
p1229
asbag69
(g90
g71
NtRp1230
(dp1231
g74
(dp1232
g101
g102
ssg83
g1221
sg76
(lp1233
S':'
asbag69
(g90
g71
NtRp1234
(dp1235
g74
(dp1236
sg83
g1221
sg76
(lp1237
g69
(g70
g71
NtRp1238
(dp1239
g74
(dp1240
g82
I4
ssg83
g1234
sg76
(lp1241
S'8002'
p1242
asbasbasbag69
(g85
g71
NtRp1243
(dp1244
g74
(dp1245
sg83
g649
sg76
(lp1246
g69
(g90
g71
NtRp1247
(dp1248
g74
(dp1249
g94
g95
ssg83
g1243
sg76
(lp1250
S'server_protocol'
p1251
asbag69
(g90
g71
NtRp1252
(dp1253
g74
(dp1254
g101
g102
ssg83
g1243
sg76
(lp1255
S':'
asbag69
(g90
g71
NtRp1256
(dp1257
g74
(dp1258
sg83
g1243
sg76
(lp1259
g69
(g70
g71
NtRp1260
(dp1261
g74
(dp1262
g82
I4
ssg83
g1256
sg76
(lp1263
S'HTTP/1.1'
p1264
asbasbasbag69
(g85
g71
NtRp1265
(dp1266
g74
(dp1267
sg83
g649
sg76
(lp1268
g69
(g90
g71
NtRp1269
(dp1270
g74
(dp1271
g94
g95
ssg83
g1265
sg76
(lp1272
S'server_software'
p1273
asbag69
(g90
g71
NtRp1274
(dp1275
g74
(dp1276
g101
g102
ssg83
g1265
sg76
(lp1277
S':'
asbag69
(g90
g71
NtRp1278
(dp1279
g74
(dp1280
sg83
g1265
sg76
(lp1281
g69
(g70
g71
NtRp1282
(dp1283
g74
(dp1284
g82
I4
ssg83
g1278
sg76
(lp1285
S'Rocket 1.2.4'
p1286
asbasbasbag69
(g85
g71
NtRp1287
(dp1288
g74
(dp1289
sg83
g649
sg76
(lp1290
g69
(g90
g71
NtRp1291
(dp1292
g74
(dp1293
g94
g95
ssg83
g1287
sg76
(lp1294
S'web2py_crontype'
p1295
asbag69
(g90
g71
NtRp1296
(dp1297
g74
(dp1298
g101
g102
ssg83
g1287
sg76
(lp1299
S':'
asbag69
(g90
g71
NtRp1300
(dp1301
g74
(dp1302
sg83
g1287
sg76
(lp1303
g69
(g70
g71
NtRp1304
(dp1305
g74
(dp1306
g82
I4
ssg83
g1300
sg76
(lp1307
S'hard'
p1308
asbasbasbag69
(g85
g71
NtRp1309
(dp1310
g74
(dp1311
sg83
g649
sg76
(lp1312
g69
(g90
g71
NtRp1313
(dp1314
g74
(dp1315
g94
g95
ssg83
g1309
sg76
(lp1316
S'web2py_original_uri'
p1317
asbag69
(g90
g71
NtRp1318
(dp1319
g74
(dp1320
g101
g102
ssg83
g1309
sg76
(lp1321
S':'
asbag69
(g90
g71
NtRp1322
(dp1323
g74
(dp1324
sg83
g1309
sg76
(lp1325
g69
(g70
g71
NtRp1326
(dp1327
g74
(dp1328
g82
I4
ssg83
g1322
sg76
(lp1329
g1070
asbasbasbag69
(g85
g71
NtRp1330
(dp1331
g74
(dp1332
sg83
g649
sg76
(lp1333
g69
(g90
g71
NtRp1334
(dp1335
g74
(dp1336
g94
g95
ssg83
g1330
sg76
(lp1337
S'web2py_path'
p1338
asbag69
(g90
g71
NtRp1339
(dp1340
g74
(dp1341
g101
g102
ssg83
g1330
sg76
(lp1342
S':'
asbag69
(g90
g71
NtRp1343
(dp1344
g74
(dp1345
sg83
g1330
sg76
(lp1346
g69
(g70
g71
NtRp1347
(dp1348
g74
(dp1349
g82
I4
ssg83
g1343
sg76
(lp1350
g696
asbasbasbag69
(g85
g71
NtRp1351
(dp1352
g74
(dp1353
sg83
g649
sg76
(lp1354
g69
(g90
g71
NtRp1355
(dp1356
g74
(dp1357
g94
g95
ssg83
g1351
sg76
(lp1358
S'web2py_version'
p1359
asbag69
(g90
g71
NtRp1360
(dp1361
g74
(dp1362
g101
g102
ssg83
g1351
sg76
(lp1363
S':'
asbag69
(g90
g71
NtRp1364
(dp1365
g74
(dp1366
sg83
g1351
sg76
(lp1367
g69
(g70
g71
NtRp1368
(dp1369
g74
(dp1370
g82
I4
ssg83
g1364
sg76
(lp1371
g69
(g78
g71
NtRp1372
(dp1373
g74
(dp1374
g82
I3
ssg83
Nsg76
(lp1375
g69
(g85
g71
NtRp1376
(dp1377
g74
(dp1378
sg83
g1372
sg76
(lp1379
g69
(g90
g71
NtRp1380
(dp1381
g74
(dp1382
sg83
g1376
sg76
(lp1383
g69
(g70
g71
NtRp1384
(dp1385
g74
(dp1386
g82
I3
ssg83
g1380
sg76
(lp1387
S'1'
asbasbasbag69
(g85
g71
NtRp1388
(dp1389
g74
(dp1390
sg83
g1372
sg76
(lp1391
g69
(g90
g71
NtRp1392
(dp1393
g74
(dp1394
sg83
g1388
sg76
(lp1395
g69
(g70
g71
NtRp1396
(dp1397
g74
(dp1398
g82
I3
ssg83
g1392
sg76
(lp1399
S'99'
p1400
asbasbasbag69
(g85
g71
NtRp1401
(dp1402
g74
(dp1403
sg83
g1372
sg76
(lp1404
g69
(g90
g71
NtRp1405
(dp1406
g74
(dp1407
sg83
g1401
sg76
(lp1408
g69
(g70
g71
NtRp1409
(dp1410
g74
(dp1411
g82
I3
ssg83
g1405
sg76
(lp1412
S'4'
asbasbasbag69
(g85
g71
NtRp1413
(dp1414
g74
(dp1415
sg83
g1372
sg76
(lp1416
g69
(g90
g71
NtRp1417
(dp1418
g74
(dp1419
sg83
g1413
sg76
(lp1420
g69
(g70
g71
NtRp1421
(dp1422
g74
(dp1423
g82
I3
ssg83
g1417
sg76
(lp1424
S'datetime.datetime(2011, 12, 14, 14, 46, 14)'
p1425
asbasbasbag69
(g85
g71
NtRp1426
(dp1427
g74
(dp1428
sg83
g1372
sg76
(lp1429
g69
(g90
g71
NtRp1430
(dp1431
g74
(dp1432
sg83
g1426
sg76
(lp1433
g69
(g70
g71
NtRp1434
(dp1435
g74
(dp1436
g82
I3
ssg83
g1430
sg76
(lp1437
S'stable'
p1438
asbasbasbasbasbasbasbag69
(g85
g71
NtRp1439
(dp1440
g74
(dp1441
sg83
g649
sg76
(lp1442
g69
(g90
g71
NtRp1443
(dp1444
g74
(dp1445
g94
g95
ssg83
g1439
sg76
(lp1446
S'wsgi_errors'
p1447
asbag69
(g90
g71
NtRp1448
(dp1449
g74
(dp1450
g101
g102
ssg83
g1439
sg76
(lp1451
S':'
asbag69
(g90
g71
NtRp1452
(dp1453
g74
(dp1454
sg83
g1439
sg76
(lp1455
g69
(g70
g71
NtRp1456
(dp1457
g74
(dp1458
g82
I4
ssg83
g1452
sg76
(lp1459
S"<open file '<stderr>', mode 'w' at 0x0000000001C8E1E0>"
p1460
asbasbasbag69
(g85
g71
NtRp1461
(dp1462
g74
(dp1463
sg83
g649
sg76
(lp1464
g69
(g90
g71
NtRp1465
(dp1466
g74
(dp1467
g94
g95
ssg83
g1461
sg76
(lp1468
S'wsgi_file_wrapper'
p1469
asbag69
(g90
g71
NtRp1470
(dp1471
g74
(dp1472
g101
g102
ssg83
g1461
sg76
(lp1473
S':'
asbag69
(g90
g71
NtRp1474
(dp1475
g74
(dp1476
sg83
g1461
sg76
(lp1477
g69
(g70
g71
NtRp1478
(dp1479
g74
(dp1480
g82
I4
ssg83
g1474
sg76
(lp1481
S'<class wsgiref.util.FileWrapper at 0x0000000003529588>'
p1482
asbasbasbag69
(g85
g71
NtRp1483
(dp1484
g74
(dp1485
sg83
g649
sg76
(lp1486
g69
(g90
g71
NtRp1487
(dp1488
g74
(dp1489
g94
g95
ssg83
g1483
sg76
(lp1490
S'wsgi_input'
p1491
asbag69
(g90
g71
NtRp1492
(dp1493
g74
(dp1494
g101
g102
ssg83
g1483
sg76
(lp1495
S':'
asbag69
(g90
g71
NtRp1496
(dp1497
g74
(dp1498
sg83
g1483
sg76
(lp1499
g69
(g70
g71
NtRp1500
(dp1501
g74
(dp1502
g82
I4
ssg83
g1496
sg76
(lp1503
S'<socket._fileobject object at 0x0000000006316ED0>'
p1504
asbasbasbag69
(g85
g71
NtRp1505
(dp1506
g74
(dp1507
sg83
g649
sg76
(lp1508
g69
(g90
g71
NtRp1509
(dp1510
g74
(dp1511
g94
g95
ssg83
g1505
sg76
(lp1512
S'wsgi_multiprocess'
p1513
asbag69
(g90
g71
NtRp1514
(dp1515
g74
(dp1516
g101
g102
ssg83
g1505
sg76
(lp1517
S':'
asbag69
(g90
g71
NtRp1518
(dp1519
g74
(dp1520
sg83
g1505
sg76
(lp1521
g69
(g70
g71
NtRp1522
(dp1523
g74
(dp1524
g82
I4
ssg83
g1518
sg76
(lp1525
g112
asbasbasbag69
(g85
g71
NtRp1526
(dp1527
g74
(dp1528
sg83
g649
sg76
(lp1529
g69
(g90
g71
NtRp1530
(dp1531
g74
(dp1532
g94
g95
ssg83
g1526
sg76
(lp1533
S'wsgi_multithread'
p1534
asbag69
(g90
g71
NtRp1535
(dp1536
g74
(dp1537
g101
g102
ssg83
g1526
sg76
(lp1538
S':'
asbag69
(g90
g71
NtRp1539
(dp1540
g74
(dp1541
sg83
g1526
sg76
(lp1542
g69
(g70
g71
NtRp1543
(dp1544
g74
(dp1545
g82
I4
ssg83
g1539
sg76
(lp1546
S'True'
p1547
asbasbasbag69
(g85
g71
NtRp1548
(dp1549
g74
(dp1550
sg83
g649
sg76
(lp1551
g69
(g90
g71
NtRp1552
(dp1553
g74
(dp1554
g94
g95
ssg83
g1548
sg76
(lp1555
S'wsgi_run_once'
p1556
asbag69
(g90
g71
NtRp1557
(dp1558
g74
(dp1559
g101
g102
ssg83
g1548
sg76
(lp1560
S':'
asbag69
(g90
g71
NtRp1561
(dp1562
g74
(dp1563
sg83
g1548
sg76
(lp1564
g69
(g70
g71
NtRp1565
(dp1566
g74
(dp1567
g82
I4
ssg83
g1561
sg76
(lp1568
g112
asbasbasbag69
(g85
g71
NtRp1569
(dp1570
g74
(dp1571
sg83
g649
sg76
(lp1572
g69
(g90
g71
NtRp1573
(dp1574
g74
(dp1575
g94
g95
ssg83
g1569
sg76
(lp1576
S'wsgi_url_scheme'
p1577
asbag69
(g90
g71
NtRp1578
(dp1579
g74
(dp1580
g101
g102
ssg83
g1569
sg76
(lp1581
S':'
asbag69
(g90
g71
NtRp1582
(dp1583
g74
(dp1584
sg83
g1569
sg76
(lp1585
g69
(g70
g71
NtRp1586
(dp1587
g74
(dp1588
g82
I4
ssg83
g1582
sg76
(lp1589
S'http'
p1590
asbasbasbag69
(g85
g71
NtRp1591
(dp1592
g74
(dp1593
sg83
g649
sg76
(lp1594
g69
(g90
g71
NtRp1595
(dp1596
g74
(dp1597
g94
g95
ssg83
g1591
sg76
(lp1598
S'wsgi_version'
p1599
asbag69
(g90
g71
NtRp1600
(dp1601
g74
(dp1602
g101
g102
ssg83
g1591
sg76
(lp1603
S':'
asbag69
(g90
g71
NtRp1604
(dp1605
g74
(dp1606
sg83
g1591
sg76
(lp1607
g69
(g70
g71
NtRp1608
(dp1609
g74
(dp1610
g82
I4
ssg83
g1604
sg76
(lp1611
g69
(g78
g71
NtRp1612
(dp1613
g74
(dp1614
g82
I3
ssg83
Nsg76
(lp1615
g69
(g85
g71
NtRp1616
(dp1617
g74
(dp1618
sg83
g1612
sg76
(lp1619
g69
(g90
g71
NtRp1620
(dp1621
g74
(dp1622
sg83
g1616
sg76
(lp1623
g69
(g70
g71
NtRp1624
(dp1625
g74
(dp1626
g82
I3
ssg83
g1620
sg76
(lp1627
S'1'
asbasbasbag69
(g85
g71
NtRp1628
(dp1629
g74
(dp1630
sg83
g1612
sg76
(lp1631
g69
(g90
g71
NtRp1632
(dp1633
g74
(dp1634
sg83
g1628
sg76
(lp1635
g69
(g70
g71
NtRp1636
(dp1637
g74
(dp1638
g82
I3
ssg83
g1632
sg76
(lp1639
S'0'
asbasbasbasbasbasbasbasbasbasbasbag69
(g85
g71
NtRp1640
(dp1641
g74
(dp1642
sg83
g79
sg76
(lp1643
g69
(g90
g71
NtRp1644
(dp1645
g74
(dp1646
g94
g95
ssg83
g1640
sg76
(lp1647
S'extension'
p1648
asbag69
(g90
g71
NtRp1649
(dp1650
g74
(dp1651
g101
g102
ssg83
g1640
sg76
(lp1652
S':'
asbag69
(g90
g71
NtRp1653
(dp1654
g74
(dp1655
sg83
g1640
sg76
(lp1656
g69
(g70
g71
NtRp1657
(dp1658
g74
(dp1659
g82
I5
ssg83
g1653
sg76
(lp1660
S'html'
p1661
asbasbasbag69
(g85
g71
NtRp1662
(dp1663
g74
(dp1664
sg83
g79
sg76
(lp1665
g69
(g90
g71
NtRp1666
(dp1667
g74
(dp1668
g94
g95
ssg83
g1662
sg76
(lp1669
S'folder'
p1670
asbag69
(g90
g71
NtRp1671
(dp1672
g74
(dp1673
g101
g102
ssg83
g1662
sg76
(lp1674
S':'
asbag69
(g90
g71
NtRp1675
(dp1676
g74
(dp1677
sg83
g1662
sg76
(lp1678
g69
(g70
g71
NtRp1679
(dp1680
g74
(dp1681
g82
I5
ssg83
g1675
sg76
(lp1682
S'C:\\webapps\\ben\\project\\profile\\web2py\\applications\\profile\\'
p1683
asbasbasbag69
(g85
g71
NtRp1684
(dp1685
g74
(dp1686
sg83
g79
sg76
(lp1687
g69
(g90
g71
NtRp1688
(dp1689
g74
(dp1690
g94
g95
ssg83
g1684
sg76
(lp1691
S'function'
p1692
asbag69
(g90
g71
NtRp1693
(dp1694
g74
(dp1695
g101
g102
ssg83
g1684
sg76
(lp1696
S':'
asbag69
(g90
g71
NtRp1697
(dp1698
g74
(dp1699
sg83
g1684
sg76
(lp1700
g69
(g70
g71
NtRp1701
(dp1702
g74
(dp1703
g82
I5
ssg83
g1697
sg76
(lp1704
S'index'
p1705
asbasbasbag69
(g85
g71
NtRp1706
(dp1707
g74
(dp1708
sg83
g79
sg76
(lp1709
g69
(g90
g71
NtRp1710
(dp1711
g74
(dp1712
g94
g95
ssg83
g1706
sg76
(lp1713
S'get_vars'
p1714
asbag69
(g90
g71
NtRp1715
(dp1716
g74
(dp1717
g101
g102
ssg83
g1706
sg76
(lp1718
S':'
asbag69
(g90
g71
NtRp1719
(dp1720
g74
(dp1721
sg83
g1706
sg76
(lp1722
g69
(g70
g71
NtRp1723
(dp1724
g74
(dp1725
g82
I5
ssg83
g1719
sg76
(lp1726
g69
(g78
g71
NtRp1727
(dp1728
g74
(dp1729
g82
I4
ssg83
Nsg76
(lp1730
sbasbasbasbag69
(g85
g71
NtRp1731
(dp1732
g74
(dp1733
sg83
g79
sg76
(lp1734
g69
(g90
g71
NtRp1735
(dp1736
g74
(dp1737
g94
g95
ssg83
g1731
sg76
(lp1738
S'global_settings'
p1739
asbag69
(g90
g71
NtRp1740
(dp1741
g74
(dp1742
g101
g102
ssg83
g1731
sg76
(lp1743
S':'
asbag69
(g90
g71
NtRp1744
(dp1745
g74
(dp1746
sg83
g1731
sg76
(lp1747
g69
(g70
g71
NtRp1748
(dp1749
g74
(dp1750
g82
I5
ssg83
g1744
sg76
(lp1751
g69
(g78
g71
NtRp1752
(dp1753
g74
(dp1754
g82
I4
ssg83
Nsg76
(lp1755
g69
(g85
g71
NtRp1756
(dp1757
g74
(dp1758
sg83
g1752
sg76
(lp1759
g69
(g90
g71
NtRp1760
(dp1761
g74
(dp1762
g94
g95
ssg83
g1756
sg76
(lp1763
g661
asbag69
(g90
g71
NtRp1764
(dp1765
g74
(dp1766
g101
g102
ssg83
g1756
sg76
(lp1767
S':'
asbag69
(g90
g71
NtRp1768
(dp1769
g74
(dp1770
sg83
g1756
sg76
(lp1771
g69
(g70
g71
NtRp1772
(dp1773
g74
(dp1774
g82
I4
ssg83
g1768
sg76
(lp1775
S"set(['C:\\\\webapps\\\\ben\\\\project\\\\profile\\\\web2py\\\\applications\\\\profile\\\\', 'C:\\\\webapps\\\\ben\\\\project\\\\profile\\\\web2py\\\\applications\\\\admin\\\\'])"
p1776
asbasbasbag69
(g85
g71
NtRp1777
(dp1778
g74
(dp1779
sg83
g1752
sg76
(lp1780
g69
(g90
g71
NtRp1781
(dp1782
g74
(dp1783
g94
g95
ssg83
g1777
sg76
(lp1784
g683
asbag69
(g90
g71
NtRp1785
(dp1786
g74
(dp1787
g101
g102
ssg83
g1777
sg76
(lp1788
S':'
asbag69
(g90
g71
NtRp1789
(dp1790
g74
(dp1791
sg83
g1777
sg76
(lp1792
g69
(g70
g71
NtRp1793
(dp1794
g74
(dp1795
g82
I4
ssg83
g1789
sg76
(lp1796
g696
asbasbasbag69
(g85
g71
NtRp1797
(dp1798
g74
(dp1799
sg83
g1752
sg76
(lp1800
g69
(g90
g71
NtRp1801
(dp1802
g74
(dp1803
g94
g95
ssg83
g1797
sg76
(lp1804
g705
asbag69
(g90
g71
NtRp1805
(dp1806
g74
(dp1807
g101
g102
ssg83
g1797
sg76
(lp1808
S':'
asbag69
(g90
g71
NtRp1809
(dp1810
g74
(dp1811
sg83
g1797
sg76
(lp1812
g69
(g70
g71
NtRp1813
(dp1814
g74
(dp1815
g82
I4
ssg83
g1809
sg76
(lp1816
g69
(g78
g71
NtRp1817
(dp1818
g74
(dp1819
g82
I3
ssg83
Nsg76
(lp1820
sbasbasbasbag69
(g85
g71
NtRp1821
(dp1822
g74
(dp1823
sg83
g1752
sg76
(lp1824
g69
(g90
g71
NtRp1825
(dp1826
g74
(dp1827
g94
g95
ssg83
g1821
sg76
(lp1828
g730
asbag69
(g90
g71
NtRp1829
(dp1830
g74
(dp1831
g101
g102
ssg83
g1821
sg76
(lp1832
S':'
asbag69
(g90
g71
NtRp1833
(dp1834
g74
(dp1835
sg83
g1821
sg76
(lp1836
g69
(g70
g71
NtRp1837
(dp1838
g74
(dp1839
g82
I4
ssg83
g1833
sg76
(lp1840
S"<Values at 0x3640588: {'verbose': False, 'ip': '127.0.0.1', 'shutdown_timeout': 5, 'taskbar': False, 'nocron': False, 'pid_filename': 'httpserver.pid', 'maxthreads': None, 'softcron': False, 'server_name': 'Sablasticus-hp', 'bpython': False, 'nogui': False, 'port': 8000, 'extcron': False, 'debuglevel': 30, 'test': None, 'folder': 'C:\\\\webapps\\\\ben\\\\project\\\\profile\\\\web2py', 'config': '', 'import_models': False, 'winservice': '', 'shell': None, 'run': '', 'log_filename': 'httpserver.log', 'args': [''], 'socket_timeout': 1, 'ssl_ca_certificate': None, 'scheduler': None, 'profiler_filename': None, 'ssl_private_key': '', 'password': '<ask>', 'request_queue_size': 5, 'ssl_certificate': '', 'cronjob': False, 'numthreads': None, 'quiet': False, 'interfaces': None, 'minthreads': None, 'timeout': 10, 'plain': False, 'nobanner': False}>"
p1841
asbasbasbag69
(g85
g71
NtRp1842
(dp1843
g74
(dp1844
sg83
g1752
sg76
(lp1845
g69
(g90
g71
NtRp1846
(dp1847
g74
(dp1848
g94
g95
ssg83
g1842
sg76
(lp1849
g752
asbag69
(g90
g71
NtRp1850
(dp1851
g74
(dp1852
g101
g102
ssg83
g1842
sg76
(lp1853
S':'
asbag69
(g90
g71
NtRp1854
(dp1855
g74
(dp1856
sg83
g1842
sg76
(lp1857
g69
(g70
g71
NtRp1858
(dp1859
g74
(dp1860
g82
I4
ssg83
g1854
sg76
(lp1861
S'set([])'
p1862
asbasbasbag69
(g85
g71
NtRp1863
(dp1864
g74
(dp1865
sg83
g1752
sg76
(lp1866
g69
(g90
g71
NtRp1867
(dp1868
g74
(dp1869
g94
g95
ssg83
g1863
sg76
(lp1870
g774
asbag69
(g90
g71
NtRp1871
(dp1872
g74
(dp1873
g101
g102
ssg83
g1863
sg76
(lp1874
S':'
asbag69
(g90
g71
NtRp1875
(dp1876
g74
(dp1877
sg83
g1863
sg76
(lp1878
g69
(g70
g71
NtRp1879
(dp1880
g74
(dp1881
g82
I4
ssg83
g1875
sg76
(lp1882
g112
asbasbasbag69
(g85
g71
NtRp1883
(dp1884
g74
(dp1885
sg83
g1752
sg76
(lp1886
g69
(g90
g71
NtRp1887
(dp1888
g74
(dp1889
g94
g95
ssg83
g1883
sg76
(lp1890
g795
asbag69
(g90
g71
NtRp1891
(dp1892
g74
(dp1893
g101
g102
ssg83
g1883
sg76
(lp1894
S':'
asbag69
(g90
g71
NtRp1895
(dp1896
g74
(dp1897
sg83
g1883
sg76
(lp1898
g69
(g70
g71
NtRp1899
(dp1900
g74
(dp1901
g82
I4
ssg83
g1895
sg76
(lp1902
g808
asbasbasbag69
(g85
g71
NtRp1903
(dp1904
g74
(dp1905
sg83
g1752
sg76
(lp1906
g69
(g90
g71
NtRp1907
(dp1908
g74
(dp1909
g94
g95
ssg83
g1903
sg76
(lp1910
g1015
asbag69
(g90
g71
NtRp1911
(dp1912
g74
(dp1913
g101
g102
ssg83
g1903
sg76
(lp1914
S':'
asbag69
(g90
g71
NtRp1915
(dp1916
g74
(dp1917
sg83
g1903
sg76
(lp1918
g69
(g70
g71
NtRp1919
(dp1920
g74
(dp1921
g82
I4
ssg83
g1915
sg76
(lp1922
g112
asbasbasbag69
(g85
g71
NtRp1923
(dp1924
g74
(dp1925
sg83
g1752
sg76
(lp1926
g69
(g90
g71
NtRp1927
(dp1928
g74
(dp1929
g94
g95
ssg83
g1923
sg76
(lp1930
g1036
asbag69
(g90
g71
NtRp1931
(dp1932
g74
(dp1933
g101
g102
ssg83
g1923
sg76
(lp1934
S':'
asbag69
(g90
g71
NtRp1935
(dp1936
g74
(dp1937
sg83
g1923
sg76
(lp1938
g69
(g70
g71
NtRp1939
(dp1940
g74
(dp1941
g82
I4
ssg83
g1935
sg76
(lp1942
g112
asbasbasbag69
(g85
g71
NtRp1943
(dp1944
g74
(dp1945
sg83
g1752
sg76
(lp1946
g69
(g90
g71
NtRp1947
(dp1948
g74
(dp1949
g94
g95
ssg83
g1943
sg76
(lp1950
g1295
asbag69
(g90
g71
NtRp1951
(dp1952
g74
(dp1953
g101
g102
ssg83
g1943
sg76
(lp1954
S':'
asbag69
(g90
g71
NtRp1955
(dp1956
g74
(dp1957
sg83
g1943
sg76
(lp1958
g69
(g70
g71
NtRp1959
(dp1960
g74
(dp1961
g82
I4
ssg83
g1955
sg76
(lp1962
g1308
asbasbasbag69
(g85
g71
NtRp1963
(dp1964
g74
(dp1965
sg83
g1752
sg76
(lp1966
g69
(g90
g71
NtRp1967
(dp1968
g74
(dp1969
g94
g95
ssg83
g1963
sg76
(lp1970
g1359
asbag69
(g90
g71
NtRp1971
(dp1972
g74
(dp1973
g101
g102
ssg83
g1963
sg76
(lp1974
S':'
asbag69
(g90
g71
NtRp1975
(dp1976
g74
(dp1977
sg83
g1963
sg76
(lp1978
g69
(g70
g71
NtRp1979
(dp1980
g74
(dp1981
g82
I4
ssg83
g1975
sg76
(lp1982
g69
(g78
g71
NtRp1983
(dp1984
g74
(dp1985
g82
I3
ssg83
Nsg76
(lp1986
g69
(g85
g71
NtRp1987
(dp1988
g74
(dp1989
sg83
g1983
sg76
(lp1990
g69
(g90
g71
NtRp1991
(dp1992
g74
(dp1993
sg83
g1987
sg76
(lp1994
g69
(g70
g71
NtRp1995
(dp1996
g74
(dp1997
g82
I3
ssg83
g1991
sg76
(lp1998
S'1'
asbasbasbag69
(g85
g71
NtRp1999
(dp2000
g74
(dp2001
sg83
g1983
sg76
(lp2002
g69
(g90
g71
NtRp2003
(dp2004
g74
(dp2005
sg83
g1999
sg76
(lp2006
g69
(g70
g71
NtRp2007
(dp2008
g74
(dp2009
g82
I3
ssg83
g2003
sg76
(lp2010
S'99'
p2011
asbasbasbag69
(g85
g71
NtRp2012
(dp2013
g74
(dp2014
sg83
g1983
sg76
(lp2015
g69
(g90
g71
NtRp2016
(dp2017
g74
(dp2018
sg83
g2012
sg76
(lp2019
g69
(g70
g71
NtRp2020
(dp2021
g74
(dp2022
g82
I3
ssg83
g2016
sg76
(lp2023
S'4'
asbasbasbag69
(g85
g71
NtRp2024
(dp2025
g74
(dp2026
sg83
g1983
sg76
(lp2027
g69
(g90
g71
NtRp2028
(dp2029
g74
(dp2030
sg83
g2024
sg76
(lp2031
g69
(g70
g71
NtRp2032
(dp2033
g74
(dp2034
g82
I3
ssg83
g2028
sg76
(lp2035
S'datetime.datetime(2011, 12, 14, 14, 46, 14)'
p2036
asbasbasbag69
(g85
g71
NtRp2037
(dp2038
g74
(dp2039
sg83
g1983
sg76
(lp2040
g69
(g90
g71
NtRp2041
(dp2042
g74
(dp2043
sg83
g2037
sg76
(lp2044
g69
(g70
g71
NtRp2045
(dp2046
g74
(dp2047
g82
I3
ssg83
g2041
sg76
(lp2048
g1438
asbasbasbasbasbasbasbasbasbasbasbag69
(g85
g71
NtRp2049
(dp2050
g74
(dp2051
sg83
g79
sg76
(lp2052
g69
(g90
g71
NtRp2053
(dp2054
g74
(dp2055
g94
g95
ssg83
g2049
sg76
(lp2056
S'is_https'
p2057
asbag69
(g90
g71
NtRp2058
(dp2059
g74
(dp2060
g101
g102
ssg83
g2049
sg76
(lp2061
S':'
asbag69
(g90
g71
NtRp2062
(dp2063
g74
(dp2064
sg83
g2049
sg76
(lp2065
g69
(g70
g71
NtRp2066
(dp2067
g74
(dp2068
g82
I5
ssg83
g2062
sg76
(lp2069
g112
asbasbasbag69
(g85
g71
NtRp2070
(dp2071
g74
(dp2072
sg83
g79
sg76
(lp2073
g69
(g90
g71
NtRp2074
(dp2075
g74
(dp2076
g94
g95
ssg83
g2070
sg76
(lp2077
S'is_local'
p2078
asbag69
(g90
g71
NtRp2079
(dp2080
g74
(dp2081
g101
g102
ssg83
g2070
sg76
(lp2082
S':'
asbag69
(g90
g71
NtRp2083
(dp2084
g74
(dp2085
sg83
g2070
sg76
(lp2086
g69
(g70
g71
NtRp2087
(dp2088
g74
(dp2089
g82
I5
ssg83
g2083
sg76
(lp2090
g1547
asbasbasbag69
(g85
g71
NtRp2091
(dp2092
g74
(dp2093
sg83
g79
sg76
(lp2094
g69
(g90
g71
NtRp2095
(dp2096
g74
(dp2097
g94
g95
ssg83
g2091
sg76
(lp2098
S'is_restful'
p2099
asbag69
(g90
g71
NtRp2100
(dp2101
g74
(dp2102
g101
g102
ssg83
g2091
sg76
(lp2103
S':'
asbag69
(g90
g71
NtRp2104
(dp2105
g74
(dp2106
sg83
g2091
sg76
(lp2107
g69
(g70
g71
NtRp2108
(dp2109
g74
(dp2110
g82
I5
ssg83
g2104
sg76
(lp2111
g112
asbasbasbag69
(g85
g71
NtRp2112
(dp2113
g74
(dp2114
sg83
g79
sg76
(lp2115
g69
(g90
g71
NtRp2116
(dp2117
g74
(dp2118
g94
g95
ssg83
g2112
sg76
(lp2119
S'now'
p2120
asbag69
(g90
g71
NtRp2121
(dp2122
g74
(dp2123
g101
g102
ssg83
g2112
sg76
(lp2124
S':'
asbag69
(g90
g71
NtRp2125
(dp2126
g74
(dp2127
sg83
g2112
sg76
(lp2128
g69
(g70
g71
NtRp2129
(dp2130
g74
(dp2131
g82
I5
ssg83
g2125
sg76
(lp2132
S'datetime.datetime(2012, 10, 29, 23, 57, 39, 292000)'
p2133
asbasbasbag69
(g85
g71
NtRp2134
(dp2135
g74
(dp2136
sg83
g79
sg76
(lp2137
g69
(g90
g71
NtRp2138
(dp2139
g74
(dp2140
g94
g95
ssg83
g2134
sg76
(lp2141
S'post_vars'
p2142
asbag69
(g90
g71
NtRp2143
(dp2144
g74
(dp2145
g101
g102
ssg83
g2134
sg76
(lp2146
S':'
asbag69
(g90
g71
NtRp2147
(dp2148
g74
(dp2149
sg83
g2134
sg76
(lp2150
g69
(g70
g71
NtRp2151
(dp2152
g74
(dp2153
g82
I5
ssg83
g2147
sg76
(lp2154
g69
(g78
g71
NtRp2155
(dp2156
g74
(dp2157
g82
I4
ssg83
Nsg76
(lp2158
sbasbasbasbag69
(g85
g71
NtRp2159
(dp2160
g74
(dp2161
sg83
g79
sg76
(lp2162
g69
(g90
g71
NtRp2163
(dp2164
g74
(dp2165
g94
g95
ssg83
g2159
sg76
(lp2166
S'url'
p2167
asbag69
(g90
g71
NtRp2168
(dp2169
g74
(dp2170
g101
g102
ssg83
g2159
sg76
(lp2171
S':'
asbag69
(g90
g71
NtRp2172
(dp2173
g74
(dp2174
sg83
g2159
sg76
(lp2175
g69
(g70
g71
NtRp2176
(dp2177
g74
(dp2178
g82
I5
ssg83
g2172
sg76
(lp2179
S'/profile/fun/index'
p2180
asbasbasbag69
(g85
g71
NtRp2181
(dp2182
g74
(dp2183
sg83
g79
sg76
(lp2184
g69
(g90
g71
NtRp2185
(dp2186
g74
(dp2187
g94
g95
ssg83
g2181
sg76
(lp2188
S'utcnow'
p2189
asbag69
(g90
g71
NtRp2190
(dp2191
g74
(dp2192
g101
g102
ssg83
g2181
sg76
(lp2193
S':'
asbag69
(g90
g71
NtRp2194
(dp2195
g74
(dp2196
sg83
g2181
sg76
(lp2197
g69
(g70
g71
NtRp2198
(dp2199
g74
(dp2200
g82
I5
ssg83
g2194
sg76
(lp2201
S'datetime.datetime(2012, 10, 29, 12, 57, 39, 292000)'
p2202
asbasbasbag69
(g85
g71
NtRp2203
(dp2204
g74
(dp2205
sg83
g79
sg76
(lp2206
g69
(g90
g71
NtRp2207
(dp2208
g74
(dp2209
g94
g95
ssg83
g2203
sg76
(lp2210
S'uuid'
p2211
asbag69
(g90
g71
NtRp2212
(dp2213
g74
(dp2214
g101
g102
ssg83
g2203
sg76
(lp2215
S':'
asbag69
(g90
g71
NtRp2216
(dp2217
g74
(dp2218
sg83
g2203
sg76
(lp2219
g69
(g70
g71
NtRp2220
(dp2221
g74
(dp2222
g82
I5
ssg83
g2216
sg76
(lp2223
S'profile/127.0.0.1.2012-10-29.23-57-39.49a91873-9418-48ca-895b-848906a6f0a0'
p2224
asbasbasbag69
(g85
g71
NtRp2225
(dp2226
g74
(dp2227
sg83
g79
sg76
(lp2228
g69
(g90
g71
NtRp2229
(dp2230
g74
(dp2231
g94
g95
ssg83
g2225
sg76
(lp2232
S'vars'
p2233
asbag69
(g90
g71
NtRp2234
(dp2235
g74
(dp2236
g101
g102
ssg83
g2225
sg76
(lp2237
S':'
asbag69
(g90
g71
NtRp2238
(dp2239
g74
(dp2240
sg83
g2225
sg76
(lp2241
g69
(g70
g71
NtRp2242
(dp2243
g74
(dp2244
g82
I5
ssg83
g2238
sg76
(lp2245
g69
(g78
g71
NtRp2246
(dp2247
g74
(dp2248
g82
I4
ssg83
Nsg76
(lp2249
sbasbasbasbag69
(g85
g71
NtRp2250
(dp2251
g74
(dp2252
sg83
g79
sg76
(lp2253
g69
(g90
g71
NtRp2254
(dp2255
g74
(dp2256
g94
g95
ssg83
g2250
sg76
(lp2257
S'wsgi'
p2258
asbag69
(g90
g71
NtRp2259
(dp2260
g74
(dp2261
g101
g102
ssg83
g2250
sg76
(lp2262
S':'
asbag69
(g90
g71
NtRp2263
(dp2264
g74
(dp2265
sg83
g2250
sg76
(lp2266
g69
(g70
g71
NtRp2267
(dp2268
g74
(dp2269
g82
I5
ssg83
g2263
sg76
(lp2270
g69
(g78
g71
NtRp2271
(dp2272
g74
(dp2273
g82
I4
ssg83
Nsg76
(lp2274
g69
(g85
g71
NtRp2275
(dp2276
g74
(dp2277
sg83
g2271
sg76
(lp2278
g69
(g90
g71
NtRp2279
(dp2280
g74
(dp2281
g94
g95
ssg83
g2275
sg76
(lp2282
S'environ'
p2283
asbag69
(g90
g71
NtRp2284
(dp2285
g74
(dp2286
g101
g102
ssg83
g2275
sg76
(lp2287
S':'
asbag69
(g90
g71
NtRp2288
(dp2289
g74
(dp2290
sg83
g2275
sg76
(lp2291
g69
(g70
g71
NtRp2292
(dp2293
g74
(dp2294
g82
I4
ssg83
g2288
sg76
(lp2295
g69
(g78
g71
NtRp2296
(dp2297
g74
(dp2298
g82
I3
ssg83
Nsg76
(lp2299
g69
(g85
g71
NtRp2300
(dp2301
g74
(dp2302
sg83
g2296
sg76
(lp2303
g69
(g90
g71
NtRp2304
(dp2305
g74
(dp2306
g94
g95
ssg83
g2300
sg76
(lp2307
S'HTTP_ACCEPT'
p2308
asbag69
(g90
g71
NtRp2309
(dp2310
g74
(dp2311
g101
g102
ssg83
g2300
sg76
(lp2312
S':'
asbag69
(g90
g71
NtRp2313
(dp2314
g74
(dp2315
sg83
g2300
sg76
(lp2316
g69
(g70
g71
NtRp2317
(dp2318
g74
(dp2319
g82
I3
ssg83
g2313
sg76
(lp2320
g830
asbasbasbag69
(g85
g71
NtRp2321
(dp2322
g74
(dp2323
sg83
g2296
sg76
(lp2324
g69
(g90
g71
NtRp2325
(dp2326
g74
(dp2327
g94
g95
ssg83
g2321
sg76
(lp2328
S'HTTP_ACCEPT_CHARSET'
p2329
asbag69
(g90
g71
NtRp2330
(dp2331
g74
(dp2332
g101
g102
ssg83
g2321
sg76
(lp2333
S':'
asbag69
(g90
g71
NtRp2334
(dp2335
g74
(dp2336
sg83
g2321
sg76
(lp2337
g69
(g70
g71
NtRp2338
(dp2339
g74
(dp2340
g82
I3
ssg83
g2334
sg76
(lp2341
g852
asbasbasbag69
(g85
g71
NtRp2342
(dp2343
g74
(dp2344
sg83
g2296
sg76
(lp2345
g69
(g90
g71
NtRp2346
(dp2347
g74
(dp2348
g94
g95
ssg83
g2342
sg76
(lp2349
S'HTTP_ACCEPT_ENCODING'
p2350
asbag69
(g90
g71
NtRp2351
(dp2352
g74
(dp2353
g101
g102
ssg83
g2342
sg76
(lp2354
S':'
asbag69
(g90
g71
NtRp2355
(dp2356
g74
(dp2357
sg83
g2342
sg76
(lp2358
g69
(g70
g71
NtRp2359
(dp2360
g74
(dp2361
g82
I3
ssg83
g2355
sg76
(lp2362
g874
asbasbasbag69
(g85
g71
NtRp2363
(dp2364
g74
(dp2365
sg83
g2296
sg76
(lp2366
g69
(g90
g71
NtRp2367
(dp2368
g74
(dp2369
g94
g95
ssg83
g2363
sg76
(lp2370
S'HTTP_ACCEPT_LANGUAGE'
p2371
asbag69
(g90
g71
NtRp2372
(dp2373
g74
(dp2374
g101
g102
ssg83
g2363
sg76
(lp2375
S':'
asbag69
(g90
g71
NtRp2376
(dp2377
g74
(dp2378
sg83
g2363
sg76
(lp2379
g69
(g70
g71
NtRp2380
(dp2381
g74
(dp2382
g82
I3
ssg83
g2376
sg76
(lp2383
g896
asbasbasbag69
(g85
g71
NtRp2384
(dp2385
g74
(dp2386
sg83
g2296
sg76
(lp2387
g69
(g90
g71
NtRp2388
(dp2389
g74
(dp2390
g94
g95
ssg83
g2384
sg76
(lp2391
S'HTTP_CACHE_CONTROL'
p2392
asbag69
(g90
g71
NtRp2393
(dp2394
g74
(dp2395
g101
g102
ssg83
g2384
sg76
(lp2396
S':'
asbag69
(g90
g71
NtRp2397
(dp2398
g74
(dp2399
sg83
g2384
sg76
(lp2400
g69
(g70
g71
NtRp2401
(dp2402
g74
(dp2403
g82
I3
ssg83
g2397
sg76
(lp2404
g918
asbasbasbag69
(g85
g71
NtRp2405
(dp2406
g74
(dp2407
sg83
g2296
sg76
(lp2408
g69
(g90
g71
NtRp2409
(dp2410
g74
(dp2411
g94
g95
ssg83
g2405
sg76
(lp2412
S'HTTP_CONNECTION'
p2413
asbag69
(g90
g71
NtRp2414
(dp2415
g74
(dp2416
g101
g102
ssg83
g2405
sg76
(lp2417
S':'
asbag69
(g90
g71
NtRp2418
(dp2419
g74
(dp2420
sg83
g2405
sg76
(lp2421
g69
(g70
g71
NtRp2422
(dp2423
g74
(dp2424
g82
I3
ssg83
g2418
sg76
(lp2425
g940
asbasbasbag69
(g85
g71
NtRp2426
(dp2427
g74
(dp2428
sg83
g2296
sg76
(lp2429
g69
(g90
g71
NtRp2430
(dp2431
g74
(dp2432
g94
g95
ssg83
g2426
sg76
(lp2433
S'HTTP_COOKIE'
p2434
asbag69
(g90
g71
NtRp2435
(dp2436
g74
(dp2437
g101
g102
ssg83
g2426
sg76
(lp2438
S':'
asbag69
(g90
g71
NtRp2439
(dp2440
g74
(dp2441
sg83
g2426
sg76
(lp2442
g69
(g70
g71
NtRp2443
(dp2444
g74
(dp2445
g82
I3
ssg83
g2439
sg76
(lp2446
g962
asbasbasbag69
(g85
g71
NtRp2447
(dp2448
g74
(dp2449
sg83
g2296
sg76
(lp2450
g69
(g90
g71
NtRp2451
(dp2452
g74
(dp2453
g94
g95
ssg83
g2447
sg76
(lp2454
S'HTTP_HOST'
p2455
asbag69
(g90
g71
NtRp2456
(dp2457
g74
(dp2458
g101
g102
ssg83
g2447
sg76
(lp2459
S':'
asbag69
(g90
g71
NtRp2460
(dp2461
g74
(dp2462
sg83
g2447
sg76
(lp2463
g69
(g70
g71
NtRp2464
(dp2465
g74
(dp2466
g82
I3
ssg83
g2460
sg76
(lp2467
g984
asbasbasbag69
(g85
g71
NtRp2468
(dp2469
g74
(dp2470
sg83
g2296
sg76
(lp2471
g69
(g90
g71
NtRp2472
(dp2473
g74
(dp2474
g94
g95
ssg83
g2468
sg76
(lp2475
S'HTTP_USER_AGENT'
p2476
asbag69
(g90
g71
NtRp2477
(dp2478
g74
(dp2479
g101
g102
ssg83
g2468
sg76
(lp2480
S':'
asbag69
(g90
g71
NtRp2481
(dp2482
g74
(dp2483
sg83
g2468
sg76
(lp2484
g69
(g70
g71
NtRp2485
(dp2486
g74
(dp2487
g82
I3
ssg83
g2481
sg76
(lp2488
g1006
asbasbasbag69
(g85
g71
NtRp2489
(dp2490
g74
(dp2491
sg83
g2296
sg76
(lp2492
g69
(g90
g71
NtRp2493
(dp2494
g74
(dp2495
g94
g95
ssg83
g2489
sg76
(lp2496
S'PATH_INFO'
p2497
asbag69
(g90
g71
NtRp2498
(dp2499
g74
(dp2500
g101
g102
ssg83
g2489
sg76
(lp2501
S':'
asbag69
(g90
g71
NtRp2502
(dp2503
g74
(dp2504
sg83
g2489
sg76
(lp2505
g69
(g70
g71
NtRp2506
(dp2507
g74
(dp2508
g82
I3
ssg83
g2502
sg76
(lp2509
g1070
asbasbasbag69
(g85
g71
NtRp2510
(dp2511
g74
(dp2512
sg83
g2296
sg76
(lp2513
g69
(g90
g71
NtRp2514
(dp2515
g74
(dp2516
g94
g95
ssg83
g2510
sg76
(lp2517
S'QUERY_STRING'
p2518
asbag69
(g90
g71
NtRp2519
(dp2520
g74
(dp2521
g101
g102
ssg83
g2510
sg76
(lp2522
S':'
asbag69
(g90
g71
NtRp2523
(dp2524
g74
(dp2525
sg83
g2510
sg76
(lp2526
g69
(g70
g71
NtRp2527
(dp2528
g74
(dp2529
g82
I3
ssg83
g2523
sg76
(lp2530
S''
asbasbasbag69
(g85
g71
NtRp2531
(dp2532
g74
(dp2533
sg83
g2296
sg76
(lp2534
g69
(g90
g71
NtRp2535
(dp2536
g74
(dp2537
g94
g95
ssg83
g2531
sg76
(lp2538
S'REMOTE_ADDR'
p2539
asbag69
(g90
g71
NtRp2540
(dp2541
g74
(dp2542
g101
g102
ssg83
g2531
sg76
(lp2543
S':'
asbag69
(g90
g71
NtRp2544
(dp2545
g74
(dp2546
sg83
g2531
sg76
(lp2547
g69
(g70
g71
NtRp2548
(dp2549
g74
(dp2550
g82
I3
ssg83
g2544
sg76
(lp2551
g202
asbasbasbag69
(g85
g71
NtRp2552
(dp2553
g74
(dp2554
sg83
g2296
sg76
(lp2555
g69
(g90
g71
NtRp2556
(dp2557
g74
(dp2558
g94
g95
ssg83
g2552
sg76
(lp2559
S'REMOTE_PORT'
p2560
asbag69
(g90
g71
NtRp2561
(dp2562
g74
(dp2563
g101
g102
ssg83
g2552
sg76
(lp2564
S':'
asbag69
(g90
g71
NtRp2565
(dp2566
g74
(dp2567
sg83
g2552
sg76
(lp2568
g69
(g70
g71
NtRp2569
(dp2570
g74
(dp2571
g82
I3
ssg83
g2565
sg76
(lp2572
g1134
asbasbasbag69
(g85
g71
NtRp2573
(dp2574
g74
(dp2575
sg83
g2296
sg76
(lp2576
g69
(g90
g71
NtRp2577
(dp2578
g74
(dp2579
g94
g95
ssg83
g2573
sg76
(lp2580
S'REQUEST_METHOD'
p2581
asbag69
(g90
g71
NtRp2582
(dp2583
g74
(dp2584
g101
g102
ssg83
g2573
sg76
(lp2585
S':'
asbag69
(g90
g71
NtRp2586
(dp2587
g74
(dp2588
sg83
g2573
sg76
(lp2589
g69
(g70
g71
NtRp2590
(dp2591
g74
(dp2592
g82
I3
ssg83
g2586
sg76
(lp2593
g1156
asbasbasbag69
(g85
g71
NtRp2594
(dp2595
g74
(dp2596
sg83
g2296
sg76
(lp2597
g69
(g90
g71
NtRp2598
(dp2599
g74
(dp2600
g94
g95
ssg83
g2594
sg76
(lp2601
S'REQUEST_URI'
p2602
asbag69
(g90
g71
NtRp2603
(dp2604
g74
(dp2605
g101
g102
ssg83
g2594
sg76
(lp2606
S':'
asbag69
(g90
g71
NtRp2607
(dp2608
g74
(dp2609
sg83
g2594
sg76
(lp2610
g69
(g70
g71
NtRp2611
(dp2612
g74
(dp2613
g82
I3
ssg83
g2607
sg76
(lp2614
g1070
asbasbasbag69
(g85
g71
NtRp2615
(dp2616
g74
(dp2617
sg83
g2296
sg76
(lp2618
g69
(g90
g71
NtRp2619
(dp2620
g74
(dp2621
g94
g95
ssg83
g2615
sg76
(lp2622
S'SCRIPT_NAME'
p2623
asbag69
(g90
g71
NtRp2624
(dp2625
g74
(dp2626
g101
g102
ssg83
g2615
sg76
(lp2627
S':'
asbag69
(g90
g71
NtRp2628
(dp2629
g74
(dp2630
sg83
g2615
sg76
(lp2631
g69
(g70
g71
NtRp2632
(dp2633
g74
(dp2634
g82
I3
ssg83
g2628
sg76
(lp2635
S''
asbasbasbag69
(g85
g71
NtRp2636
(dp2637
g74
(dp2638
sg83
g2296
sg76
(lp2639
g69
(g90
g71
NtRp2640
(dp2641
g74
(dp2642
g94
g95
ssg83
g2636
sg76
(lp2643
S'SERVER_NAME'
p2644
asbag69
(g90
g71
NtRp2645
(dp2646
g74
(dp2647
g101
g102
ssg83
g2636
sg76
(lp2648
S':'
asbag69
(g90
g71
NtRp2649
(dp2650
g74
(dp2651
sg83
g2636
sg76
(lp2652
g69
(g70
g71
NtRp2653
(dp2654
g74
(dp2655
g82
I3
ssg83
g2649
sg76
(lp2656
g1220
asbasbasbag69
(g85
g71
NtRp2657
(dp2658
g74
(dp2659
sg83
g2296
sg76
(lp2660
g69
(g90
g71
NtRp2661
(dp2662
g74
(dp2663
g94
g95
ssg83
g2657
sg76
(lp2664
S'SERVER_PORT'
p2665
asbag69
(g90
g71
NtRp2666
(dp2667
g74
(dp2668
g101
g102
ssg83
g2657
sg76
(lp2669
S':'
asbag69
(g90
g71
NtRp2670
(dp2671
g74
(dp2672
sg83
g2657
sg76
(lp2673
g69
(g70
g71
NtRp2674
(dp2675
g74
(dp2676
g82
I3
ssg83
g2670
sg76
(lp2677
g1242
asbasbasbag69
(g85
g71
NtRp2678
(dp2679
g74
(dp2680
sg83
g2296
sg76
(lp2681
g69
(g90
g71
NtRp2682
(dp2683
g74
(dp2684
g94
g95
ssg83
g2678
sg76
(lp2685
S'SERVER_PROTOCOL'
p2686
asbag69
(g90
g71
NtRp2687
(dp2688
g74
(dp2689
g101
g102
ssg83
g2678
sg76
(lp2690
S':'
asbag69
(g90
g71
NtRp2691
(dp2692
g74
(dp2693
sg83
g2678
sg76
(lp2694
g69
(g70
g71
NtRp2695
(dp2696
g74
(dp2697
g82
I3
ssg83
g2691
sg76
(lp2698
g1264
asbasbasbag69
(g85
g71
NtRp2699
(dp2700
g74
(dp2701
sg83
g2296
sg76
(lp2702
g69
(g90
g71
NtRp2703
(dp2704
g74
(dp2705
g94
g95
ssg83
g2699
sg76
(lp2706
S'SERVER_SOFTWARE'
p2707
asbag69
(g90
g71
NtRp2708
(dp2709
g74
(dp2710
g101
g102
ssg83
g2699
sg76
(lp2711
S':'
asbag69
(g90
g71
NtRp2712
(dp2713
g74
(dp2714
sg83
g2699
sg76
(lp2715
g69
(g70
g71
NtRp2716
(dp2717
g74
(dp2718
g82
I3
ssg83
g2712
sg76
(lp2719
g1286
asbasbasbag69
(g85
g71
NtRp2720
(dp2721
g74
(dp2722
sg83
g2296
sg76
(lp2723
g69
(g90
g71
NtRp2724
(dp2725
g74
(dp2726
g94
g95
ssg83
g2720
sg76
(lp2727
S'WEB2PY_ORIGINAL_URI'
p2728
asbag69
(g90
g71
NtRp2729
(dp2730
g74
(dp2731
g101
g102
ssg83
g2720
sg76
(lp2732
S':'
asbag69
(g90
g71
NtRp2733
(dp2734
g74
(dp2735
sg83
g2720
sg76
(lp2736
g69
(g70
g71
NtRp2737
(dp2738
g74
(dp2739
g82
I3
ssg83
g2733
sg76
(lp2740
g1070
asbasbasbag69
(g85
g71
NtRp2741
(dp2742
g74
(dp2743
sg83
g2296
sg76
(lp2744
g69
(g90
g71
NtRp2745
(dp2746
g74
(dp2747
g94
g95
ssg83
g2741
sg76
(lp2748
S'wsgi.errors'
p2749
asbag69
(g90
g71
NtRp2750
(dp2751
g74
(dp2752
g101
g102
ssg83
g2741
sg76
(lp2753
S':'
asbag69
(g90
g71
NtRp2754
(dp2755
g74
(dp2756
sg83
g2741
sg76
(lp2757
g69
(g70
g71
NtRp2758
(dp2759
g74
(dp2760
g82
I3
ssg83
g2754
sg76
(lp2761
S"<open file '<stderr>', mode 'w' at 0x0000000001C8E1E0>"
p2762
asbasbasbag69
(g85
g71
NtRp2763
(dp2764
g74
(dp2765
sg83
g2296
sg76
(lp2766
g69
(g90
g71
NtRp2767
(dp2768
g74
(dp2769
g94
g95
ssg83
g2763
sg76
(lp2770
S'wsgi.file_wrapper'
p2771
asbag69
(g90
g71
NtRp2772
(dp2773
g74
(dp2774
g101
g102
ssg83
g2763
sg76
(lp2775
S':'
asbag69
(g90
g71
NtRp2776
(dp2777
g74
(dp2778
sg83
g2763
sg76
(lp2779
g69
(g70
g71
NtRp2780
(dp2781
g74
(dp2782
g82
I3
ssg83
g2776
sg76
(lp2783
S'<class wsgiref.util.FileWrapper at 0x0000000003529588>'
p2784
asbasbasbag69
(g85
g71
NtRp2785
(dp2786
g74
(dp2787
sg83
g2296
sg76
(lp2788
g69
(g90
g71
NtRp2789
(dp2790
g74
(dp2791
g94
g95
ssg83
g2785
sg76
(lp2792
S'wsgi.input'
p2793
asbag69
(g90
g71
NtRp2794
(dp2795
g74
(dp2796
g101
g102
ssg83
g2785
sg76
(lp2797
S':'
asbag69
(g90
g71
NtRp2798
(dp2799
g74
(dp2800
sg83
g2785
sg76
(lp2801
g69
(g70
g71
NtRp2802
(dp2803
g74
(dp2804
g82
I3
ssg83
g2798
sg76
(lp2805
S'<cStringIO.StringO object at 0x000000000624EA78>'
p2806
asbasbasbag69
(g85
g71
NtRp2807
(dp2808
g74
(dp2809
sg83
g2296
sg76
(lp2810
g69
(g90
g71
NtRp2811
(dp2812
g74
(dp2813
g94
g95
ssg83
g2807
sg76
(lp2814
S'wsgi.multiprocess'
p2815
asbag69
(g90
g71
NtRp2816
(dp2817
g74
(dp2818
g101
g102
ssg83
g2807
sg76
(lp2819
S':'
asbag69
(g90
g71
NtRp2820
(dp2821
g74
(dp2822
sg83
g2807
sg76
(lp2823
g69
(g70
g71
NtRp2824
(dp2825
g74
(dp2826
g82
I3
ssg83
g2820
sg76
(lp2827
g112
asbasbasbag69
(g85
g71
NtRp2828
(dp2829
g74
(dp2830
sg83
g2296
sg76
(lp2831
g69
(g90
g71
NtRp2832
(dp2833
g74
(dp2834
g94
g95
ssg83
g2828
sg76
(lp2835
S'wsgi.multithread'
p2836
asbag69
(g90
g71
NtRp2837
(dp2838
g74
(dp2839
g101
g102
ssg83
g2828
sg76
(lp2840
S':'
asbag69
(g90
g71
NtRp2841
(dp2842
g74
(dp2843
sg83
g2828
sg76
(lp2844
g69
(g70
g71
NtRp2845
(dp2846
g74
(dp2847
g82
I3
ssg83
g2841
sg76
(lp2848
g1547
asbasbasbag69
(g85
g71
NtRp2849
(dp2850
g74
(dp2851
sg83
g2296
sg76
(lp2852
g69
(g90
g71
NtRp2853
(dp2854
g74
(dp2855
g94
g95
ssg83
g2849
sg76
(lp2856
S'wsgi.run_once'
p2857
asbag69
(g90
g71
NtRp2858
(dp2859
g74
(dp2860
g101
g102
ssg83
g2849
sg76
(lp2861
S':'
asbag69
(g90
g71
NtRp2862
(dp2863
g74
(dp2864
sg83
g2849
sg76
(lp2865
g69
(g70
g71
NtRp2866
(dp2867
g74
(dp2868
g82
I3
ssg83
g2862
sg76
(lp2869
g112
asbasbasbag69
(g85
g71
NtRp2870
(dp2871
g74
(dp2872
sg83
g2296
sg76
(lp2873
g69
(g90
g71
NtRp2874
(dp2875
g74
(dp2876
g94
g95
ssg83
g2870
sg76
(lp2877
S'wsgi.url_scheme'
p2878
asbag69
(g90
g71
NtRp2879
(dp2880
g74
(dp2881
g101
g102
ssg83
g2870
sg76
(lp2882
S':'
asbag69
(g90
g71
NtRp2883
(dp2884
g74
(dp2885
sg83
g2870
sg76
(lp2886
g69
(g70
g71
NtRp2887
(dp2888
g74
(dp2889
g82
I3
ssg83
g2883
sg76
(lp2890
g1590
asbasbasbag69
(g85
g71
NtRp2891
(dp2892
g74
(dp2893
sg83
g2296
sg76
(lp2894
g69
(g90
g71
NtRp2895
(dp2896
g74
(dp2897
g94
g95
ssg83
g2891
sg76
(lp2898
S'wsgi.version'
p2899
asbag69
(g90
g71
NtRp2900
(dp2901
g74
(dp2902
g101
g102
ssg83
g2891
sg76
(lp2903
S':'
asbag69
(g90
g71
NtRp2904
(dp2905
g74
(dp2906
sg83
g2891
sg76
(lp2907
g69
(g70
g71
NtRp2908
(dp2909
g74
(dp2910
g82
I3
ssg83
g2904
sg76
(lp2911
S'1'
asbasbasbasbasbasbasbasbasbasbasbasbasbsS'frames'
p2912
(lp2913
(dp2914
S'file'
p2915
S'C:\\webapps\\ben\\project\\profile\\web2py\\gluon\\restricted.py'
p2916
sS'dump'
p2917
(dp2918
S'code'
p2919
S'"response.write(\'\\\\r\\\\n\', escape=False)\\nresponse.wr...write(\'\\\\r\\\\n</body>\\\\r\\\\n</html>\\\\r\\\\n\', escape=False)"'
p2920
sS'layer'
p2921
S"r'C:\\webapps\\ben\\project\\profile\\web2py\\applications\\profile\\views\\fun/index.html'"
p2922
sS'global compile2'
p2923
S'<function compile2>'
p2924
sS'ccode'
p2925
S'undefined'
p2926
ssS'lnum'
p2927
I203
sS'lines'
p2928
(dp2929
I198
S"    environment['__file__'] = layer"
p2930
sI199
S'    try:'
p2931
sI200
S'        if type(code) == types.CodeType:'
p2932
sI201
S'            ccode = code'
p2933
sI202
S'        else:'
p2934
sI203
S'            ccode = compile2(code,layer)'
p2935
sI204
S'        exec ccode in environment'
p2936
sI205
S'    except HTTP:'
p2937
sI206
S'        raise'
p2938
sI207
S'    except RestrictedError:'
p2939
ssS'call'
p2940
S'(code="response.write(\'\\\\r\\\\n\', escape=False)\\nresponse.wr...write(\'\\\\r\\\\n</body>\\\\r\\\\n</html>\\\\r\\\\n\', escape=False)", environment={\'A\': <class \'gluon.html.A\'>, \'Auth\': <class \'gluon.tools.Auth\'>, \'B\': <class \'gluon.html.B\'>, \'BEAUTIFY\': <class \'gluon.html.BEAUTIFY\'>, \'BODY\': <class \'gluon.html.BODY\'>, \'BR\': <class \'gluon.html.BR\'>, \'BUTTON\': <class \'gluon.html.BUTTON\'>, \'CAT\': <class \'gluon.html.CAT\'>, \'CENTER\': <class \'gluon.html.CENTER\'>, \'CLEANUP\': <class \'gluon.validators.CLEANUP\'>, ...}, layer=r\'C:\\webapps\\ben\\project\\profile\\web2py\\applications\\profile\\views\\fun/index.html\')'
p2941
sS'func'
p2942
S'restricted'
p2943
sa(dp2944
g2915
S'C:\\webapps\\ben\\project\\profile\\web2py\\gluon\\restricted.py'
p2945
sg2917
(dp2946
S'builtincompile'
p2947
S'<built-in function compile>'
p2948
sS'code'
p2949
S'"response.write(\'\\\\r\\\\n\', escape=False)\\nresponse.wr...write(\'\\\\r\\\\n</body>\\\\r\\\\n</html>\\\\r\\\\n\', escape=False)"'
p2950
sS'code.rstrip'
p2951
S'<built-in method rstrip of str object>'
p2952
sS').replace'
p2953
g2926
sS'layer'
p2954
S"r'C:\\webapps\\ben\\project\\profile\\web2py\\applications\\profile\\views\\fun/index.html'"
p2955
ssg2927
I189
sg2928
(dp2956
I192
S'    """'
p2957
sI193
S'    runs code in environment and returns the output. if an exception occurs'
p2958
sI184
S''
sI185
S'def compile2(code,layer):'
p2959
sI186
S'    """'
p2960
sI187
S"    The +'\\n' is necessary else compile fails when code ends in a comment."
p2961
sI188
S'    """'
p2962
sI189
S"    return compile(code.rstrip().replace('\\r\\n','\\n')+'\\n', layer, 'exec')"
p2963
sI190
S''
sI191
S"def restricted(code, environment=None, layer='Unknown'):"
p2964
ssg2940
S'(code="response.write(\'\\\\r\\\\n\', escape=False)\\nresponse.wr...write(\'\\\\r\\\\n</body>\\\\r\\\\n</html>\\\\r\\\\n\', escape=False)", layer=r\'C:\\webapps\\ben\\project\\profile\\web2py\\applications\\profile\\views\\fun/index.html\')'
p2965
sg2942
S'compile2'
p2966
sasS'pyver'
p2967
S'Python 2.7.2: C:\\Python27\\python.exe'
p2968
sS'session'
p2969
g69
(g70
g71
NtRp2970
(dp2971
g74
(dp2972
sg76
(lp2973
g69
(g78
g71
NtRp2974
(dp2975
g74
(dp2976
g82
I5
ssg83
Nsg76
(lp2977
sbasbsS'etype'
p2978
S"<type 'exceptions.SyntaxError'>"
p2979
sS'date'
p2980
S'Mon Oct 29 23:57:39 2012'
p2981
sS'response'
p2982
g69
(g70
g71
NtRp2983
(dp2984
g74
(dp2985
sg76
(lp2986
g69
(g78
g71
NtRp2987
(dp2988
g74
(dp2989
g82
I5
ssg83
Nsg76
(lp2990
g69
(g85
g71
NtRp2991
(dp2992
g74
(dp2993
sg83
g2987
sg76
(lp2994
g69
(g90
g71
NtRp2995
(dp2996
g74
(dp2997
g94
g95
ssg83
g2991
sg76
(lp2998
g167
asbag69
(g90
g71
NtRp2999
(dp3000
g74
(dp3001
g101
g102
ssg83
g2991
sg76
(lp3002
S':'
asbag69
(g90
g71
NtRp3003
(dp3004
g74
(dp3005
sg83
g2991
sg76
(lp3006
g69
(g70
g71
NtRp3007
(dp3008
g74
(dp3009
g82
I5
ssg83
g3003
sg76
(lp3010
S'<cStringIO.StringO object at 0x0000000006258618>'
p3011
asbasbasbag69
(g85
g71
NtRp3012
(dp3013
g74
(dp3014
sg83
g2987
sg76
(lp3015
g69
(g90
g71
NtRp3016
(dp3017
g74
(dp3018
g94
g95
ssg83
g3012
sg76
(lp3019
g233
asbag69
(g90
g71
NtRp3020
(dp3021
g74
(dp3022
g101
g102
ssg83
g3012
sg76
(lp3023
S':'
asbag69
(g90
g71
NtRp3024
(dp3025
g74
(dp3026
sg83
g3012
sg76
(lp3027
g69
(g70
g71
NtRp3028
(dp3029
g74
(dp3030
g82
I5
ssg83
g3024
sg76
(lp3031
g69
(g78
g71
NtRp3032
(dp3033
g74
(dp3034
g82
I4
ssg83
Nsg76
(lp3035
g69
(g85
g71
NtRp3036
(dp3037
g74
(dp3038
sg83
g3032
sg76
(lp3039
g69
(g90
g71
NtRp3040
(dp3041
g74
(dp3042
g94
g95
ssg83
g3036
sg76
(lp3043
S'session_id_profile'
p3044
asbag69
(g90
g71
NtRp3045
(dp3046
g74
(dp3047
g101
g102
ssg83
g3036
sg76
(lp3048
S':'
asbag69
(g90
g71
NtRp3049
(dp3050
g74
(dp3051
sg83
g3036
sg76
(lp3052
g69
(g70
g71
NtRp3053
(dp3054
g74
(dp3055
g82
I4
ssg83
g3049
sg76
(lp3056
g69
(g78
g71
NtRp3057
(dp3058
g74
(dp3059
g82
I3
ssg83
Nsg76
(lp3060
g69
(g85
g71
NtRp3061
(dp3062
g74
(dp3063
sg83
g3057
sg76
(lp3064
g69
(g90
g71
NtRp3065
(dp3066
g74
(dp3067
g94
g95
ssg83
g3061
sg76
(lp3068
g283
asbag69
(g90
g71
NtRp3069
(dp3070
g74
(dp3071
g101
g102
ssg83
g3061
sg76
(lp3072
S':'
asbag69
(g90
g71
NtRp3073
(dp3074
g74
(dp3075
sg83
g3061
sg76
(lp3076
g69
(g70
g71
NtRp3077
(dp3078
g74
(dp3079
g82
I3
ssg83
g3073
sg76
(lp3080
S''
asbasbasbag69
(g85
g71
NtRp3081
(dp3082
g74
(dp3083
sg83
g3057
sg76
(lp3084
g69
(g90
g71
NtRp3085
(dp3086
g74
(dp3087
g94
g95
ssg83
g3081
sg76
(lp3088
g304
asbag69
(g90
g71
NtRp3089
(dp3090
g74
(dp3091
g101
g102
ssg83
g3081
sg76
(lp3092
S':'
asbag69
(g90
g71
NtRp3093
(dp3094
g74
(dp3095
sg83
g3081
sg76
(lp3096
g69
(g70
g71
NtRp3097
(dp3098
g74
(dp3099
g82
I3
ssg83
g3093
sg76
(lp3100
S''
asbasbasbag69
(g85
g71
NtRp3101
(dp3102
g74
(dp3103
sg83
g3057
sg76
(lp3104
g69
(g90
g71
NtRp3105
(dp3106
g74
(dp3107
g94
g95
ssg83
g3101
sg76
(lp3108
g325
asbag69
(g90
g71
NtRp3109
(dp3110
g74
(dp3111
g101
g102
ssg83
g3101
sg76
(lp3112
S':'
asbag69
(g90
g71
NtRp3113
(dp3114
g74
(dp3115
sg83
g3101
sg76
(lp3116
g69
(g70
g71
NtRp3117
(dp3118
g74
(dp3119
g82
I3
ssg83
g3113
sg76
(lp3120
S''
asbasbasbag69
(g85
g71
NtRp3121
(dp3122
g74
(dp3123
sg83
g3057
sg76
(lp3124
g69
(g90
g71
NtRp3125
(dp3126
g74
(dp3127
g94
g95
ssg83
g3121
sg76
(lp3128
g346
asbag69
(g90
g71
NtRp3129
(dp3130
g74
(dp3131
g101
g102
ssg83
g3121
sg76
(lp3132
S':'
asbag69
(g90
g71
NtRp3133
(dp3134
g74
(dp3135
sg83
g3121
sg76
(lp3136
g69
(g70
g71
NtRp3137
(dp3138
g74
(dp3139
g82
I3
ssg83
g3133
sg76
(lp3140
S''
asbasbasbag69
(g85
g71
NtRp3141
(dp3142
g74
(dp3143
sg83
g3057
sg76
(lp3144
g69
(g90
g71
NtRp3145
(dp3146
g74
(dp3147
g94
g95
ssg83
g3141
sg76
(lp3148
g367
asbag69
(g90
g71
NtRp3149
(dp3150
g74
(dp3151
g101
g102
ssg83
g3141
sg76
(lp3152
S':'
asbag69
(g90
g71
NtRp3153
(dp3154
g74
(dp3155
sg83
g3141
sg76
(lp3156
g69
(g70
g71
NtRp3157
(dp3158
g74
(dp3159
g82
I3
ssg83
g3153
sg76
(lp3160
S''
asbasbasbag69
(g85
g71
NtRp3161
(dp3162
g74
(dp3163
sg83
g3057
sg76
(lp3164
g69
(g90
g71
NtRp3165
(dp3166
g74
(dp3167
g94
g95
ssg83
g3161
sg76
(lp3168
g388
asbag69
(g90
g71
NtRp3169
(dp3170
g74
(dp3171
g101
g102
ssg83
g3161
sg76
(lp3172
S':'
asbag69
(g90
g71
NtRp3173
(dp3174
g74
(dp3175
sg83
g3161
sg76
(lp3176
g69
(g70
g71
NtRp3177
(dp3178
g74
(dp3179
g82
I3
ssg83
g3173
sg76
(lp3180
S'/'
asbasbasbag69
(g85
g71
NtRp3181
(dp3182
g74
(dp3183
sg83
g3057
sg76
(lp3184
g69
(g90
g71
NtRp3185
(dp3186
g74
(dp3187
g94
g95
ssg83
g3181
sg76
(lp3188
g409
asbag69
(g90
g71
NtRp3189
(dp3190
g74
(dp3191
g101
g102
ssg83
g3181
sg76
(lp3192
S':'
asbag69
(g90
g71
NtRp3193
(dp3194
g74
(dp3195
sg83
g3181
sg76
(lp3196
g69
(g70
g71
NtRp3197
(dp3198
g74
(dp3199
g82
I3
ssg83
g3193
sg76
(lp3200
S''
asbasbasbag69
(g85
g71
NtRp3201
(dp3202
g74
(dp3203
sg83
g3057
sg76
(lp3204
g69
(g90
g71
NtRp3205
(dp3206
g74
(dp3207
g94
g95
ssg83
g3201
sg76
(lp3208
g430
asbag69
(g90
g71
NtRp3209
(dp3210
g74
(dp3211
g101
g102
ssg83
g3201
sg76
(lp3212
S':'
asbag69
(g90
g71
NtRp3213
(dp3214
g74
(dp3215
sg83
g3201
sg76
(lp3216
g69
(g70
g71
NtRp3217
(dp3218
g74
(dp3219
g82
I3
ssg83
g3213
sg76
(lp3220
S''
asbasbasbasbasbasbasbasbasbasbasbag69
(g85
g71
NtRp3221
(dp3222
g74
(dp3223
sg83
g2987
sg76
(lp3224
g69
(g90
g71
NtRp3225
(dp3226
g74
(dp3227
g94
g95
ssg83
g3221
sg76
(lp3228
S'files'
p3229
asbag69
(g90
g71
NtRp3230
(dp3231
g74
(dp3232
g101
g102
ssg83
g3221
sg76
(lp3233
S':'
asbag69
(g90
g71
NtRp3234
(dp3235
g74
(dp3236
sg83
g3221
sg76
(lp3237
g69
(g70
g71
NtRp3238
(dp3239
g74
(dp3240
g82
I5
ssg83
g3234
sg76
(lp3241
g69
(g78
g71
NtRp3242
(dp3243
g74
(dp3244
g82
I4
ssg83
Nsg76
(lp3245
sbasbasbasbag69
(g85
g71
NtRp3246
(dp3247
g74
(dp3248
sg83
g2987
sg76
(lp3249
g69
(g90
g71
NtRp3250
(dp3251
g74
(dp3252
g94
g95
ssg83
g3246
sg76
(lp3253
S'flash'
p3254
asbag69
(g90
g71
NtRp3255
(dp3256
g74
(dp3257
g101
g102
ssg83
g3246
sg76
(lp3258
S':'
asbag69
(g90
g71
NtRp3259
(dp3260
g74
(dp3261
sg83
g3246
sg76
(lp3262
g69
(g70
g71
NtRp3263
(dp3264
g74
(dp3265
g82
I5
ssg83
g3259
sg76
(lp3266
S''
asbasbasbag69
(g85
g71
NtRp3267
(dp3268
g74
(dp3269
sg83
g2987
sg76
(lp3270
g69
(g90
g71
NtRp3271
(dp3272
g74
(dp3273
g94
g95
ssg83
g3267
sg76
(lp3274
S'generic_patterns'
p3275
asbag69
(g90
g71
NtRp3276
(dp3277
g74
(dp3278
g101
g102
ssg83
g3267
sg76
(lp3279
S':'
asbag69
(g90
g71
NtRp3280
(dp3281
g74
(dp3282
sg83
g3267
sg76
(lp3283
g69
(g70
g71
NtRp3284
(dp3285
g74
(dp3286
g82
I5
ssg83
g3280
sg76
(lp3287
g69
(g78
g71
NtRp3288
(dp3289
g74
(dp3290
g82
I4
ssg83
Nsg76
(lp3291
g69
(g85
g71
NtRp3292
(dp3293
g74
(dp3294
sg83
g3288
sg76
(lp3295
g69
(g90
g71
NtRp3296
(dp3297
g74
(dp3298
sg83
g3292
sg76
(lp3299
g69
(g70
g71
NtRp3300
(dp3301
g74
(dp3302
g82
I4
ssg83
g3296
sg76
(lp3303
S'*'
asbasbasbasbasbasbasbag69
(g85
g71
NtRp3304
(dp3305
g74
(dp3306
sg83
g2987
sg76
(lp3307
g69
(g90
g71
NtRp3308
(dp3309
g74
(dp3310
g94
g95
ssg83
g3304
sg76
(lp3311
S'headers'
p3312
asbag69
(g90
g71
NtRp3313
(dp3314
g74
(dp3315
g101
g102
ssg83
g3304
sg76
(lp3316
S':'
asbag69
(g90
g71
NtRp3317
(dp3318
g74
(dp3319
sg83
g3304
sg76
(lp3320
g69
(g70
g71
NtRp3321
(dp3322
g74
(dp3323
g82
I5
ssg83
g3317
sg76
(lp3324
g69
(g78
g71
NtRp3325
(dp3326
g74
(dp3327
g82
I4
ssg83
Nsg76
(lp3328
g69
(g85
g71
NtRp3329
(dp3330
g74
(dp3331
sg83
g3325
sg76
(lp3332
g69
(g90
g71
NtRp3333
(dp3334
g74
(dp3335
g94
g95
ssg83
g3329
sg76
(lp3336
S'Cache-Control'
p3337
asbag69
(g90
g71
NtRp3338
(dp3339
g74
(dp3340
g101
g102
ssg83
g3329
sg76
(lp3341
S':'
asbag69
(g90
g71
NtRp3342
(dp3343
g74
(dp3344
sg83
g3329
sg76
(lp3345
g69
(g70
g71
NtRp3346
(dp3347
g74
(dp3348
g82
I4
ssg83
g3342
sg76
(lp3349
S'no-store, no-cache, must-revalidate, post-check=0, pre-check=0'
p3350
asbasbasbag69
(g85
g71
NtRp3351
(dp3352
g74
(dp3353
sg83
g3325
sg76
(lp3354
g69
(g90
g71
NtRp3355
(dp3356
g74
(dp3357
g94
g95
ssg83
g3351
sg76
(lp3358
S'Content-Type'
p3359
asbag69
(g90
g71
NtRp3360
(dp3361
g74
(dp3362
g101
g102
ssg83
g3351
sg76
(lp3363
S':'
asbag69
(g90
g71
NtRp3364
(dp3365
g74
(dp3366
sg83
g3351
sg76
(lp3367
g69
(g70
g71
NtRp3368
(dp3369
g74
(dp3370
g82
I4
ssg83
g3364
sg76
(lp3371
S'text/html; charset=utf-8'
p3372
asbasbasbag69
(g85
g71
NtRp3373
(dp3374
g74
(dp3375
sg83
g3325
sg76
(lp3376
g69
(g90
g71
NtRp3377
(dp3378
g74
(dp3379
g94
g95
ssg83
g3373
sg76
(lp3380
S'Expires'
p3381
asbag69
(g90
g71
NtRp3382
(dp3383
g74
(dp3384
g101
g102
ssg83
g3373
sg76
(lp3385
S':'
asbag69
(g90
g71
NtRp3386
(dp3387
g74
(dp3388
sg83
g3373
sg76
(lp3389
g69
(g70
g71
NtRp3390
(dp3391
g74
(dp3392
g82
I4
ssg83
g3386
sg76
(lp3393
S'Mon, 29 Oct 2012 12:57:39 GMT'
p3394
asbasbasbag69
(g85
g71
NtRp3395
(dp3396
g74
(dp3397
sg83
g3325
sg76
(lp3398
g69
(g90
g71
NtRp3399
(dp3400
g74
(dp3401
g94
g95
ssg83
g3395
sg76
(lp3402
S'Pragma'
p3403
asbag69
(g90
g71
NtRp3404
(dp3405
g74
(dp3406
g101
g102
ssg83
g3395
sg76
(lp3407
S':'
asbag69
(g90
g71
NtRp3408
(dp3409
g74
(dp3410
sg83
g3395
sg76
(lp3411
g69
(g70
g71
NtRp3412
(dp3413
g74
(dp3414
g82
I4
ssg83
g3408
sg76
(lp3415
S'no-cache'
p3416
asbasbasbag69
(g85
g71
NtRp3417
(dp3418
g74
(dp3419
sg83
g3325
sg76
(lp3420
g69
(g90
g71
NtRp3421
(dp3422
g74
(dp3423
g94
g95
ssg83
g3417
sg76
(lp3424
S'X-Powered-By'
p3425
asbag69
(g90
g71
NtRp3426
(dp3427
g74
(dp3428
g101
g102
ssg83
g3417
sg76
(lp3429
S':'
asbag69
(g90
g71
NtRp3430
(dp3431
g74
(dp3432
sg83
g3417
sg76
(lp3433
g69
(g70
g71
NtRp3434
(dp3435
g74
(dp3436
g82
I4
ssg83
g3430
sg76
(lp3437
S'web2py'
p3438
asbasbasbasbasbasbasbag69
(g85
g71
NtRp3439
(dp3440
g74
(dp3441
sg83
g2987
sg76
(lp3442
g69
(g90
g71
NtRp3443
(dp3444
g74
(dp3445
g94
g95
ssg83
g3439
sg76
(lp3446
S'menu'
p3447
asbag69
(g90
g71
NtRp3448
(dp3449
g74
(dp3450
g101
g102
ssg83
g3439
sg76
(lp3451
S':'
asbag69
(g90
g71
NtRp3452
(dp3453
g74
(dp3454
sg83
g3439
sg76
(lp3455
g69
(g70
g71
NtRp3456
(dp3457
g74
(dp3458
g82
I5
ssg83
g3452
sg76
(lp3459
g69
(g78
g71
NtRp3460
(dp3461
g74
(dp3462
g82
I4
ssg83
Nsg76
(lp3463
g69
(g85
g71
NtRp3464
(dp3465
g74
(dp3466
sg83
g3460
sg76
(lp3467
g69
(g90
g71
NtRp3468
(dp3469
g74
(dp3470
sg83
g3464
sg76
(lp3471
g69
(g70
g71
NtRp3472
(dp3473
g74
(dp3474
g82
I4
ssg83
g3468
sg76
(lp3475
g69
(g78
g71
NtRp3476
(dp3477
g74
(dp3478
g82
I3
ssg83
Nsg76
(lp3479
g69
(g85
g71
NtRp3480
(dp3481
g74
(dp3482
sg83
g3476
sg76
(lp3483
g69
(g90
g71
NtRp3484
(dp3485
g74
(dp3486
sg83
g3480
sg76
(lp3487
g69
(g70
g71
NtRp3488
(dp3489
g74
(dp3490
g82
I3
ssg83
g3484
sg76
(lp3491
cgluon.languages
lazyT_unpickle
p3492
(S't\x04\x00\x00\x00Home'
tRp3493
asbasbasbag69
(g85
g71
NtRp3494
(dp3495
g74
(dp3496
sg83
g3476
sg76
(lp3497
g69
(g90
g71
NtRp3498
(dp3499
g74
(dp3500
sg83
g3494
sg76
(lp3501
g69
(g70
g71
NtRp3502
(dp3503
g74
(dp3504
g82
I3
ssg83
g3498
sg76
(lp3505
g112
asbasbasbag69
(g85
g71
NtRp3506
(dp3507
g74
(dp3508
sg83
g3476
sg76
(lp3509
g69
(g90
g71
NtRp3510
(dp3511
g74
(dp3512
sg83
g3506
sg76
(lp3513
g69
(g70
g71
NtRp3514
(dp3515
g74
(dp3516
g82
I3
ssg83
g3510
sg76
(lp3517
S'/'
asbasbasbag69
(g85
g71
NtRp3518
(dp3519
g74
(dp3520
sg83
g3476
sg76
(lp3521
g69
(g90
g71
NtRp3522
(dp3523
g74
(dp3524
sg83
g3518
sg76
(lp3525
g69
(g70
g71
NtRp3526
(dp3527
g74
(dp3528
g82
I3
ssg83
g3522
sg76
(lp3529
g69
(g78
g71
NtRp3530
(dp3531
g74
(dp3532
g82
I2
ssg83
Nsg76
(lp3533
sbasbasbasbasbasbasbasbag69
(g85
g71
NtRp3534
(dp3535
g74
(dp3536
sg83
g3460
sg76
(lp3537
g69
(g90
g71
NtRp3538
(dp3539
g74
(dp3540
sg83
g3534
sg76
(lp3541
g69
(g70
g71
NtRp3542
(dp3543
g74
(dp3544
g82
I4
ssg83
g3538
sg76
(lp3545
g69
(g78
g71
NtRp3546
(dp3547
g74
(dp3548
g82
I3
ssg83
Nsg76
(lp3549
g69
(g85
g71
NtRp3550
(dp3551
g74
(dp3552
sg83
g3546
sg76
(lp3553
g69
(g90
g71
NtRp3554
(dp3555
g74
(dp3556
sg83
g3550
sg76
(lp3557
g69
(g70
g71
NtRp3558
(dp3559
g74
(dp3560
g82
I3
ssg83
g3554
sg76
(lp3561
g69
(cgluon.html
SPAN
p3562
g71
NtRp3563
(dp3564
g74
(dp3565
g94
S'color:yellow'
p3566
ssg83
Nsg76
(lp3567
g3438
asbasbasbasbag69
(g85
g71
NtRp3568
(dp3569
g74
(dp3570
sg83
g3546
sg76
(lp3571
g69
(g90
g71
NtRp3572
(dp3573
g74
(dp3574
sg83
g3568
sg76
(lp3575
g69
(g70
g71
NtRp3576
(dp3577
g74
(dp3578
g82
I3
ssg83
g3572
sg76
(lp3579
g112
asbasbasbag69
(g85
g71
NtRp3580
(dp3581
g74
(dp3582
sg83
g3546
sg76
(lp3583
g69
(g90
g71
NtRp3584
(dp3585
g74
(dp3586
sg83
g3580
sg76
(lp3587
g69
(g70
g71
NtRp3588
(dp3589
g74
(dp3590
g82
I3
ssg83
g3584
sg76
(lp3591
S'None'
p3592
asbasbasbag69
(g85
g71
NtRp3593
(dp3594
g74
(dp3595
sg83
g3546
sg76
(lp3596
g69
(g90
g71
NtRp3597
(dp3598
g74
(dp3599
sg83
g3593
sg76
(lp3600
g69
(g70
g71
NtRp3601
(dp3602
g74
(dp3603
g82
I3
ssg83
g3597
sg76
(lp3604
g69
(g78
g71
NtRp3605
(dp3606
g74
(dp3607
g82
I2
ssg83
Nsg76
(lp3608
g69
(g85
g71
NtRp3609
(dp3610
g74
(dp3611
sg83
g3605
sg76
(lp3612
g69
(g90
g71
NtRp3613
(dp3614
g74
(dp3615
sg83
g3609
sg76
(lp3616
g69
(g70
g71
NtRp3617
(dp3618
g74
(dp3619
g82
I2
ssg83
g3613
sg76
(lp3620
g69
(g78
g71
NtRp3621
(dp3622
g74
(dp3623
g82
I1
ssg83
Nsg76
(lp3624
g69
(g85
g71
NtRp3625
(dp3626
g74
(dp3627
sg83
g3621
sg76
(lp3628
g69
(g90
g71
NtRp3629
(dp3630
g74
(dp3631
sg83
g3625
sg76
(lp3632
g69
(g70
g71
NtRp3633
(dp3634
g74
(dp3635
g82
I1
ssg83
g3629
sg76
(lp3636
g3492
(S's\x08\x00\x00\x00My Sites'
tRp3637
asbasbasbag69
(g85
g71
NtRp3638
(dp3639
g74
(dp3640
sg83
g3621
sg76
(lp3641
g69
(g90
g71
NtRp3642
(dp3643
g74
(dp3644
sg83
g3638
sg76
(lp3645
g69
(g70
g71
NtRp3646
(dp3647
g74
(dp3648
g82
I1
ssg83
g3642
sg76
(lp3649
I00
asbasbasbag69
(g85
g71
NtRp3650
(dp3651
g74
(dp3652
sg83
g3621
sg76
(lp3653
g69
(g90
g71
NtRp3654
(dp3655
g74
(dp3656
sg83
g3650
sg76
(lp3657
g69
(g70
g71
NtRp3658
(dp3659
g74
(dp3660
g82
I1
ssg83
g3654
sg76
(lp3661
S'/admin/default/site'
p3662
asbasbasbasbasbasbasbag69
(g85
g71
NtRp3663
(dp3664
g74
(dp3665
sg83
g3605
sg76
(lp3666
g69
(g90
g71
NtRp3667
(dp3668
g74
(dp3669
sg83
g3663
sg76
(lp3670
g69
(g70
g71
NtRp3671
(dp3672
g74
(dp3673
g82
I2
ssg83
g3667
sg76
(lp3674
g69
(g78
g71
NtRp3675
(dp3676
g74
(dp3677
g82
I1
ssg83
Nsg76
(lp3678
g69
(g85
g71
NtRp3679
(dp3680
g74
(dp3681
sg83
g3675
sg76
(lp3682
g69
(g90
g71
NtRp3683
(dp3684
g74
(dp3685
sg83
g3679
sg76
(lp3686
g69
(g70
g71
NtRp3687
(dp3688
g74
(dp3689
g82
I1
ssg83
g3683
sg76
(lp3690
g3492
(S's\x08\x00\x00\x00This App'
tRp3691
asbasbasbag69
(g85
g71
NtRp3692
(dp3693
g74
(dp3694
sg83
g3675
sg76
(lp3695
g69
(g90
g71
NtRp3696
(dp3697
g74
(dp3698
sg83
g3692
sg76
(lp3699
g69
(g70
g71
NtRp3700
(dp3701
g74
(dp3702
g82
I1
ssg83
g3696
sg76
(lp3703
I00
asbasbasbag69
(g85
g71
NtRp3704
(dp3705
g74
(dp3706
sg83
g3675
sg76
(lp3707
g69
(g90
g71
NtRp3708
(dp3709
g74
(dp3710
sg83
g3704
sg76
(lp3711
g69
(g70
g71
NtRp3712
(dp3713
g74
(dp3714
g82
I1
ssg83
g3708
sg76
(lp3715
S'/admin/default/design/profile'
p3716
asbasbasbag69
(g85
g71
NtRp3717
(dp3718
g74
(dp3719
sg83
g3675
sg76
(lp3720
g69
(g90
g71
NtRp3721
(dp3722
g74
(dp3723
sg83
g3717
sg76
(lp3724
g69
(g70
g71
NtRp3725
(dp3726
g74
(dp3727
g82
I1
ssg83
g3721
sg76
(lp3728
(lp3729
(g3492
(S't\n\x00\x00\x00Controller'
tRp3730
I00
S'/admin/default/edit/profile/controllers/fun.py'
tp3731
a(g3492
(S't\x04\x00\x00\x00View'
tRp3732
I00
S'/admin/default/edit/profile/views/fun/index.html'
tp3733
a(g3492
(S't\x06\x00\x00\x00Layout'
tRp3734
I00
S'/admin/default/edit/profile/views/layout.html'
tp3735
a(g3492
(S't\n\x00\x00\x00Stylesheet'
tRp3736
I00
S'/admin/default/edit/profile/static/css/web2py.css'
tp3737
a(g3492
(S's\x08\x00\x00\x00DB Model'
tRp3738
I00
S'/admin/default/edit/profile/models/db.py'
tp3739
a(g3492
(S's\n\x00\x00\x00Menu Model'
tRp3740
I00
S'/admin/default/edit/profile/models/menu.py'
tp3741
a(g3492
(S't\x08\x00\x00\x00Database'
tRp3742
I00
S'/profile/appadmin/index'
tp3743
a(g3492
(S't\x06\x00\x00\x00Errors'
tRp3744
I00
S'/admin/default/errors/profile'
tp3745
a(g3492
(S't\x05\x00\x00\x00About'
tRp3746
I00
S'/admin/default/about/profile'
tp3747
aasbasbasbasbasbasbasbag69
(g85
g71
NtRp3748
(dp3749
g74
(dp3750
sg83
g3605
sg76
(lp3751
g69
(g90
g71
NtRp3752
(dp3753
g74
(dp3754
sg83
g3748
sg76
(lp3755
g69
(g70
g71
NtRp3756
(dp3757
g74
(dp3758
g82
I2
ssg83
g3752
sg76
(lp3759
g69
(g78
g71
NtRp3760
(dp3761
g74
(dp3762
g82
I1
ssg83
Nsg76
(lp3763
g69
(g85
g71
NtRp3764
(dp3765
g74
(dp3766
sg83
g3760
sg76
(lp3767
g69
(g90
g71
NtRp3768
(dp3769
g74
(dp3770
sg83
g3764
sg76
(lp3771
g69
(g70
g71
NtRp3772
(dp3773
g74
(dp3774
g82
I1
ssg83
g3768
sg76
(lp3775
S'web2py.com'
p3776
asbasbasbag69
(g85
g71
NtRp3777
(dp3778
g74
(dp3779
sg83
g3760
sg76
(lp3780
g69
(g90
g71
NtRp3781
(dp3782
g74
(dp3783
sg83
g3777
sg76
(lp3784
g69
(g70
g71
NtRp3785
(dp3786
g74
(dp3787
g82
I1
ssg83
g3781
sg76
(lp3788
I00
asbasbasbag69
(g85
g71
NtRp3789
(dp3790
g74
(dp3791
sg83
g3760
sg76
(lp3792
g69
(g90
g71
NtRp3793
(dp3794
g74
(dp3795
sg83
g3789
sg76
(lp3796
g69
(g70
g71
NtRp3797
(dp3798
g74
(dp3799
g82
I1
ssg83
g3793
sg76
(lp3800
S'http://www.web2py.com'
p3801
asbasbasbag69
(g85
g71
NtRp3802
(dp3803
g74
(dp3804
sg83
g3760
sg76
(lp3805
g69
(g90
g71
NtRp3806
(dp3807
g74
(dp3808
sg83
g3802
sg76
(lp3809
g69
(g70
g71
NtRp3810
(dp3811
g74
(dp3812
g82
I1
ssg83
g3806
sg76
(lp3813
(lp3814
(g3492
(S't\x08\x00\x00\x00Download'
tRp3815
I00
S'http://www.web2py.com/examples/default/download'
p3816
tp3817
a(g3492
(S't\x07\x00\x00\x00Support'
tRp3818
I00
S'http://www.web2py.com/examples/default/support'
p3819
tp3820
a(g3492
(S't\x04\x00\x00\x00Demo'
tRp3821
I00
S'http://web2py.com/demo_admin'
p3822
tp3823
a(g3492
(S's\x0e\x00\x00\x00Quick Examples'
tRp3824
I00
S'http://web2py.com/examples/default/examples'
p3825
tp3826
a(g3492
(S't\x03\x00\x00\x00FAQ'
tRp3827
I00
S'http://web2py.com/AlterEgo'
p3828
tp3829
a(g3492
(S't\x06\x00\x00\x00Videos'
tRp3830
I00
S'http://www.web2py.com/examples/default/videos/'
p3831
tp3832
a(g3492
(S's\x11\x00\x00\x00Free Applications'
tRp3833
I00
S'http://web2py.com/appliances'
p3834
tp3835
a(g3492
(S't\x07\x00\x00\x00Plugins'
tRp3836
I00
S'http://web2py.com/plugins'
p3837
tp3838
a(g3492
(S't\x07\x00\x00\x00Layouts'
tRp3839
I00
S'http://web2py.com/layouts'
p3840
tp3841
a(g3492
(S't\x07\x00\x00\x00Recipes'
tRp3842
I00
S'http://web2pyslices.com/'
p3843
tp3844
a(g3492
(S't\x08\x00\x00\x00Semantic'
tRp3845
I00
S'http://web2py.com/semantic'
p3846
tp3847
aasbasbasbasbasbasbasbag69
(g85
g71
NtRp3848
(dp3849
g74
(dp3850
sg83
g3605
sg76
(lp3851
g69
(g90
g71
NtRp3852
(dp3853
g74
(dp3854
sg83
g3848
sg76
(lp3855
g69
(g70
g71
NtRp3856
(dp3857
g74
(dp3858
g82
I2
ssg83
g3852
sg76
(lp3859
g69
(g78
g71
NtRp3860
(dp3861
g74
(dp3862
g82
I1
ssg83
Nsg76
(lp3863
g69
(g85
g71
NtRp3864
(dp3865
g74
(dp3866
sg83
g3860
sg76
(lp3867
g69
(g90
g71
NtRp3868
(dp3869
g74
(dp3870
sg83
g3864
sg76
(lp3871
g69
(g70
g71
NtRp3872
(dp3873
g74
(dp3874
g82
I1
ssg83
g3868
sg76
(lp3875
g3492
(S't\r\x00\x00\x00Documentation'
tRp3876
asbasbasbag69
(g85
g71
NtRp3877
(dp3878
g74
(dp3879
sg83
g3860
sg76
(lp3880
g69
(g90
g71
NtRp3881
(dp3882
g74
(dp3883
sg83
g3877
sg76
(lp3884
g69
(g70
g71
NtRp3885
(dp3886
g74
(dp3887
g82
I1
ssg83
g3881
sg76
(lp3888
I00
asbasbasbag69
(g85
g71
NtRp3889
(dp3890
g74
(dp3891
sg83
g3860
sg76
(lp3892
g69
(g90
g71
NtRp3893
(dp3894
g74
(dp3895
sg83
g3889
sg76
(lp3896
g69
(g70
g71
NtRp3897
(dp3898
g74
(dp3899
g82
I1
ssg83
g3893
sg76
(lp3900
S'http://www.web2py.com/book'
p3901
asbasbasbag69
(g85
g71
NtRp3902
(dp3903
g74
(dp3904
sg83
g3860
sg76
(lp3905
g69
(g90
g71
NtRp3906
(dp3907
g74
(dp3908
sg83
g3902
sg76
(lp3909
g69
(g70
g71
NtRp3910
(dp3911
g74
(dp3912
g82
I1
ssg83
g3906
sg76
(lp3913
(lp3914
(g3492
(S't\x07\x00\x00\x00Preface'
tRp3915
I00
S'http://www.web2py.com/book/default/chapter/00'
p3916
tp3917
a(g3492
(S't\x0c\x00\x00\x00Introduction'
tRp3918
I00
S'http://www.web2py.com/book/default/chapter/01'
p3919
tp3920
a(g3492
(S't\x06\x00\x00\x00Python'
tRp3921
I00
S'http://www.web2py.com/book/default/chapter/02'
p3922
tp3923
a(g3492
(S't\x08\x00\x00\x00Overview'
tRp3924
I00
S'http://www.web2py.com/book/default/chapter/03'
p3925
tp3926
a(g3492
(S's\x08\x00\x00\x00The Core'
tRp3927
I00
S'http://www.web2py.com/book/default/chapter/04'
p3928
tp3929
a(g3492
(S's\t\x00\x00\x00The Views'
tRp3930
I00
S'http://www.web2py.com/book/default/chapter/05'
p3931
tp3932
a(g3492
(S't\x08\x00\x00\x00Database'
tRp3933
I00
S'http://www.web2py.com/book/default/chapter/06'
p3934
tp3935
a(g3492
(S's\x14\x00\x00\x00Forms and Validators'
tRp3936
I00
S'http://www.web2py.com/book/default/chapter/07'
p3937
tp3938
a(g3492
(S's\r\x00\x00\x00Email and SMS'
tRp3939
I00
S'http://www.web2py.com/book/default/chapter/08'
p3940
tp3941
a(g3492
(S's\x0e\x00\x00\x00Access Control'
tRp3942
I00
S'http://www.web2py.com/book/default/chapter/09'
p3943
tp3944
a(g3492
(S't\x08\x00\x00\x00Services'
tRp3945
I00
S'http://www.web2py.com/book/default/chapter/10'
p3946
tp3947
a(g3492
(S's\x0c\x00\x00\x00Ajax Recipes'
tRp3948
I00
S'http://www.web2py.com/book/default/chapter/11'
p3949
tp3950
a(g3492
(S's\x16\x00\x00\x00Components and Plugins'
tRp3951
I00
S'http://www.web2py.com/book/default/chapter/12'
p3952
tp3953
a(g3492
(S's\x12\x00\x00\x00Deployment Recipes'
tRp3954
I00
S'http://www.web2py.com/book/default/chapter/13'
p3955
tp3956
a(g3492
(S's\r\x00\x00\x00Other Recipes'
tRp3957
I00
S'http://www.web2py.com/book/default/chapter/14'
p3958
tp3959
a(g3492
(S's\r\x00\x00\x00Buy this book'
tRp3960
I00
S'http://stores.lulu.com/web2py'
p3961
tp3962
aasbasbasbasbasbasbasbag69
(g85
g71
NtRp3963
(dp3964
g74
(dp3965
sg83
g3605
sg76
(lp3966
g69
(g90
g71
NtRp3967
(dp3968
g74
(dp3969
sg83
g3963
sg76
(lp3970
g69
(g70
g71
NtRp3971
(dp3972
g74
(dp3973
g82
I2
ssg83
g3967
sg76
(lp3974
g69
(g78
g71
NtRp3975
(dp3976
g74
(dp3977
g82
I1
ssg83
Nsg76
(lp3978
g69
(g85
g71
NtRp3979
(dp3980
g74
(dp3981
sg83
g3975
sg76
(lp3982
g69
(g90
g71
NtRp3983
(dp3984
g74
(dp3985
sg83
g3979
sg76
(lp3986
g69
(g70
g71
NtRp3987
(dp3988
g74
(dp3989
g82
I1
ssg83
g3983
sg76
(lp3990
g3492
(S't\t\x00\x00\x00Community'
tRp3991
asbasbasbag69
(g85
g71
NtRp3992
(dp3993
g74
(dp3994
sg83
g3975
sg76
(lp3995
g69
(g90
g71
NtRp3996
(dp3997
g74
(dp3998
sg83
g3992
sg76
(lp3999
g69
(g70
g71
NtRp4000
(dp4001
g74
(dp4002
g82
I1
ssg83
g3996
sg76
(lp4003
I00
asbasbasbag69
(g85
g71
NtRp4004
(dp4005
g74
(dp4006
sg83
g3975
sg76
(lp4007
g69
(g90
g71
NtRp4008
(dp4009
g74
(dp4010
sg83
g4004
sg76
(lp4011
g69
(g70
g71
NtRp4012
(dp4013
g74
(dp4014
g82
I1
ssg83
g4008
sg76
(lp4015
Nasbasbasbag69
(g85
g71
NtRp4016
(dp4017
g74
(dp4018
sg83
g3975
sg76
(lp4019
g69
(g90
g71
NtRp4020
(dp4021
g74
(dp4022
sg83
g4016
sg76
(lp4023
g69
(g70
g71
NtRp4024
(dp4025
g74
(dp4026
g82
I1
ssg83
g4020
sg76
(lp4027
(lp4028
(g3492
(S't\x06\x00\x00\x00Groups'
tRp4029
I00
S'http://www.web2py.com/examples/default/usergroups'
p4030
tp4031
a(g3492
(S't\x07\x00\x00\x00Twitter'
tRp4032
I00
S'http://twitter.com/web2py'
p4033
tp4034
a(g3492
(S's\t\x00\x00\x00Live Chat'
tRp4035
I00
S'http://webchat.freenode.net/?channels=web2py'
p4036
tp4037
aasbasbasbasbasbasbasbag69
(g85
g71
NtRp4038
(dp4039
g74
(dp4040
sg83
g3605
sg76
(lp4041
g69
(g90
g71
NtRp4042
(dp4043
g74
(dp4044
sg83
g4038
sg76
(lp4045
g69
(g70
g71
NtRp4046
(dp4047
g74
(dp4048
g82
I2
ssg83
g4042
sg76
(lp4049
g69
(g78
g71
NtRp4050
(dp4051
g74
(dp4052
g82
I1
ssg83
Nsg76
(lp4053
g69
(g85
g71
NtRp4054
(dp4055
g74
(dp4056
sg83
g4050
sg76
(lp4057
g69
(g90
g71
NtRp4058
(dp4059
g74
(dp4060
sg83
g4054
sg76
(lp4061
g69
(g70
g71
NtRp4062
(dp4063
g74
(dp4064
g82
I1
ssg83
g4058
sg76
(lp4065
g3492
(S't\x07\x00\x00\x00Plugins'
tRp4066
asbasbasbag69
(g85
g71
NtRp4067
(dp4068
g74
(dp4069
sg83
g4050
sg76
(lp4070
g69
(g90
g71
NtRp4071
(dp4072
g74
(dp4073
sg83
g4067
sg76
(lp4074
g69
(g70
g71
NtRp4075
(dp4076
g74
(dp4077
g82
I1
ssg83
g4071
sg76
(lp4078
I00
asbasbasbag69
(g85
g71
NtRp4079
(dp4080
g74
(dp4081
sg83
g4050
sg76
(lp4082
g69
(g90
g71
NtRp4083
(dp4084
g74
(dp4085
sg83
g4079
sg76
(lp4086
g69
(g70
g71
NtRp4087
(dp4088
g74
(dp4089
g82
I1
ssg83
g4083
sg76
(lp4090
Nasbasbasbag69
(g85
g71
NtRp4091
(dp4092
g74
(dp4093
sg83
g4050
sg76
(lp4094
g69
(g90
g71
NtRp4095
(dp4096
g74
(dp4097
sg83
g4091
sg76
(lp4098
g69
(g70
g71
NtRp4099
(dp4100
g74
(dp4101
g82
I1
ssg83
g4095
sg76
(lp4102
(lp4103
(S'plugin_wiki'
p4104
I00
S'http://web2py.com/examples/default/download'
p4105
tp4106
a(g3492
(S's\r\x00\x00\x00Other Plugins'
tRp4107
I00
g3837
tp4108
a(g3492
(S's\x0e\x00\x00\x00Layout Plugins'
tRp4109
I00
g3840
tp4110
aasbasbasbasbasbasbasbasbasbasbasbasbasbasbasbasbasbasbasbag69
(g85
g71
NtRp4111
(dp4112
g74
(dp4113
sg83
g2987
sg76
(lp4114
g69
(g90
g71
NtRp4115
(dp4116
g74
(dp4117
g94
g95
ssg83
g4111
sg76
(lp4118
S'meta'
p4119
asbag69
(g90
g71
NtRp4120
(dp4121
g74
(dp4122
g101
g102
ssg83
g4111
sg76
(lp4123
S':'
asbag69
(g90
g71
NtRp4124
(dp4125
g74
(dp4126
sg83
g4111
sg76
(lp4127
g69
(g70
g71
NtRp4128
(dp4129
g74
(dp4130
g82
I5
ssg83
g4124
sg76
(lp4131
g69
(g78
g71
NtRp4132
(dp4133
g74
(dp4134
g82
I4
ssg83
Nsg76
(lp4135
g69
(g85
g71
NtRp4136
(dp4137
g74
(dp4138
sg83
g4132
sg76
(lp4139
g69
(g90
g71
NtRp4140
(dp4141
g74
(dp4142
g94
g95
ssg83
g4136
sg76
(lp4143
S'author'
p4144
asbag69
(g90
g71
NtRp4145
(dp4146
g74
(dp4147
g101
g102
ssg83
g4136
sg76
(lp4148
S':'
asbag69
(g90
g71
NtRp4149
(dp4150
g74
(dp4151
sg83
g4136
sg76
(lp4152
g69
(g70
g71
NtRp4153
(dp4154
g74
(dp4155
g82
I4
ssg83
g4149
sg76
(lp4156
S'Your Name <you@example.com>'
p4157
asbasbasbag69
(g85
g71
NtRp4158
(dp4159
g74
(dp4160
sg83
g4132
sg76
(lp4161
g69
(g90
g71
NtRp4162
(dp4163
g74
(dp4164
g94
g95
ssg83
g4158
sg76
(lp4165
S'copyright'
p4166
asbag69
(g90
g71
NtRp4167
(dp4168
g74
(dp4169
g101
g102
ssg83
g4158
sg76
(lp4170
S':'
asbag69
(g90
g71
NtRp4171
(dp4172
g74
(dp4173
sg83
g4158
sg76
(lp4174
g69
(g70
g71
NtRp4175
(dp4176
g74
(dp4177
g82
I4
ssg83
g4171
sg76
(lp4178
S'Copyright 2011'
p4179
asbasbasbag69
(g85
g71
NtRp4180
(dp4181
g74
(dp4182
sg83
g4132
sg76
(lp4183
g69
(g90
g71
NtRp4184
(dp4185
g74
(dp4186
g94
g95
ssg83
g4180
sg76
(lp4187
S'description'
p4188
asbag69
(g90
g71
NtRp4189
(dp4190
g74
(dp4191
g101
g102
ssg83
g4180
sg76
(lp4192
S':'
asbag69
(g90
g71
NtRp4193
(dp4194
g74
(dp4195
sg83
g4180
sg76
(lp4196
g69
(g70
g71
NtRp4197
(dp4198
g74
(dp4199
g82
I4
ssg83
g4193
sg76
(lp4200
S'a cool new app'
p4201
asbasbasbag69
(g85
g71
NtRp4202
(dp4203
g74
(dp4204
sg83
g4132
sg76
(lp4205
g69
(g90
g71
NtRp4206
(dp4207
g74
(dp4208
g94
g95
ssg83
g4202
sg76
(lp4209
S'generator'
p4210
asbag69
(g90
g71
NtRp4211
(dp4212
g74
(dp4213
g101
g102
ssg83
g4202
sg76
(lp4214
S':'
asbag69
(g90
g71
NtRp4215
(dp4216
g74
(dp4217
sg83
g4202
sg76
(lp4218
g69
(g70
g71
NtRp4219
(dp4220
g74
(dp4221
g82
I4
ssg83
g4215
sg76
(lp4222
S'Web2py Web Framework'
p4223
asbasbasbag69
(g85
g71
NtRp4224
(dp4225
g74
(dp4226
sg83
g4132
sg76
(lp4227
g69
(g90
g71
NtRp4228
(dp4229
g74
(dp4230
g94
g95
ssg83
g4224
sg76
(lp4231
S'keywords'
p4232
asbag69
(g90
g71
NtRp4233
(dp4234
g74
(dp4235
g101
g102
ssg83
g4224
sg76
(lp4236
S':'
asbag69
(g90
g71
NtRp4237
(dp4238
g74
(dp4239
sg83
g4224
sg76
(lp4240
g69
(g70
g71
NtRp4241
(dp4242
g74
(dp4243
g82
I4
ssg83
g4237
sg76
(lp4244
S'web2py, python, framework'
p4245
asbasbasbasbasbasbasbag69
(g85
g71
NtRp4246
(dp4247
g74
(dp4248
sg83
g2987
sg76
(lp4249
g69
(g90
g71
NtRp4250
(dp4251
g74
(dp4252
g94
g95
ssg83
g4246
sg76
(lp4253
S'postprocessing'
p4254
asbag69
(g90
g71
NtRp4255
(dp4256
g74
(dp4257
g101
g102
ssg83
g4246
sg76
(lp4258
S':'
asbag69
(g90
g71
NtRp4259
(dp4260
g74
(dp4261
sg83
g4246
sg76
(lp4262
g69
(g70
g71
NtRp4263
(dp4264
g74
(dp4265
g82
I5
ssg83
g4259
sg76
(lp4266
g69
(g78
g71
NtRp4267
(dp4268
g74
(dp4269
g82
I4
ssg83
Nsg76
(lp4270
sbasbasbasbag69
(g85
g71
NtRp4271
(dp4272
g74
(dp4273
sg83
g2987
sg76
(lp4274
g69
(g90
g71
NtRp4275
(dp4276
g74
(dp4277
g94
g95
ssg83
g4271
sg76
(lp4278
S'session_filename'
p4279
asbag69
(g90
g71
NtRp4280
(dp4281
g74
(dp4282
g101
g102
ssg83
g4271
sg76
(lp4283
S':'
asbag69
(g90
g71
NtRp4284
(dp4285
g74
(dp4286
sg83
g4271
sg76
(lp4287
g69
(g70
g71
NtRp4288
(dp4289
g74
(dp4290
g82
I5
ssg83
g4284
sg76
(lp4291
S'C:\\webapps\\ben\\project\\profile\\web2py\\applications\\profile\\sessions\\127.0.0.1-7e6cd349-02e0-47b6-9564-217702e9e6a6'
p4292
asbasbasbag69
(g85
g71
NtRp4293
(dp4294
g74
(dp4295
sg83
g2987
sg76
(lp4296
g69
(g90
g71
NtRp4297
(dp4298
g74
(dp4299
g94
g95
ssg83
g4293
sg76
(lp4300
S'session_id'
p4301
asbag69
(g90
g71
NtRp4302
(dp4303
g74
(dp4304
g101
g102
ssg83
g4293
sg76
(lp4305
S':'
asbag69
(g90
g71
NtRp4306
(dp4307
g74
(dp4308
sg83
g4293
sg76
(lp4309
g69
(g70
g71
NtRp4310
(dp4311
g74
(dp4312
g82
I5
ssg83
g4306
sg76
(lp4313
S'127.0.0.1-7e6cd349-02e0-47b6-9564-217702e9e6a6'
p4314
asbasbasbag69
(g85
g71
NtRp4315
(dp4316
g74
(dp4317
sg83
g2987
sg76
(lp4318
g69
(g90
g71
NtRp4319
(dp4320
g74
(dp4321
g94
g95
ssg83
g4315
sg76
(lp4322
S'session_id_name'
p4323
asbag69
(g90
g71
NtRp4324
(dp4325
g74
(dp4326
g101
g102
ssg83
g4315
sg76
(lp4327
S':'
asbag69
(g90
g71
NtRp4328
(dp4329
g74
(dp4330
sg83
g4315
sg76
(lp4331
g69
(g70
g71
NtRp4332
(dp4333
g74
(dp4334
g82
I5
ssg83
g4328
sg76
(lp4335
g3044
asbasbasbag69
(g85
g71
NtRp4336
(dp4337
g74
(dp4338
sg83
g2987
sg76
(lp4339
g69
(g90
g71
NtRp4340
(dp4341
g74
(dp4342
g94
g95
ssg83
g4336
sg76
(lp4343
S'session_new'
p4344
asbag69
(g90
g71
NtRp4345
(dp4346
g74
(dp4347
g101
g102
ssg83
g4336
sg76
(lp4348
S':'
asbag69
(g90
g71
NtRp4349
(dp4350
g74
(dp4351
sg83
g4336
sg76
(lp4352
g69
(g70
g71
NtRp4353
(dp4354
g74
(dp4355
g82
I5
ssg83
g4349
sg76
(lp4356
g1547
asbasbasbag69
(g85
g71
NtRp4357
(dp4358
g74
(dp4359
sg83
g2987
sg76
(lp4360
g69
(g90
g71
NtRp4361
(dp4362
g74
(dp4363
g94
g95
ssg83
g4357
sg76
(lp4364
S'status'
p4365
asbag69
(g90
g71
NtRp4366
(dp4367
g74
(dp4368
g101
g102
ssg83
g4357
sg76
(lp4369
S':'
asbag69
(g90
g71
NtRp4370
(dp4371
g74
(dp4372
sg83
g4357
sg76
(lp4373
g69
(g70
g71
NtRp4374
(dp4375
g74
(dp4376
g82
I5
ssg83
g4370
sg76
(lp4377
S'200'
p4378
asbasbasbag69
(g85
g71
NtRp4379
(dp4380
g74
(dp4381
sg83
g2987
sg76
(lp4382
g69
(g90
g71
NtRp4383
(dp4384
g74
(dp4385
g94
g95
ssg83
g4379
sg76
(lp4386
S'subtitle'
p4387
asbag69
(g90
g71
NtRp4388
(dp4389
g74
(dp4390
g101
g102
ssg83
g4379
sg76
(lp4391
S':'
asbag69
(g90
g71
NtRp4392
(dp4393
g74
(dp4394
sg83
g4379
sg76
(lp4395
g69
(g70
g71
NtRp4396
(dp4397
g74
(dp4398
g82
I5
ssg83
g4392
sg76
(lp4399
g3492
(S's\r\x00\x00\x00customize me!'
tRp4400
asbasbasbag69
(g85
g71
NtRp4401
(dp4402
g74
(dp4403
sg83
g2987
sg76
(lp4404
g69
(g90
g71
NtRp4405
(dp4406
g74
(dp4407
g94
g95
ssg83
g4401
sg76
(lp4408
S'title'
p4409
asbag69
(g90
g71
NtRp4410
(dp4411
g74
(dp4412
g101
g102
ssg83
g4401
sg76
(lp4413
S':'
asbag69
(g90
g71
NtRp4414
(dp4415
g74
(dp4416
sg83
g4401
sg76
(lp4417
g69
(g70
g71
NtRp4418
(dp4419
g74
(dp4420
g82
I5
ssg83
g4414
sg76
(lp4421
S'Profile'
p4422
asbasbasbag69
(g85
g71
NtRp4423
(dp4424
g74
(dp4425
sg83
g2987
sg76
(lp4426
g69
(g90
g71
NtRp4427
(dp4428
g74
(dp4429
g94
g95
ssg83
g4423
sg76
(lp4430
g2211
asbag69
(g90
g71
NtRp4431
(dp4432
g74
(dp4433
g101
g102
ssg83
g4423
sg76
(lp4434
S':'
asbag69
(g90
g71
NtRp4435
(dp4436
g74
(dp4437
sg83
g4423
sg76
(lp4438
g69
(g70
g71
NtRp4439
(dp4440
g74
(dp4441
g82
I5
ssg83
g4435
sg76
(lp4442
g2224
asbasbasbag69
(g85
g71
NtRp4443
(dp4444
g74
(dp4445
sg83
g2987
sg76
(lp4446
g69
(g90
g71
NtRp4447
(dp4448
g74
(dp4449
g94
g95
ssg83
g4443
sg76
(lp4450
S'view'
p4451
asbag69
(g90
g71
NtRp4452
(dp4453
g74
(dp4454
g101
g102
ssg83
g4443
sg76
(lp4455
S':'
asbag69
(g90
g71
NtRp4456
(dp4457
g74
(dp4458
sg83
g4443
sg76
(lp4459
g69
(g70
g71
NtRp4460
(dp4461
g74
(dp4462
g82
I5
ssg83
g4456
sg76
(lp4463
S'fun/index.html'
p4464
asbasbasbasbasbsS'locals'
p4465
(dp4466
g4
S"r'C:\\webapps\\ben\\project\\profile\\web2py\\applications\\profile\\views\\fun/index.html'"
p4467
sg6
S'"response.write(\'\\\\r\\\\n\', escape=False)\\nresponse.wr...write(\'\\\\r\\\\n</body>\\\\r\\\\n</html>\\\\r\\\\n\', escape=False)"'
p4468
sssS'traceback'
p4469
S'Traceback (most recent call last):\n  File "C:\\webapps\\ben\\project\\profile\\web2py\\gluon\\restricted.py", line 203, in restricted\n    ccode = compile2(code,layer)\n  File "C:\\webapps\\ben\\project\\profile\\web2py\\gluon\\restricted.py", line 189, in compile2\n    return compile(code.rstrip().replace(\'\\r\\n\',\'\\n\')+\'\\n\', layer, \'exec\')\n  File "C:\\webapps\\ben\\project\\profile\\web2py\\applications\\profile\\views\\fun/index.html", line 48\n    response.write(URL("profile","static/{{=URL("profile","static/js","lib","prototype-1.6.0.2.js"))\n                                                       ^\nSyntaxError: invalid syntax\n'
p4470
s.